
LEDflasher.elf:     file format elf32-littlearm

Sections:
Idx Name          Size      VMA       LMA       File off  Algn
  0 .text         00001eac  00000000  00000000  00010000  2**2
                  CONTENTS, ALLOC, LOAD, READONLY, CODE
  1 .gnu.sgstubs  00000000  0000ff00  0000ff00  00014020  2**0
                  CONTENTS
  2 .relocate     00000000  20000000  20000000  00014020  2**0
                  CONTENTS
  3 .bss          00000020  20000000  20000000  00020000  2**2
                  ALLOC
  4 .heap         00000200  20000020  20000020  00020000  2**0
                  ALLOC
  5 .stack        00000400  20000220  20000220  00020000  2**0
                  ALLOC
  6 .userRowBlock 00000020  00804000  00804000  00014000  2**2
                  CONTENTS, ALLOC, LOAD, READONLY, DATA
  7 .ARM.attributes 0000002c  00000000  00000000  00014020  2**0
                  CONTENTS, READONLY
  8 .comment      00000059  00000000  00000000  0001404c  2**0
                  CONTENTS, READONLY
  9 .debug_frame  00000058  00000000  00000000  000140a8  2**2
                  CONTENTS, READONLY, DEBUGGING

Disassembly of section .text:

00000000 <exception_table>:
       0:	20 06 00 20 b5 01 00 00 4b 02 00 00 4b 02 00 00      .. ....K...K...
	...
      2c:	4b 02 00 00 00 00 00 00 00 00 00 00 4b 02 00 00     K...........K...
      3c:	4b 02 00 00 4b 02 00 00 4b 02 00 00 4b 02 00 00     K...K...K...K...
      4c:	4b 02 00 00 4b 02 00 00 4b 02 00 00 4b 02 00 00     K...K...K...K...
      5c:	4b 02 00 00 4b 02 00 00 4b 02 00 00 4b 02 00 00     K...K...K...K...
      6c:	4b 02 00 00 4b 02 00 00 4b 02 00 00 4b 02 00 00     K...K...K...K...
      7c:	4b 02 00 00 4b 02 00 00 4b 02 00 00 4b 02 00 00     K...K...K...K...
      8c:	4b 02 00 00 4b 02 00 00 4b 02 00 00 4b 02 00 00     K...K...K...K...
      9c:	4b 02 00 00 4b 02 00 00 4b 02 00 00 4b 02 00 00     K...K...K...K...
      ac:	4b 02 00 00 4b 02 00 00 4b 02 00 00 4b 02 00 00     K...K...K...K...
      bc:	4b 02 00 00 4b 02 00 00 4b 02 00 00 4b 02 00 00     K...K...K...K...
      cc:	4b 02 00 00 4b 02 00 00 4b 02 00 00 4b 02 00 00     K...K...K...K...
      dc:	4b 02 00 00 4b 02 00 00 4b 02 00 00 4b 02 00 00     K...K...K...K...
      ec:	4b 02 00 00 4b 02 00 00                             K...K...

000000f4 <__do_global_dtors_aux>:
      f4:	b510      	push	{r4, lr}
      f6:	f240 0400 	movw	r4, #0
      fa:	f2c2 0400 	movt	r4, #8192	; 0x2000
      fe:	7823      	ldrb	r3, [r4, #0]
     100:	b963      	cbnz	r3, 11c <__do_global_dtors_aux+0x28>
     102:	f240 0300 	movw	r3, #0
     106:	f2c0 0300 	movt	r3, #0
     10a:	b12b      	cbz	r3, 118 <__do_global_dtors_aux+0x24>
     10c:	f244 0020 	movw	r0, #16416	; 0x4020
     110:	f2c0 0080 	movt	r0, #128	; 0x80
     114:	e000      	b.n	118 <__do_global_dtors_aux+0x24>
     116:	bf00      	nop
     118:	2301      	movs	r3, #1
     11a:	7023      	strb	r3, [r4, #0]
     11c:	bd10      	pop	{r4, pc}
     11e:	46c0      	nop			; (mov r8, r8)

00000120 <frame_dummy>:
     120:	f240 0300 	movw	r3, #0
     124:	f2c0 0300 	movt	r3, #0
     128:	b510      	push	{r4, lr}
     12a:	b14b      	cbz	r3, 140 <frame_dummy+0x20>
     12c:	f240 0104 	movw	r1, #4
     130:	f244 0020 	movw	r0, #16416	; 0x4020
     134:	f2c2 0100 	movt	r1, #8192	; 0x2000
     138:	f2c0 0080 	movt	r0, #128	; 0x80
     13c:	e000      	b.n	140 <frame_dummy+0x20>
     13e:	bf00      	nop
     140:	f244 0020 	movw	r0, #16416	; 0x4020
     144:	f2c0 0080 	movt	r0, #128	; 0x80
     148:	6803      	ldr	r3, [r0, #0]
     14a:	b903      	cbnz	r3, 14e <frame_dummy+0x2e>
     14c:	bd10      	pop	{r4, pc}
     14e:	f240 0300 	movw	r3, #0
     152:	f2c0 0300 	movt	r3, #0
     156:	2b00      	cmp	r3, #0
     158:	d0f8      	beq.n	14c <frame_dummy+0x2c>
     15a:	4798      	blx	r3
     15c:	e7f6      	b.n	14c <frame_dummy+0x2c>
     15e:	46c0      	nop			; (mov r8, r8)

00000160 <trustzone_manager_init>:
     160:	b580      	push	{r7, lr}
     162:	af00      	add	r7, sp, #0
     164:	f243 2300 	movw	r3, #12800	; 0x3200
     168:	f2c4 0300 	movt	r3, #16384	; 0x4000
     16c:	2200      	movs	r2, #0
     16e:	66da      	str	r2, [r3, #108]	; 0x6c
     170:	f24e 1300 	movw	r3, #57600	; 0xe100
     174:	f2ce 0300 	movt	r3, #57344	; 0xe000
     178:	f240 2280 	movw	r2, #640	; 0x280
     17c:	2100      	movs	r1, #0
     17e:	5099      	str	r1, [r3, r2]
     180:	f24e 1300 	movw	r3, #57600	; 0xe100
     184:	f2ce 0300 	movt	r3, #57344	; 0xe000
     188:	f240 2284 	movw	r2, #644	; 0x284
     18c:	2100      	movs	r1, #0
     18e:	5099      	str	r1, [r3, r2]
     190:	46c0      	nop			; (mov r8, r8)
     192:	46bd      	mov	sp, r7
     194:	bd80      	pop	{r7, pc}

00000196 <atmel_start_init>:
     196:	b580      	push	{r7, lr}
     198:	af00      	add	r7, sp, #0
     19a:	f240 73ed 	movw	r3, #2029	; 0x7ed
     19e:	f2c0 0300 	movt	r3, #0
     1a2:	4798      	blx	r3
     1a4:	f240 1361 	movw	r3, #353	; 0x161
     1a8:	f2c0 0300 	movt	r3, #0
     1ac:	4798      	blx	r3
     1ae:	46c0      	nop			; (mov r8, r8)
     1b0:	46bd      	mov	sp, r7
     1b2:	bd80      	pop	{r7, pc}

000001b4 <Reset_Handler>:
     1b4:	b580      	push	{r7, lr}
     1b6:	b082      	sub	sp, #8
     1b8:	af00      	add	r7, sp, #0
     1ba:	f641 63ac 	movw	r3, #7852	; 0x1eac
     1be:	f2c0 0300 	movt	r3, #0
     1c2:	607b      	str	r3, [r7, #4]
     1c4:	f240 0300 	movw	r3, #0
     1c8:	f2c2 0300 	movt	r3, #8192	; 0x2000
     1cc:	603b      	str	r3, [r7, #0]
     1ce:	687a      	ldr	r2, [r7, #4]
     1d0:	683b      	ldr	r3, [r7, #0]
     1d2:	429a      	cmp	r2, r3
     1d4:	d00f      	beq.n	1f6 <Reset_Handler+0x42>
     1d6:	e007      	b.n	1e8 <Reset_Handler+0x34>
     1d8:	683b      	ldr	r3, [r7, #0]
     1da:	1d1a      	adds	r2, r3, #4
     1dc:	603a      	str	r2, [r7, #0]
     1de:	687a      	ldr	r2, [r7, #4]
     1e0:	1d11      	adds	r1, r2, #4
     1e2:	6079      	str	r1, [r7, #4]
     1e4:	6812      	ldr	r2, [r2, #0]
     1e6:	601a      	str	r2, [r3, #0]
     1e8:	683a      	ldr	r2, [r7, #0]
     1ea:	f240 0300 	movw	r3, #0
     1ee:	f2c2 0300 	movt	r3, #8192	; 0x2000
     1f2:	429a      	cmp	r2, r3
     1f4:	d3f0      	bcc.n	1d8 <Reset_Handler+0x24>
     1f6:	f240 0300 	movw	r3, #0
     1fa:	f2c2 0300 	movt	r3, #8192	; 0x2000
     1fe:	603b      	str	r3, [r7, #0]
     200:	e004      	b.n	20c <HEAP_SIZE+0xc>
     202:	683b      	ldr	r3, [r7, #0]
     204:	1d1a      	adds	r2, r3, #4
     206:	603a      	str	r2, [r7, #0]
     208:	2200      	movs	r2, #0
     20a:	601a      	str	r2, [r3, #0]
     20c:	683a      	ldr	r2, [r7, #0]
     20e:	f240 0320 	movw	r3, #32
     212:	f2c2 0300 	movt	r3, #8192	; 0x2000
     216:	429a      	cmp	r2, r3
     218:	d3f3      	bcc.n	202 <HEAP_SIZE+0x2>
     21a:	f240 0300 	movw	r3, #0
     21e:	f2c0 0300 	movt	r3, #0
     222:	607b      	str	r3, [r7, #4]
     224:	f64e 5300 	movw	r3, #60672	; 0xed00
     228:	f2ce 0300 	movt	r3, #57344	; 0xe000
     22c:	687a      	ldr	r2, [r7, #4]
     22e:	217f      	movs	r1, #127	; 0x7f
     230:	438a      	bics	r2, r1
     232:	609a      	str	r2, [r3, #8]
     234:	f641 33d1 	movw	r3, #7121	; 0x1bd1
     238:	f2c0 0300 	movt	r3, #0
     23c:	4798      	blx	r3
     23e:	f640 1357 	movw	r3, #2391	; 0x957
     242:	f2c0 0300 	movt	r3, #0
     246:	4798      	blx	r3
     248:	e7fe      	b.n	248 <HEAP_SIZE+0x48>

0000024a <Dummy_Handler>:
     24a:	b580      	push	{r7, lr}
     24c:	af00      	add	r7, sp, #0
     24e:	e7fe      	b.n	24e <Dummy_Handler+0x4>

00000250 <hri_port_set_DIR_reg>:
     250:	b580      	push	{r7, lr}
     252:	b084      	sub	sp, #16
     254:	af00      	add	r7, sp, #0
     256:	60f8      	str	r0, [r7, #12]
     258:	607a      	str	r2, [r7, #4]
     25a:	230b      	movs	r3, #11
     25c:	18fb      	adds	r3, r7, r3
     25e:	1c0a      	adds	r2, r1, #0
     260:	701a      	strb	r2, [r3, #0]
     262:	230b      	movs	r3, #11
     264:	18fb      	adds	r3, r7, r3
     266:	781b      	ldrb	r3, [r3, #0]
     268:	68fa      	ldr	r2, [r7, #12]
     26a:	01db      	lsls	r3, r3, #7
     26c:	18d3      	adds	r3, r2, r3
     26e:	3308      	adds	r3, #8
     270:	687a      	ldr	r2, [r7, #4]
     272:	601a      	str	r2, [r3, #0]
     274:	46c0      	nop			; (mov r8, r8)
     276:	46bd      	mov	sp, r7
     278:	b004      	add	sp, #16
     27a:	bd80      	pop	{r7, pc}

0000027c <hri_port_clear_DIR_reg>:
     27c:	b580      	push	{r7, lr}
     27e:	b084      	sub	sp, #16
     280:	af00      	add	r7, sp, #0
     282:	60f8      	str	r0, [r7, #12]
     284:	607a      	str	r2, [r7, #4]
     286:	230b      	movs	r3, #11
     288:	18fb      	adds	r3, r7, r3
     28a:	1c0a      	adds	r2, r1, #0
     28c:	701a      	strb	r2, [r3, #0]
     28e:	230b      	movs	r3, #11
     290:	18fb      	adds	r3, r7, r3
     292:	781b      	ldrb	r3, [r3, #0]
     294:	68fa      	ldr	r2, [r7, #12]
     296:	01db      	lsls	r3, r3, #7
     298:	18d3      	adds	r3, r2, r3
     29a:	3304      	adds	r3, #4
     29c:	687a      	ldr	r2, [r7, #4]
     29e:	601a      	str	r2, [r3, #0]
     2a0:	46c0      	nop			; (mov r8, r8)
     2a2:	46bd      	mov	sp, r7
     2a4:	b004      	add	sp, #16
     2a6:	bd80      	pop	{r7, pc}

000002a8 <hri_port_set_OUT_reg>:
     2a8:	b580      	push	{r7, lr}
     2aa:	b084      	sub	sp, #16
     2ac:	af00      	add	r7, sp, #0
     2ae:	60f8      	str	r0, [r7, #12]
     2b0:	607a      	str	r2, [r7, #4]
     2b2:	230b      	movs	r3, #11
     2b4:	18fb      	adds	r3, r7, r3
     2b6:	1c0a      	adds	r2, r1, #0
     2b8:	701a      	strb	r2, [r3, #0]
     2ba:	230b      	movs	r3, #11
     2bc:	18fb      	adds	r3, r7, r3
     2be:	781b      	ldrb	r3, [r3, #0]
     2c0:	68fa      	ldr	r2, [r7, #12]
     2c2:	01db      	lsls	r3, r3, #7
     2c4:	18d3      	adds	r3, r2, r3
     2c6:	3318      	adds	r3, #24
     2c8:	687a      	ldr	r2, [r7, #4]
     2ca:	601a      	str	r2, [r3, #0]
     2cc:	46c0      	nop			; (mov r8, r8)
     2ce:	46bd      	mov	sp, r7
     2d0:	b004      	add	sp, #16
     2d2:	bd80      	pop	{r7, pc}

000002d4 <hri_port_clear_OUT_reg>:
     2d4:	b580      	push	{r7, lr}
     2d6:	b084      	sub	sp, #16
     2d8:	af00      	add	r7, sp, #0
     2da:	60f8      	str	r0, [r7, #12]
     2dc:	607a      	str	r2, [r7, #4]
     2de:	230b      	movs	r3, #11
     2e0:	18fb      	adds	r3, r7, r3
     2e2:	1c0a      	adds	r2, r1, #0
     2e4:	701a      	strb	r2, [r3, #0]
     2e6:	230b      	movs	r3, #11
     2e8:	18fb      	adds	r3, r7, r3
     2ea:	781b      	ldrb	r3, [r3, #0]
     2ec:	68fa      	ldr	r2, [r7, #12]
     2ee:	01db      	lsls	r3, r3, #7
     2f0:	18d3      	adds	r3, r2, r3
     2f2:	3314      	adds	r3, #20
     2f4:	687a      	ldr	r2, [r7, #4]
     2f6:	601a      	str	r2, [r3, #0]
     2f8:	46c0      	nop			; (mov r8, r8)
     2fa:	46bd      	mov	sp, r7
     2fc:	b004      	add	sp, #16
     2fe:	bd80      	pop	{r7, pc}

00000300 <hri_port_write_PMUX_PMUXE_bf>:
     300:	b590      	push	{r4, r7, lr}
     302:	b085      	sub	sp, #20
     304:	af00      	add	r7, sp, #0
     306:	6078      	str	r0, [r7, #4]
     308:	000c      	movs	r4, r1
     30a:	0010      	movs	r0, r2
     30c:	0019      	movs	r1, r3
     30e:	1cfb      	adds	r3, r7, #3
     310:	1c22      	adds	r2, r4, #0
     312:	701a      	strb	r2, [r3, #0]
     314:	1cbb      	adds	r3, r7, #2
     316:	1c02      	adds	r2, r0, #0
     318:	701a      	strb	r2, [r3, #0]
     31a:	1c7b      	adds	r3, r7, #1
     31c:	1c0a      	adds	r2, r1, #0
     31e:	701a      	strb	r2, [r3, #0]
     320:	1cfb      	adds	r3, r7, #3
     322:	7819      	ldrb	r1, [r3, #0]
     324:	1cbb      	adds	r3, r7, #2
     326:	781a      	ldrb	r2, [r3, #0]
     328:	230f      	movs	r3, #15
     32a:	18fb      	adds	r3, r7, r3
     32c:	6878      	ldr	r0, [r7, #4]
     32e:	2430      	movs	r4, #48	; 0x30
     330:	01c9      	lsls	r1, r1, #7
     332:	1841      	adds	r1, r0, r1
     334:	188a      	adds	r2, r1, r2
     336:	1912      	adds	r2, r2, r4
     338:	7812      	ldrb	r2, [r2, #0]
     33a:	701a      	strb	r2, [r3, #0]
     33c:	230f      	movs	r3, #15
     33e:	18fb      	adds	r3, r7, r3
     340:	220f      	movs	r2, #15
     342:	18ba      	adds	r2, r7, r2
     344:	7812      	ldrb	r2, [r2, #0]
     346:	210f      	movs	r1, #15
     348:	438a      	bics	r2, r1
     34a:	701a      	strb	r2, [r3, #0]
     34c:	1c7b      	adds	r3, r7, #1
     34e:	781b      	ldrb	r3, [r3, #0]
     350:	220f      	movs	r2, #15
     352:	4013      	ands	r3, r2
     354:	b2d9      	uxtb	r1, r3
     356:	230f      	movs	r3, #15
     358:	18fb      	adds	r3, r7, r3
     35a:	220f      	movs	r2, #15
     35c:	18ba      	adds	r2, r7, r2
     35e:	7812      	ldrb	r2, [r2, #0]
     360:	430a      	orrs	r2, r1
     362:	701a      	strb	r2, [r3, #0]
     364:	1cfb      	adds	r3, r7, #3
     366:	781a      	ldrb	r2, [r3, #0]
     368:	1cbb      	adds	r3, r7, #2
     36a:	781b      	ldrb	r3, [r3, #0]
     36c:	6879      	ldr	r1, [r7, #4]
     36e:	2030      	movs	r0, #48	; 0x30
     370:	01d2      	lsls	r2, r2, #7
     372:	188a      	adds	r2, r1, r2
     374:	18d3      	adds	r3, r2, r3
     376:	181b      	adds	r3, r3, r0
     378:	220f      	movs	r2, #15
     37a:	18ba      	adds	r2, r7, r2
     37c:	7812      	ldrb	r2, [r2, #0]
     37e:	701a      	strb	r2, [r3, #0]
     380:	46c0      	nop			; (mov r8, r8)
     382:	46bd      	mov	sp, r7
     384:	b005      	add	sp, #20
     386:	bd90      	pop	{r4, r7, pc}

00000388 <hri_port_write_PMUX_PMUXO_bf>:
     388:	b590      	push	{r4, r7, lr}
     38a:	b085      	sub	sp, #20
     38c:	af00      	add	r7, sp, #0
     38e:	6078      	str	r0, [r7, #4]
     390:	000c      	movs	r4, r1
     392:	0010      	movs	r0, r2
     394:	0019      	movs	r1, r3
     396:	1cfb      	adds	r3, r7, #3
     398:	1c22      	adds	r2, r4, #0
     39a:	701a      	strb	r2, [r3, #0]
     39c:	1cbb      	adds	r3, r7, #2
     39e:	1c02      	adds	r2, r0, #0
     3a0:	701a      	strb	r2, [r3, #0]
     3a2:	1c7b      	adds	r3, r7, #1
     3a4:	1c0a      	adds	r2, r1, #0
     3a6:	701a      	strb	r2, [r3, #0]
     3a8:	1cfb      	adds	r3, r7, #3
     3aa:	7819      	ldrb	r1, [r3, #0]
     3ac:	1cbb      	adds	r3, r7, #2
     3ae:	781a      	ldrb	r2, [r3, #0]
     3b0:	230f      	movs	r3, #15
     3b2:	18fb      	adds	r3, r7, r3
     3b4:	6878      	ldr	r0, [r7, #4]
     3b6:	2430      	movs	r4, #48	; 0x30
     3b8:	01c9      	lsls	r1, r1, #7
     3ba:	1841      	adds	r1, r0, r1
     3bc:	188a      	adds	r2, r1, r2
     3be:	1912      	adds	r2, r2, r4
     3c0:	7812      	ldrb	r2, [r2, #0]
     3c2:	701a      	strb	r2, [r3, #0]
     3c4:	230f      	movs	r3, #15
     3c6:	18fb      	adds	r3, r7, r3
     3c8:	220f      	movs	r2, #15
     3ca:	18ba      	adds	r2, r7, r2
     3cc:	7812      	ldrb	r2, [r2, #0]
     3ce:	210f      	movs	r1, #15
     3d0:	400a      	ands	r2, r1
     3d2:	701a      	strb	r2, [r3, #0]
     3d4:	1c7b      	adds	r3, r7, #1
     3d6:	781b      	ldrb	r3, [r3, #0]
     3d8:	011b      	lsls	r3, r3, #4
     3da:	b2d9      	uxtb	r1, r3
     3dc:	230f      	movs	r3, #15
     3de:	18fb      	adds	r3, r7, r3
     3e0:	220f      	movs	r2, #15
     3e2:	18ba      	adds	r2, r7, r2
     3e4:	7812      	ldrb	r2, [r2, #0]
     3e6:	430a      	orrs	r2, r1
     3e8:	701a      	strb	r2, [r3, #0]
     3ea:	1cfb      	adds	r3, r7, #3
     3ec:	781a      	ldrb	r2, [r3, #0]
     3ee:	1cbb      	adds	r3, r7, #2
     3f0:	781b      	ldrb	r3, [r3, #0]
     3f2:	6879      	ldr	r1, [r7, #4]
     3f4:	2030      	movs	r0, #48	; 0x30
     3f6:	01d2      	lsls	r2, r2, #7
     3f8:	188a      	adds	r2, r1, r2
     3fa:	18d3      	adds	r3, r2, r3
     3fc:	181b      	adds	r3, r3, r0
     3fe:	220f      	movs	r2, #15
     400:	18ba      	adds	r2, r7, r2
     402:	7812      	ldrb	r2, [r2, #0]
     404:	701a      	strb	r2, [r3, #0]
     406:	46c0      	nop			; (mov r8, r8)
     408:	46bd      	mov	sp, r7
     40a:	b005      	add	sp, #20
     40c:	bd90      	pop	{r4, r7, pc}

0000040e <hri_port_write_PINCFG_PMUXEN_bit>:
     40e:	b590      	push	{r4, r7, lr}
     410:	b085      	sub	sp, #20
     412:	af00      	add	r7, sp, #0
     414:	6078      	str	r0, [r7, #4]
     416:	000c      	movs	r4, r1
     418:	0010      	movs	r0, r2
     41a:	0019      	movs	r1, r3
     41c:	1cfb      	adds	r3, r7, #3
     41e:	1c22      	adds	r2, r4, #0
     420:	701a      	strb	r2, [r3, #0]
     422:	1cbb      	adds	r3, r7, #2
     424:	1c02      	adds	r2, r0, #0
     426:	701a      	strb	r2, [r3, #0]
     428:	1c7b      	adds	r3, r7, #1
     42a:	1c0a      	adds	r2, r1, #0
     42c:	701a      	strb	r2, [r3, #0]
     42e:	1cfb      	adds	r3, r7, #3
     430:	7819      	ldrb	r1, [r3, #0]
     432:	1cbb      	adds	r3, r7, #2
     434:	781a      	ldrb	r2, [r3, #0]
     436:	230f      	movs	r3, #15
     438:	18fb      	adds	r3, r7, r3
     43a:	6878      	ldr	r0, [r7, #4]
     43c:	2440      	movs	r4, #64	; 0x40
     43e:	01c9      	lsls	r1, r1, #7
     440:	1841      	adds	r1, r0, r1
     442:	188a      	adds	r2, r1, r2
     444:	1912      	adds	r2, r2, r4
     446:	7812      	ldrb	r2, [r2, #0]
     448:	701a      	strb	r2, [r3, #0]
     44a:	230f      	movs	r3, #15
     44c:	18fb      	adds	r3, r7, r3
     44e:	220f      	movs	r2, #15
     450:	18ba      	adds	r2, r7, r2
     452:	7812      	ldrb	r2, [r2, #0]
     454:	2101      	movs	r1, #1
     456:	438a      	bics	r2, r1
     458:	701a      	strb	r2, [r3, #0]
     45a:	1c7b      	adds	r3, r7, #1
     45c:	7819      	ldrb	r1, [r3, #0]
     45e:	230f      	movs	r3, #15
     460:	18fb      	adds	r3, r7, r3
     462:	220f      	movs	r2, #15
     464:	18ba      	adds	r2, r7, r2
     466:	7812      	ldrb	r2, [r2, #0]
     468:	430a      	orrs	r2, r1
     46a:	701a      	strb	r2, [r3, #0]
     46c:	1cfb      	adds	r3, r7, #3
     46e:	781a      	ldrb	r2, [r3, #0]
     470:	1cbb      	adds	r3, r7, #2
     472:	781b      	ldrb	r3, [r3, #0]
     474:	6879      	ldr	r1, [r7, #4]
     476:	2040      	movs	r0, #64	; 0x40
     478:	01d2      	lsls	r2, r2, #7
     47a:	188a      	adds	r2, r1, r2
     47c:	18d3      	adds	r3, r2, r3
     47e:	181b      	adds	r3, r3, r0
     480:	220f      	movs	r2, #15
     482:	18ba      	adds	r2, r7, r2
     484:	7812      	ldrb	r2, [r2, #0]
     486:	701a      	strb	r2, [r3, #0]
     488:	46c0      	nop			; (mov r8, r8)
     48a:	46bd      	mov	sp, r7
     48c:	b005      	add	sp, #20
     48e:	bd90      	pop	{r4, r7, pc}

00000490 <hri_port_write_WRCONFIG_reg>:
     490:	b580      	push	{r7, lr}
     492:	b084      	sub	sp, #16
     494:	af00      	add	r7, sp, #0
     496:	60f8      	str	r0, [r7, #12]
     498:	607a      	str	r2, [r7, #4]
     49a:	230b      	movs	r3, #11
     49c:	18fb      	adds	r3, r7, r3
     49e:	1c0a      	adds	r2, r1, #0
     4a0:	701a      	strb	r2, [r3, #0]
     4a2:	230b      	movs	r3, #11
     4a4:	18fb      	adds	r3, r7, r3
     4a6:	781b      	ldrb	r3, [r3, #0]
     4a8:	68fa      	ldr	r2, [r7, #12]
     4aa:	01db      	lsls	r3, r3, #7
     4ac:	18d3      	adds	r3, r2, r3
     4ae:	3328      	adds	r3, #40	; 0x28
     4b0:	687a      	ldr	r2, [r7, #4]
     4b2:	601a      	str	r2, [r3, #0]
     4b4:	46c0      	nop			; (mov r8, r8)
     4b6:	46bd      	mov	sp, r7
     4b8:	b004      	add	sp, #16
     4ba:	bd80      	pop	{r7, pc}

000004bc <_gpio_set_direction>:
     4bc:	b580      	push	{r7, lr}
     4be:	b082      	sub	sp, #8
     4c0:	af00      	add	r7, sp, #0
     4c2:	6039      	str	r1, [r7, #0]
     4c4:	0011      	movs	r1, r2
     4c6:	1dfb      	adds	r3, r7, #7
     4c8:	1c02      	adds	r2, r0, #0
     4ca:	701a      	strb	r2, [r3, #0]
     4cc:	1dbb      	adds	r3, r7, #6
     4ce:	1c0a      	adds	r2, r1, #0
     4d0:	701a      	strb	r2, [r3, #0]
     4d2:	1dbb      	adds	r3, r7, #6
     4d4:	781b      	ldrb	r3, [r3, #0]
     4d6:	2b01      	cmp	r3, #1
     4d8:	d032      	beq.n	540 <_gpio_set_direction+0x84>
     4da:	2b02      	cmp	r3, #2
     4dc:	d061      	beq.n	5a2 <_gpio_set_direction+0xe6>
     4de:	b103      	cbz	r3, 4e2 <_gpio_set_direction+0x26>
     4e0:	e08e      	b.n	600 <_gpio_set_direction+0x144>
     4e2:	683a      	ldr	r2, [r7, #0]
     4e4:	1dfb      	adds	r3, r7, #7
     4e6:	7819      	ldrb	r1, [r3, #0]
     4e8:	23c0      	movs	r3, #192	; 0xc0
     4ea:	05db      	lsls	r3, r3, #23
     4ec:	0018      	movs	r0, r3
     4ee:	f240 237d 	movw	r3, #637	; 0x27d
     4f2:	f2c0 0300 	movt	r3, #0
     4f6:	4798      	blx	r3
     4f8:	683b      	ldr	r3, [r7, #0]
     4fa:	041b      	lsls	r3, r3, #16
     4fc:	0c1b      	lsrs	r3, r3, #16
     4fe:	2280      	movs	r2, #128	; 0x80
     500:	05d2      	lsls	r2, r2, #23
     502:	431a      	orrs	r2, r3
     504:	1dfb      	adds	r3, r7, #7
     506:	7819      	ldrb	r1, [r3, #0]
     508:	f243 0300 	movw	r3, #12288	; 0x3000
     50c:	f2c4 0300 	movt	r3, #16384	; 0x4000
     510:	0018      	movs	r0, r3
     512:	f240 4391 	movw	r3, #1169	; 0x491
     516:	f2c0 0300 	movt	r3, #0
     51a:	4798      	blx	r3
     51c:	683b      	ldr	r3, [r7, #0]
     51e:	0c1b      	lsrs	r3, r3, #16
     520:	22c0      	movs	r2, #192	; 0xc0
     522:	0612      	lsls	r2, r2, #24
     524:	431a      	orrs	r2, r3
     526:	1dfb      	adds	r3, r7, #7
     528:	7819      	ldrb	r1, [r3, #0]
     52a:	f243 0300 	movw	r3, #12288	; 0x3000
     52e:	f2c4 0300 	movt	r3, #16384	; 0x4000
     532:	0018      	movs	r0, r3
     534:	f240 4391 	movw	r3, #1169	; 0x491
     538:	f2c0 0300 	movt	r3, #0
     53c:	4798      	blx	r3
     53e:	e05f      	b.n	600 <_gpio_set_direction+0x144>
     540:	683a      	ldr	r2, [r7, #0]
     542:	1dfb      	adds	r3, r7, #7
     544:	7819      	ldrb	r1, [r3, #0]
     546:	23c0      	movs	r3, #192	; 0xc0
     548:	05db      	lsls	r3, r3, #23
     54a:	0018      	movs	r0, r3
     54c:	f240 237d 	movw	r3, #637	; 0x27d
     550:	f2c0 0300 	movt	r3, #0
     554:	4798      	blx	r3
     556:	683b      	ldr	r3, [r7, #0]
     558:	041b      	lsls	r3, r3, #16
     55a:	0c1a      	lsrs	r2, r3, #16
     55c:	2300      	movs	r3, #0
     55e:	f2c4 0302 	movt	r3, #16386	; 0x4002
     562:	431a      	orrs	r2, r3
     564:	1dfb      	adds	r3, r7, #7
     566:	7819      	ldrb	r1, [r3, #0]
     568:	f243 0300 	movw	r3, #12288	; 0x3000
     56c:	f2c4 0300 	movt	r3, #16384	; 0x4000
     570:	0018      	movs	r0, r3
     572:	f240 4391 	movw	r3, #1169	; 0x491
     576:	f2c0 0300 	movt	r3, #0
     57a:	4798      	blx	r3
     57c:	683b      	ldr	r3, [r7, #0]
     57e:	0c1a      	lsrs	r2, r3, #16
     580:	2300      	movs	r3, #0
     582:	f2cc 0302 	movt	r3, #49154	; 0xc002
     586:	431a      	orrs	r2, r3
     588:	1dfb      	adds	r3, r7, #7
     58a:	7819      	ldrb	r1, [r3, #0]
     58c:	f243 0300 	movw	r3, #12288	; 0x3000
     590:	f2c4 0300 	movt	r3, #16384	; 0x4000
     594:	0018      	movs	r0, r3
     596:	f240 4391 	movw	r3, #1169	; 0x491
     59a:	f2c0 0300 	movt	r3, #0
     59e:	4798      	blx	r3
     5a0:	e02e      	b.n	600 <_gpio_set_direction+0x144>
     5a2:	683a      	ldr	r2, [r7, #0]
     5a4:	1dfb      	adds	r3, r7, #7
     5a6:	7819      	ldrb	r1, [r3, #0]
     5a8:	23c0      	movs	r3, #192	; 0xc0
     5aa:	05db      	lsls	r3, r3, #23
     5ac:	0018      	movs	r0, r3
     5ae:	f240 2351 	movw	r3, #593	; 0x251
     5b2:	f2c0 0300 	movt	r3, #0
     5b6:	4798      	blx	r3
     5b8:	683b      	ldr	r3, [r7, #0]
     5ba:	041b      	lsls	r3, r3, #16
     5bc:	0c1b      	lsrs	r3, r3, #16
     5be:	2280      	movs	r2, #128	; 0x80
     5c0:	05d2      	lsls	r2, r2, #23
     5c2:	431a      	orrs	r2, r3
     5c4:	1dfb      	adds	r3, r7, #7
     5c6:	7819      	ldrb	r1, [r3, #0]
     5c8:	f243 0300 	movw	r3, #12288	; 0x3000
     5cc:	f2c4 0300 	movt	r3, #16384	; 0x4000
     5d0:	0018      	movs	r0, r3
     5d2:	f240 4391 	movw	r3, #1169	; 0x491
     5d6:	f2c0 0300 	movt	r3, #0
     5da:	4798      	blx	r3
     5dc:	683b      	ldr	r3, [r7, #0]
     5de:	0c1b      	lsrs	r3, r3, #16
     5e0:	22c0      	movs	r2, #192	; 0xc0
     5e2:	0612      	lsls	r2, r2, #24
     5e4:	431a      	orrs	r2, r3
     5e6:	1dfb      	adds	r3, r7, #7
     5e8:	7819      	ldrb	r1, [r3, #0]
     5ea:	f243 0300 	movw	r3, #12288	; 0x3000
     5ee:	f2c4 0300 	movt	r3, #16384	; 0x4000
     5f2:	0018      	movs	r0, r3
     5f4:	f240 4391 	movw	r3, #1169	; 0x491
     5f8:	f2c0 0300 	movt	r3, #0
     5fc:	4798      	blx	r3
     5fe:	46c0      	nop			; (mov r8, r8)
     600:	46c0      	nop			; (mov r8, r8)
     602:	46bd      	mov	sp, r7
     604:	b002      	add	sp, #8
     606:	bd80      	pop	{r7, pc}

00000608 <_gpio_set_level>:
     608:	b580      	push	{r7, lr}
     60a:	b082      	sub	sp, #8
     60c:	af00      	add	r7, sp, #0
     60e:	6039      	str	r1, [r7, #0]
     610:	0011      	movs	r1, r2
     612:	1dfb      	adds	r3, r7, #7
     614:	1c02      	adds	r2, r0, #0
     616:	701a      	strb	r2, [r3, #0]
     618:	1dbb      	adds	r3, r7, #6
     61a:	1c0a      	adds	r2, r1, #0
     61c:	701a      	strb	r2, [r3, #0]
     61e:	1dbb      	adds	r3, r7, #6
     620:	781b      	ldrb	r3, [r3, #0]
     622:	b15b      	cbz	r3, 63c <_gpio_set_level+0x34>
     624:	683a      	ldr	r2, [r7, #0]
     626:	1dfb      	adds	r3, r7, #7
     628:	7819      	ldrb	r1, [r3, #0]
     62a:	23c0      	movs	r3, #192	; 0xc0
     62c:	05db      	lsls	r3, r3, #23
     62e:	0018      	movs	r0, r3
     630:	f240 23a9 	movw	r3, #681	; 0x2a9
     634:	f2c0 0300 	movt	r3, #0
     638:	4798      	blx	r3
     63a:	e00a      	b.n	652 <_gpio_set_level+0x4a>
     63c:	683a      	ldr	r2, [r7, #0]
     63e:	1dfb      	adds	r3, r7, #7
     640:	7819      	ldrb	r1, [r3, #0]
     642:	23c0      	movs	r3, #192	; 0xc0
     644:	05db      	lsls	r3, r3, #23
     646:	0018      	movs	r0, r3
     648:	f240 23d5 	movw	r3, #725	; 0x2d5
     64c:	f2c0 0300 	movt	r3, #0
     650:	4798      	blx	r3
     652:	46c0      	nop			; (mov r8, r8)
     654:	46bd      	mov	sp, r7
     656:	b002      	add	sp, #8
     658:	bd80      	pop	{r7, pc}

0000065a <_gpio_set_pin_function>:
     65a:	b590      	push	{r4, r7, lr}
     65c:	b085      	sub	sp, #20
     65e:	af00      	add	r7, sp, #0
     660:	6078      	str	r0, [r7, #4]
     662:	6039      	str	r1, [r7, #0]
     664:	687b      	ldr	r3, [r7, #4]
     666:	095a      	lsrs	r2, r3, #5
     668:	230f      	movs	r3, #15
     66a:	18fb      	adds	r3, r7, r3
     66c:	701a      	strb	r2, [r3, #0]
     66e:	687b      	ldr	r3, [r7, #4]
     670:	b2da      	uxtb	r2, r3
     672:	230e      	movs	r3, #14
     674:	18fb      	adds	r3, r7, r3
     676:	211f      	movs	r1, #31
     678:	400a      	ands	r2, r1
     67a:	701a      	strb	r2, [r3, #0]
     67c:	683b      	ldr	r3, [r7, #0]
     67e:	3301      	adds	r3, #1
     680:	d110      	bne.n	6a4 <_gpio_set_pin_function+0x4a>
     682:	230e      	movs	r3, #14
     684:	18fb      	adds	r3, r7, r3
     686:	781a      	ldrb	r2, [r3, #0]
     688:	230f      	movs	r3, #15
     68a:	18fb      	adds	r3, r7, r3
     68c:	7819      	ldrb	r1, [r3, #0]
     68e:	f243 0000 	movw	r0, #12288	; 0x3000
     692:	f2c4 0000 	movt	r0, #16384	; 0x4000
     696:	2300      	movs	r3, #0
     698:	f240 440f 	movw	r4, #1039	; 0x40f
     69c:	f2c0 0400 	movt	r4, #0
     6a0:	47a0      	blx	r4
     6a2:	e03e      	b.n	722 <_gpio_set_pin_function+0xc8>
     6a4:	230e      	movs	r3, #14
     6a6:	18fb      	adds	r3, r7, r3
     6a8:	781a      	ldrb	r2, [r3, #0]
     6aa:	230f      	movs	r3, #15
     6ac:	18fb      	adds	r3, r7, r3
     6ae:	7819      	ldrb	r1, [r3, #0]
     6b0:	f243 0000 	movw	r0, #12288	; 0x3000
     6b4:	f2c4 0000 	movt	r0, #16384	; 0x4000
     6b8:	2301      	movs	r3, #1
     6ba:	f240 440f 	movw	r4, #1039	; 0x40f
     6be:	f2c0 0400 	movt	r4, #0
     6c2:	47a0      	blx	r4
     6c4:	230e      	movs	r3, #14
     6c6:	18fb      	adds	r3, r7, r3
     6c8:	781b      	ldrb	r3, [r3, #0]
     6ca:	2201      	movs	r2, #1
     6cc:	4013      	ands	r3, r2
     6ce:	b1a3      	cbz	r3, 6fa <_gpio_set_pin_function+0xa0>
     6d0:	230e      	movs	r3, #14
     6d2:	18fb      	adds	r3, r7, r3
     6d4:	781b      	ldrb	r3, [r3, #0]
     6d6:	085b      	lsrs	r3, r3, #1
     6d8:	b2da      	uxtb	r2, r3
     6da:	683b      	ldr	r3, [r7, #0]
     6dc:	b2dc      	uxtb	r4, r3
     6de:	230f      	movs	r3, #15
     6e0:	18fb      	adds	r3, r7, r3
     6e2:	7819      	ldrb	r1, [r3, #0]
     6e4:	f243 0000 	movw	r0, #12288	; 0x3000
     6e8:	f2c4 0000 	movt	r0, #16384	; 0x4000
     6ec:	0023      	movs	r3, r4
     6ee:	f240 3489 	movw	r4, #905	; 0x389
     6f2:	f2c0 0400 	movt	r4, #0
     6f6:	47a0      	blx	r4
     6f8:	e013      	b.n	722 <_gpio_set_pin_function+0xc8>
     6fa:	230e      	movs	r3, #14
     6fc:	18fb      	adds	r3, r7, r3
     6fe:	781b      	ldrb	r3, [r3, #0]
     700:	085b      	lsrs	r3, r3, #1
     702:	b2da      	uxtb	r2, r3
     704:	683b      	ldr	r3, [r7, #0]
     706:	b2dc      	uxtb	r4, r3
     708:	230f      	movs	r3, #15
     70a:	18fb      	adds	r3, r7, r3
     70c:	7819      	ldrb	r1, [r3, #0]
     70e:	f243 0000 	movw	r0, #12288	; 0x3000
     712:	f2c4 0000 	movt	r0, #16384	; 0x4000
     716:	0023      	movs	r3, r4
     718:	f240 3401 	movw	r4, #769	; 0x301
     71c:	f2c0 0400 	movt	r4, #0
     720:	47a0      	blx	r4
     722:	46c0      	nop			; (mov r8, r8)
     724:	46bd      	mov	sp, r7
     726:	b005      	add	sp, #20
     728:	bd90      	pop	{r4, r7, pc}

0000072a <gpio_set_pin_function>:
     72a:	b580      	push	{r7, lr}
     72c:	b082      	sub	sp, #8
     72e:	af00      	add	r7, sp, #0
     730:	6078      	str	r0, [r7, #4]
     732:	6039      	str	r1, [r7, #0]
     734:	683a      	ldr	r2, [r7, #0]
     736:	687b      	ldr	r3, [r7, #4]
     738:	0011      	movs	r1, r2
     73a:	0018      	movs	r0, r3
     73c:	f240 635b 	movw	r3, #1627	; 0x65b
     740:	f2c0 0300 	movt	r3, #0
     744:	4798      	blx	r3
     746:	46c0      	nop			; (mov r8, r8)
     748:	46bd      	mov	sp, r7
     74a:	b002      	add	sp, #8
     74c:	bd80      	pop	{r7, pc}

0000074e <gpio_set_pin_direction>:
     74e:	b580      	push	{r7, lr}
     750:	b082      	sub	sp, #8
     752:	af00      	add	r7, sp, #0
     754:	0002      	movs	r2, r0
     756:	1dfb      	adds	r3, r7, #7
     758:	701a      	strb	r2, [r3, #0]
     75a:	1dbb      	adds	r3, r7, #6
     75c:	1c0a      	adds	r2, r1, #0
     75e:	701a      	strb	r2, [r3, #0]
     760:	1dfb      	adds	r3, r7, #7
     762:	781b      	ldrb	r3, [r3, #0]
     764:	095b      	lsrs	r3, r3, #5
     766:	b2d8      	uxtb	r0, r3
     768:	1dfb      	adds	r3, r7, #7
     76a:	781b      	ldrb	r3, [r3, #0]
     76c:	221f      	movs	r2, #31
     76e:	4013      	ands	r3, r2
     770:	2201      	movs	r2, #1
     772:	409a      	lsls	r2, r3
     774:	0011      	movs	r1, r2
     776:	1dbb      	adds	r3, r7, #6
     778:	781b      	ldrb	r3, [r3, #0]
     77a:	001a      	movs	r2, r3
     77c:	f240 43bd 	movw	r3, #1213	; 0x4bd
     780:	f2c0 0300 	movt	r3, #0
     784:	4798      	blx	r3
     786:	46c0      	nop			; (mov r8, r8)
     788:	46bd      	mov	sp, r7
     78a:	b002      	add	sp, #8
     78c:	bd80      	pop	{r7, pc}

0000078e <gpio_set_pin_level>:
     78e:	b580      	push	{r7, lr}
     790:	b082      	sub	sp, #8
     792:	af00      	add	r7, sp, #0
     794:	0002      	movs	r2, r0
     796:	1dfb      	adds	r3, r7, #7
     798:	701a      	strb	r2, [r3, #0]
     79a:	1dbb      	adds	r3, r7, #6
     79c:	1c0a      	adds	r2, r1, #0
     79e:	701a      	strb	r2, [r3, #0]
     7a0:	1dfb      	adds	r3, r7, #7
     7a2:	781b      	ldrb	r3, [r3, #0]
     7a4:	095b      	lsrs	r3, r3, #5
     7a6:	b2d8      	uxtb	r0, r3
     7a8:	1dfb      	adds	r3, r7, #7
     7aa:	781b      	ldrb	r3, [r3, #0]
     7ac:	221f      	movs	r2, #31
     7ae:	4013      	ands	r3, r2
     7b0:	2201      	movs	r2, #1
     7b2:	409a      	lsls	r2, r3
     7b4:	0011      	movs	r1, r2
     7b6:	1dbb      	adds	r3, r7, #6
     7b8:	781b      	ldrb	r3, [r3, #0]
     7ba:	001a      	movs	r2, r3
     7bc:	f240 6309 	movw	r3, #1545	; 0x609
     7c0:	f2c0 0300 	movt	r3, #0
     7c4:	4798      	blx	r3
     7c6:	46c0      	nop			; (mov r8, r8)
     7c8:	46bd      	mov	sp, r7
     7ca:	b002      	add	sp, #8
     7cc:	bd80      	pop	{r7, pc}

000007ce <delay_driver_init>:
     7ce:	b580      	push	{r7, lr}
     7d0:	af00      	add	r7, sp, #0
     7d2:	f24e 0310 	movw	r3, #57360	; 0xe010
     7d6:	f2ce 0300 	movt	r3, #57344	; 0xe000
     7da:	0018      	movs	r0, r3
     7dc:	f640 032f 	movw	r3, #2095	; 0x82f
     7e0:	f2c0 0300 	movt	r3, #0
     7e4:	4798      	blx	r3
     7e6:	46c0      	nop			; (mov r8, r8)
     7e8:	46bd      	mov	sp, r7
     7ea:	bd80      	pop	{r7, pc}

000007ec <system_init>:
     7ec:	b580      	push	{r7, lr}
     7ee:	af00      	add	r7, sp, #0
     7f0:	2100      	movs	r1, #0
     7f2:	2017      	movs	r0, #23
     7f4:	f240 738f 	movw	r3, #1935	; 0x78f
     7f8:	f2c0 0300 	movt	r3, #0
     7fc:	4798      	blx	r3
     7fe:	2102      	movs	r1, #2
     800:	2017      	movs	r0, #23
     802:	f240 734f 	movw	r3, #1871	; 0x74f
     806:	f2c0 0300 	movt	r3, #0
     80a:	4798      	blx	r3
     80c:	2301      	movs	r3, #1
     80e:	425b      	negs	r3, r3
     810:	0019      	movs	r1, r3
     812:	2017      	movs	r0, #23
     814:	f240 732b 	movw	r3, #1835	; 0x72b
     818:	f2c0 0300 	movt	r3, #0
     81c:	4798      	blx	r3
     81e:	f240 73cf 	movw	r3, #1999	; 0x7cf
     822:	f2c0 0300 	movt	r3, #0
     826:	4798      	blx	r3
     828:	46c0      	nop			; (mov r8, r8)
     82a:	46bd      	mov	sp, r7
     82c:	bd80      	pop	{r7, pc}

0000082e <delay_init>:
     82e:	b580      	push	{r7, lr}
     830:	b082      	sub	sp, #8
     832:	af00      	add	r7, sp, #0
     834:	6078      	str	r0, [r7, #4]
     836:	f240 031c 	movw	r3, #28
     83a:	f2c2 0300 	movt	r3, #8192	; 0x2000
     83e:	687a      	ldr	r2, [r7, #4]
     840:	601a      	str	r2, [r3, #0]
     842:	f240 031c 	movw	r3, #28
     846:	f2c2 0300 	movt	r3, #8192	; 0x2000
     84a:	681b      	ldr	r3, [r3, #0]
     84c:	0018      	movs	r0, r3
     84e:	f640 038d 	movw	r3, #2189	; 0x88d
     852:	f2c0 0300 	movt	r3, #0
     856:	4798      	blx	r3
     858:	46c0      	nop			; (mov r8, r8)
     85a:	46bd      	mov	sp, r7
     85c:	b002      	add	sp, #8
     85e:	bd80      	pop	{r7, pc}

00000860 <_system_time_init>:
     860:	b580      	push	{r7, lr}
     862:	b082      	sub	sp, #8
     864:	af00      	add	r7, sp, #0
     866:	6078      	str	r0, [r7, #4]
     868:	f24e 0310 	movw	r3, #57360	; 0xe010
     86c:	f2ce 0300 	movt	r3, #57344	; 0xe000
     870:	4a05      	ldr	r2, [pc, #20]	; (888 <_system_time_init+0x28>)
     872:	605a      	str	r2, [r3, #4]
     874:	f24e 0310 	movw	r3, #57360	; 0xe010
     878:	f2ce 0300 	movt	r3, #57344	; 0xe000
     87c:	2205      	movs	r2, #5
     87e:	601a      	str	r2, [r3, #0]
     880:	46c0      	nop			; (mov r8, r8)
     882:	46bd      	mov	sp, r7
     884:	b002      	add	sp, #8
     886:	bd80      	pop	{r7, pc}
     888:	00ffffff 	.word	0x00ffffff

0000088c <_delay_init>:
     88c:	b580      	push	{r7, lr}
     88e:	b082      	sub	sp, #8
     890:	af00      	add	r7, sp, #0
     892:	6078      	str	r0, [r7, #4]
     894:	687b      	ldr	r3, [r7, #4]
     896:	0018      	movs	r0, r3
     898:	f640 0361 	movw	r3, #2145	; 0x861
     89c:	f2c0 0300 	movt	r3, #0
     8a0:	4798      	blx	r3
     8a2:	46c0      	nop			; (mov r8, r8)
     8a4:	46bd      	mov	sp, r7
     8a6:	b002      	add	sp, #8
     8a8:	bd80      	pop	{r7, pc}

000008aa <hri_port_toggle_OUT_reg>:
     8aa:	b580      	push	{r7, lr}
     8ac:	b084      	sub	sp, #16
     8ae:	af00      	add	r7, sp, #0
     8b0:	60f8      	str	r0, [r7, #12]
     8b2:	607a      	str	r2, [r7, #4]
     8b4:	230b      	movs	r3, #11
     8b6:	18fb      	adds	r3, r7, r3
     8b8:	1c0a      	adds	r2, r1, #0
     8ba:	701a      	strb	r2, [r3, #0]
     8bc:	230b      	movs	r3, #11
     8be:	18fb      	adds	r3, r7, r3
     8c0:	781b      	ldrb	r3, [r3, #0]
     8c2:	68fa      	ldr	r2, [r7, #12]
     8c4:	01db      	lsls	r3, r3, #7
     8c6:	18d3      	adds	r3, r2, r3
     8c8:	331c      	adds	r3, #28
     8ca:	687a      	ldr	r2, [r7, #4]
     8cc:	601a      	str	r2, [r3, #0]
     8ce:	46c0      	nop			; (mov r8, r8)
     8d0:	46bd      	mov	sp, r7
     8d2:	b004      	add	sp, #16
     8d4:	bd80      	pop	{r7, pc}

000008d6 <_gpio_toggle_level>:
     8d6:	b580      	push	{r7, lr}
     8d8:	b082      	sub	sp, #8
     8da:	af00      	add	r7, sp, #0
     8dc:	0002      	movs	r2, r0
     8de:	6039      	str	r1, [r7, #0]
     8e0:	1dfb      	adds	r3, r7, #7
     8e2:	701a      	strb	r2, [r3, #0]
     8e4:	683a      	ldr	r2, [r7, #0]
     8e6:	1dfb      	adds	r3, r7, #7
     8e8:	7819      	ldrb	r1, [r3, #0]
     8ea:	23c0      	movs	r3, #192	; 0xc0
     8ec:	05db      	lsls	r3, r3, #23
     8ee:	0018      	movs	r0, r3
     8f0:	f640 03ab 	movw	r3, #2219	; 0x8ab
     8f4:	f2c0 0300 	movt	r3, #0
     8f8:	4798      	blx	r3
     8fa:	46c0      	nop			; (mov r8, r8)
     8fc:	46bd      	mov	sp, r7
     8fe:	b002      	add	sp, #8
     900:	bd80      	pop	{r7, pc}

00000902 <gpio_toggle_pin_level>:
     902:	b580      	push	{r7, lr}
     904:	b082      	sub	sp, #8
     906:	af00      	add	r7, sp, #0
     908:	0002      	movs	r2, r0
     90a:	1dfb      	adds	r3, r7, #7
     90c:	701a      	strb	r2, [r3, #0]
     90e:	1dfb      	adds	r3, r7, #7
     910:	781b      	ldrb	r3, [r3, #0]
     912:	095b      	lsrs	r3, r3, #5
     914:	b2d8      	uxtb	r0, r3
     916:	1dfb      	adds	r3, r7, #7
     918:	781b      	ldrb	r3, [r3, #0]
     91a:	221f      	movs	r2, #31
     91c:	4013      	ands	r3, r2
     91e:	2201      	movs	r2, #1
     920:	409a      	lsls	r2, r3
     922:	0013      	movs	r3, r2
     924:	0019      	movs	r1, r3
     926:	f640 03d7 	movw	r3, #2263	; 0x8d7
     92a:	f2c0 0300 	movt	r3, #0
     92e:	4798      	blx	r3
     930:	46c0      	nop			; (mov r8, r8)
     932:	46bd      	mov	sp, r7
     934:	b002      	add	sp, #8
     936:	bd80      	pop	{r7, pc}

00000938 <init_aes>:
     938:	b580      	push	{r7, lr}
     93a:	af00      	add	r7, sp, #0
     93c:	46c0      	nop			; (mov r8, r8)
     93e:	46bd      	mov	sp, r7
     940:	bd80      	pop	{r7, pc}

00000942 <test_decrypt>:
     942:	b580      	push	{r7, lr}
     944:	af00      	add	r7, sp, #0
     946:	f641 23f9 	movw	r3, #6905	; 0x1af9
     94a:	f2c0 0300 	movt	r3, #0
     94e:	4798      	blx	r3
     950:	46c0      	nop			; (mov r8, r8)
     952:	46bd      	mov	sp, r7
     954:	bd80      	pop	{r7, pc}

00000956 <main>:
     956:	b580      	push	{r7, lr}
     958:	af00      	add	r7, sp, #0
     95a:	f240 1397 	movw	r3, #407	; 0x197
     95e:	f2c0 0300 	movt	r3, #0
     962:	4798      	blx	r3
     964:	f640 1339 	movw	r3, #2361	; 0x939
     968:	f2c0 0300 	movt	r3, #0
     96c:	4798      	blx	r3
     96e:	f640 1343 	movw	r3, #2371	; 0x943
     972:	f2c0 0300 	movt	r3, #0
     976:	4798      	blx	r3
     978:	2017      	movs	r0, #23
     97a:	f640 1303 	movw	r3, #2307	; 0x903
     97e:	f2c0 0300 	movt	r3, #0
     982:	4798      	blx	r3
     984:	e7ee      	b.n	964 <main+0xe>

00000986 <phex>:
     986:	b580      	push	{r7, lr}
     988:	b084      	sub	sp, #16
     98a:	af00      	add	r7, sp, #0
     98c:	6078      	str	r0, [r7, #4]
     98e:	230e      	movs	r3, #14
     990:	18fb      	adds	r3, r7, r3
     992:	2220      	movs	r2, #32
     994:	701a      	strb	r2, [r3, #0]
     996:	230f      	movs	r3, #15
     998:	18fb      	adds	r3, r7, r3
     99a:	2200      	movs	r2, #0
     99c:	701a      	strb	r2, [r3, #0]
     99e:	e006      	b.n	9ae <phex+0x28>
     9a0:	230f      	movs	r3, #15
     9a2:	18fb      	adds	r3, r7, r3
     9a4:	220f      	movs	r2, #15
     9a6:	18ba      	adds	r2, r7, r2
     9a8:	7812      	ldrb	r2, [r2, #0]
     9aa:	3201      	adds	r2, #1
     9ac:	701a      	strb	r2, [r3, #0]
     9ae:	230f      	movs	r3, #15
     9b0:	18fa      	adds	r2, r7, r3
     9b2:	230e      	movs	r3, #14
     9b4:	18fb      	adds	r3, r7, r3
     9b6:	7812      	ldrb	r2, [r2, #0]
     9b8:	781b      	ldrb	r3, [r3, #0]
     9ba:	429a      	cmp	r2, r3
     9bc:	d3f0      	bcc.n	9a0 <phex+0x1a>
     9be:	46c0      	nop			; (mov r8, r8)
     9c0:	46bd      	mov	sp, r7
     9c2:	b004      	add	sp, #16
     9c4:	bd80      	pop	{r7, pc}
	...

000009c8 <KeyExpansion>:
     9c8:	b580      	push	{r7, lr}
     9ca:	b088      	sub	sp, #32
     9cc:	af00      	add	r7, sp, #0
     9ce:	6078      	str	r0, [r7, #4]
     9d0:	6039      	str	r1, [r7, #0]
     9d2:	2300      	movs	r3, #0
     9d4:	61fb      	str	r3, [r7, #28]
     9d6:	e030      	b.n	a3a <KeyExpansion+0x72>
     9d8:	69fb      	ldr	r3, [r7, #28]
     9da:	009b      	lsls	r3, r3, #2
     9dc:	687a      	ldr	r2, [r7, #4]
     9de:	18d3      	adds	r3, r2, r3
     9e0:	69fa      	ldr	r2, [r7, #28]
     9e2:	0092      	lsls	r2, r2, #2
     9e4:	6839      	ldr	r1, [r7, #0]
     9e6:	188a      	adds	r2, r1, r2
     9e8:	7812      	ldrb	r2, [r2, #0]
     9ea:	701a      	strb	r2, [r3, #0]
     9ec:	69fb      	ldr	r3, [r7, #28]
     9ee:	009b      	lsls	r3, r3, #2
     9f0:	3301      	adds	r3, #1
     9f2:	687a      	ldr	r2, [r7, #4]
     9f4:	18d3      	adds	r3, r2, r3
     9f6:	69fa      	ldr	r2, [r7, #28]
     9f8:	0092      	lsls	r2, r2, #2
     9fa:	3201      	adds	r2, #1
     9fc:	6839      	ldr	r1, [r7, #0]
     9fe:	188a      	adds	r2, r1, r2
     a00:	7812      	ldrb	r2, [r2, #0]
     a02:	701a      	strb	r2, [r3, #0]
     a04:	69fb      	ldr	r3, [r7, #28]
     a06:	009b      	lsls	r3, r3, #2
     a08:	3302      	adds	r3, #2
     a0a:	687a      	ldr	r2, [r7, #4]
     a0c:	18d3      	adds	r3, r2, r3
     a0e:	69fa      	ldr	r2, [r7, #28]
     a10:	0092      	lsls	r2, r2, #2
     a12:	3202      	adds	r2, #2
     a14:	6839      	ldr	r1, [r7, #0]
     a16:	188a      	adds	r2, r1, r2
     a18:	7812      	ldrb	r2, [r2, #0]
     a1a:	701a      	strb	r2, [r3, #0]
     a1c:	69fb      	ldr	r3, [r7, #28]
     a1e:	009b      	lsls	r3, r3, #2
     a20:	3303      	adds	r3, #3
     a22:	687a      	ldr	r2, [r7, #4]
     a24:	18d3      	adds	r3, r2, r3
     a26:	69fa      	ldr	r2, [r7, #28]
     a28:	0092      	lsls	r2, r2, #2
     a2a:	3203      	adds	r2, #3
     a2c:	6839      	ldr	r1, [r7, #0]
     a2e:	188a      	adds	r2, r1, r2
     a30:	7812      	ldrb	r2, [r2, #0]
     a32:	701a      	strb	r2, [r3, #0]
     a34:	69fb      	ldr	r3, [r7, #28]
     a36:	3301      	adds	r3, #1
     a38:	61fb      	str	r3, [r7, #28]
     a3a:	69fb      	ldr	r3, [r7, #28]
     a3c:	2b07      	cmp	r3, #7
     a3e:	d9cb      	bls.n	9d8 <KeyExpansion+0x10>
     a40:	2308      	movs	r3, #8
     a42:	61fb      	str	r3, [r7, #28]
     a44:	e103      	b.n	c4e <KeyExpansion+0x286>
     a46:	69fb      	ldr	r3, [r7, #28]
     a48:	4a85      	ldr	r2, [pc, #532]	; (c60 <KeyExpansion+0x298>)
     a4a:	4694      	mov	ip, r2
     a4c:	4463      	add	r3, ip
     a4e:	009b      	lsls	r3, r3, #2
     a50:	61bb      	str	r3, [r7, #24]
     a52:	687a      	ldr	r2, [r7, #4]
     a54:	69bb      	ldr	r3, [r7, #24]
     a56:	18d3      	adds	r3, r2, r3
     a58:	781a      	ldrb	r2, [r3, #0]
     a5a:	230c      	movs	r3, #12
     a5c:	18fb      	adds	r3, r7, r3
     a5e:	701a      	strb	r2, [r3, #0]
     a60:	69bb      	ldr	r3, [r7, #24]
     a62:	3301      	adds	r3, #1
     a64:	687a      	ldr	r2, [r7, #4]
     a66:	18d3      	adds	r3, r2, r3
     a68:	781a      	ldrb	r2, [r3, #0]
     a6a:	230c      	movs	r3, #12
     a6c:	18fb      	adds	r3, r7, r3
     a6e:	705a      	strb	r2, [r3, #1]
     a70:	69bb      	ldr	r3, [r7, #24]
     a72:	3302      	adds	r3, #2
     a74:	687a      	ldr	r2, [r7, #4]
     a76:	18d3      	adds	r3, r2, r3
     a78:	781a      	ldrb	r2, [r3, #0]
     a7a:	230c      	movs	r3, #12
     a7c:	18fb      	adds	r3, r7, r3
     a7e:	709a      	strb	r2, [r3, #2]
     a80:	69bb      	ldr	r3, [r7, #24]
     a82:	3303      	adds	r3, #3
     a84:	687a      	ldr	r2, [r7, #4]
     a86:	18d3      	adds	r3, r2, r3
     a88:	781a      	ldrb	r2, [r3, #0]
     a8a:	230c      	movs	r3, #12
     a8c:	18fb      	adds	r3, r7, r3
     a8e:	70da      	strb	r2, [r3, #3]
     a90:	69fb      	ldr	r3, [r7, #28]
     a92:	2207      	movs	r2, #7
     a94:	4013      	ands	r3, r2
     a96:	2b00      	cmp	r3, #0
     a98:	d15c      	bne.n	b54 <KeyExpansion+0x18c>
     a9a:	2317      	movs	r3, #23
     a9c:	18fb      	adds	r3, r7, r3
     a9e:	220c      	movs	r2, #12
     aa0:	18ba      	adds	r2, r7, r2
     aa2:	7812      	ldrb	r2, [r2, #0]
     aa4:	701a      	strb	r2, [r3, #0]
     aa6:	230c      	movs	r3, #12
     aa8:	18fb      	adds	r3, r7, r3
     aaa:	785a      	ldrb	r2, [r3, #1]
     aac:	230c      	movs	r3, #12
     aae:	18fb      	adds	r3, r7, r3
     ab0:	701a      	strb	r2, [r3, #0]
     ab2:	230c      	movs	r3, #12
     ab4:	18fb      	adds	r3, r7, r3
     ab6:	789a      	ldrb	r2, [r3, #2]
     ab8:	230c      	movs	r3, #12
     aba:	18fb      	adds	r3, r7, r3
     abc:	705a      	strb	r2, [r3, #1]
     abe:	230c      	movs	r3, #12
     ac0:	18fb      	adds	r3, r7, r3
     ac2:	78da      	ldrb	r2, [r3, #3]
     ac4:	230c      	movs	r3, #12
     ac6:	18fb      	adds	r3, r7, r3
     ac8:	709a      	strb	r2, [r3, #2]
     aca:	230c      	movs	r3, #12
     acc:	18fb      	adds	r3, r7, r3
     ace:	2217      	movs	r2, #23
     ad0:	18ba      	adds	r2, r7, r2
     ad2:	7812      	ldrb	r2, [r2, #0]
     ad4:	70da      	strb	r2, [r3, #3]
     ad6:	230c      	movs	r3, #12
     ad8:	18fb      	adds	r3, r7, r3
     ada:	781b      	ldrb	r3, [r3, #0]
     adc:	001a      	movs	r2, r3
     ade:	f641 4340 	movw	r3, #7232	; 0x1c40
     ae2:	f2c0 0300 	movt	r3, #0
     ae6:	5c9a      	ldrb	r2, [r3, r2]
     ae8:	230c      	movs	r3, #12
     aea:	18fb      	adds	r3, r7, r3
     aec:	701a      	strb	r2, [r3, #0]
     aee:	230c      	movs	r3, #12
     af0:	18fb      	adds	r3, r7, r3
     af2:	785b      	ldrb	r3, [r3, #1]
     af4:	001a      	movs	r2, r3
     af6:	f641 4340 	movw	r3, #7232	; 0x1c40
     afa:	f2c0 0300 	movt	r3, #0
     afe:	5c9a      	ldrb	r2, [r3, r2]
     b00:	230c      	movs	r3, #12
     b02:	18fb      	adds	r3, r7, r3
     b04:	705a      	strb	r2, [r3, #1]
     b06:	230c      	movs	r3, #12
     b08:	18fb      	adds	r3, r7, r3
     b0a:	789b      	ldrb	r3, [r3, #2]
     b0c:	001a      	movs	r2, r3
     b0e:	f641 4340 	movw	r3, #7232	; 0x1c40
     b12:	f2c0 0300 	movt	r3, #0
     b16:	5c9a      	ldrb	r2, [r3, r2]
     b18:	230c      	movs	r3, #12
     b1a:	18fb      	adds	r3, r7, r3
     b1c:	709a      	strb	r2, [r3, #2]
     b1e:	230c      	movs	r3, #12
     b20:	18fb      	adds	r3, r7, r3
     b22:	78db      	ldrb	r3, [r3, #3]
     b24:	001a      	movs	r2, r3
     b26:	f641 4340 	movw	r3, #7232	; 0x1c40
     b2a:	f2c0 0300 	movt	r3, #0
     b2e:	5c9a      	ldrb	r2, [r3, r2]
     b30:	230c      	movs	r3, #12
     b32:	18fb      	adds	r3, r7, r3
     b34:	70da      	strb	r2, [r3, #3]
     b36:	230c      	movs	r3, #12
     b38:	18fb      	adds	r3, r7, r3
     b3a:	781a      	ldrb	r2, [r3, #0]
     b3c:	69fb      	ldr	r3, [r7, #28]
     b3e:	08d9      	lsrs	r1, r3, #3
     b40:	f641 6340 	movw	r3, #7744	; 0x1e40
     b44:	f2c0 0300 	movt	r3, #0
     b48:	5c5b      	ldrb	r3, [r3, r1]
     b4a:	4053      	eors	r3, r2
     b4c:	b2da      	uxtb	r2, r3
     b4e:	230c      	movs	r3, #12
     b50:	18fb      	adds	r3, r7, r3
     b52:	701a      	strb	r2, [r3, #0]
     b54:	69fb      	ldr	r3, [r7, #28]
     b56:	2207      	movs	r2, #7
     b58:	4013      	ands	r3, r2
     b5a:	2b04      	cmp	r3, #4
     b5c:	d12f      	bne.n	bbe <KeyExpansion+0x1f6>
     b5e:	230c      	movs	r3, #12
     b60:	18fb      	adds	r3, r7, r3
     b62:	781b      	ldrb	r3, [r3, #0]
     b64:	001a      	movs	r2, r3
     b66:	f641 4340 	movw	r3, #7232	; 0x1c40
     b6a:	f2c0 0300 	movt	r3, #0
     b6e:	5c9a      	ldrb	r2, [r3, r2]
     b70:	230c      	movs	r3, #12
     b72:	18fb      	adds	r3, r7, r3
     b74:	701a      	strb	r2, [r3, #0]
     b76:	230c      	movs	r3, #12
     b78:	18fb      	adds	r3, r7, r3
     b7a:	785b      	ldrb	r3, [r3, #1]
     b7c:	001a      	movs	r2, r3
     b7e:	f641 4340 	movw	r3, #7232	; 0x1c40
     b82:	f2c0 0300 	movt	r3, #0
     b86:	5c9a      	ldrb	r2, [r3, r2]
     b88:	230c      	movs	r3, #12
     b8a:	18fb      	adds	r3, r7, r3
     b8c:	705a      	strb	r2, [r3, #1]
     b8e:	230c      	movs	r3, #12
     b90:	18fb      	adds	r3, r7, r3
     b92:	789b      	ldrb	r3, [r3, #2]
     b94:	001a      	movs	r2, r3
     b96:	f641 4340 	movw	r3, #7232	; 0x1c40
     b9a:	f2c0 0300 	movt	r3, #0
     b9e:	5c9a      	ldrb	r2, [r3, r2]
     ba0:	230c      	movs	r3, #12
     ba2:	18fb      	adds	r3, r7, r3
     ba4:	709a      	strb	r2, [r3, #2]
     ba6:	230c      	movs	r3, #12
     ba8:	18fb      	adds	r3, r7, r3
     baa:	78db      	ldrb	r3, [r3, #3]
     bac:	001a      	movs	r2, r3
     bae:	f641 4340 	movw	r3, #7232	; 0x1c40
     bb2:	f2c0 0300 	movt	r3, #0
     bb6:	5c9a      	ldrb	r2, [r3, r2]
     bb8:	230c      	movs	r3, #12
     bba:	18fb      	adds	r3, r7, r3
     bbc:	70da      	strb	r2, [r3, #3]
     bbe:	69fb      	ldr	r3, [r7, #28]
     bc0:	009b      	lsls	r3, r3, #2
     bc2:	613b      	str	r3, [r7, #16]
     bc4:	69fb      	ldr	r3, [r7, #28]
     bc6:	f64f 7cf8 	movw	ip, #65528	; 0xfff8
     bca:	f6c3 7cff 	movt	ip, #16383	; 0x3fff
     bce:	4463      	add	r3, ip
     bd0:	009b      	lsls	r3, r3, #2
     bd2:	61bb      	str	r3, [r7, #24]
     bd4:	687a      	ldr	r2, [r7, #4]
     bd6:	693b      	ldr	r3, [r7, #16]
     bd8:	18d3      	adds	r3, r2, r3
     bda:	6879      	ldr	r1, [r7, #4]
     bdc:	69ba      	ldr	r2, [r7, #24]
     bde:	188a      	adds	r2, r1, r2
     be0:	7811      	ldrb	r1, [r2, #0]
     be2:	220c      	movs	r2, #12
     be4:	18ba      	adds	r2, r7, r2
     be6:	7812      	ldrb	r2, [r2, #0]
     be8:	404a      	eors	r2, r1
     bea:	b2d2      	uxtb	r2, r2
     bec:	701a      	strb	r2, [r3, #0]
     bee:	693b      	ldr	r3, [r7, #16]
     bf0:	3301      	adds	r3, #1
     bf2:	687a      	ldr	r2, [r7, #4]
     bf4:	18d3      	adds	r3, r2, r3
     bf6:	69ba      	ldr	r2, [r7, #24]
     bf8:	3201      	adds	r2, #1
     bfa:	6879      	ldr	r1, [r7, #4]
     bfc:	188a      	adds	r2, r1, r2
     bfe:	7811      	ldrb	r1, [r2, #0]
     c00:	220c      	movs	r2, #12
     c02:	18ba      	adds	r2, r7, r2
     c04:	7852      	ldrb	r2, [r2, #1]
     c06:	404a      	eors	r2, r1
     c08:	b2d2      	uxtb	r2, r2
     c0a:	701a      	strb	r2, [r3, #0]
     c0c:	693b      	ldr	r3, [r7, #16]
     c0e:	3302      	adds	r3, #2
     c10:	687a      	ldr	r2, [r7, #4]
     c12:	18d3      	adds	r3, r2, r3
     c14:	69ba      	ldr	r2, [r7, #24]
     c16:	3202      	adds	r2, #2
     c18:	6879      	ldr	r1, [r7, #4]
     c1a:	188a      	adds	r2, r1, r2
     c1c:	7811      	ldrb	r1, [r2, #0]
     c1e:	220c      	movs	r2, #12
     c20:	18ba      	adds	r2, r7, r2
     c22:	7892      	ldrb	r2, [r2, #2]
     c24:	404a      	eors	r2, r1
     c26:	b2d2      	uxtb	r2, r2
     c28:	701a      	strb	r2, [r3, #0]
     c2a:	693b      	ldr	r3, [r7, #16]
     c2c:	3303      	adds	r3, #3
     c2e:	687a      	ldr	r2, [r7, #4]
     c30:	18d3      	adds	r3, r2, r3
     c32:	69ba      	ldr	r2, [r7, #24]
     c34:	3203      	adds	r2, #3
     c36:	6879      	ldr	r1, [r7, #4]
     c38:	188a      	adds	r2, r1, r2
     c3a:	7811      	ldrb	r1, [r2, #0]
     c3c:	220c      	movs	r2, #12
     c3e:	18ba      	adds	r2, r7, r2
     c40:	78d2      	ldrb	r2, [r2, #3]
     c42:	404a      	eors	r2, r1
     c44:	b2d2      	uxtb	r2, r2
     c46:	701a      	strb	r2, [r3, #0]
     c48:	69fb      	ldr	r3, [r7, #28]
     c4a:	3301      	adds	r3, #1
     c4c:	61fb      	str	r3, [r7, #28]
     c4e:	69fb      	ldr	r3, [r7, #28]
     c50:	2b3b      	cmp	r3, #59	; 0x3b
     c52:	d800      	bhi.n	c56 <KeyExpansion+0x28e>
     c54:	e6f7      	b.n	a46 <KeyExpansion+0x7e>
     c56:	46c0      	nop			; (mov r8, r8)
     c58:	46bd      	mov	sp, r7
     c5a:	b008      	add	sp, #32
     c5c:	bd80      	pop	{r7, pc}
     c5e:	46c0      	nop			; (mov r8, r8)
     c60:	3fffffff 	.word	0x3fffffff

00000c64 <AES_init_ctx>:
     c64:	b580      	push	{r7, lr}
     c66:	b082      	sub	sp, #8
     c68:	af00      	add	r7, sp, #0
     c6a:	6078      	str	r0, [r7, #4]
     c6c:	6039      	str	r1, [r7, #0]
     c6e:	687b      	ldr	r3, [r7, #4]
     c70:	683a      	ldr	r2, [r7, #0]
     c72:	0011      	movs	r1, r2
     c74:	0018      	movs	r0, r3
     c76:	f640 13c9 	movw	r3, #2505	; 0x9c9
     c7a:	f2c0 0300 	movt	r3, #0
     c7e:	4798      	blx	r3
     c80:	46c0      	nop			; (mov r8, r8)
     c82:	46bd      	mov	sp, r7
     c84:	b002      	add	sp, #8
     c86:	bd80      	pop	{r7, pc}

00000c88 <AddRoundKey>:
     c88:	b590      	push	{r4, r7, lr}
     c8a:	b087      	sub	sp, #28
     c8c:	af00      	add	r7, sp, #0
     c8e:	60b9      	str	r1, [r7, #8]
     c90:	607a      	str	r2, [r7, #4]
     c92:	230f      	movs	r3, #15
     c94:	18fb      	adds	r3, r7, r3
     c96:	1c02      	adds	r2, r0, #0
     c98:	701a      	strb	r2, [r3, #0]
     c9a:	2317      	movs	r3, #23
     c9c:	18fb      	adds	r3, r7, r3
     c9e:	2200      	movs	r2, #0
     ca0:	701a      	strb	r2, [r3, #0]
     ca2:	e03f      	b.n	d24 <AddRoundKey+0x9c>
     ca4:	2316      	movs	r3, #22
     ca6:	18fb      	adds	r3, r7, r3
     ca8:	2200      	movs	r2, #0
     caa:	701a      	strb	r2, [r3, #0]
     cac:	e02e      	b.n	d0c <AddRoundKey+0x84>
     cae:	2317      	movs	r3, #23
     cb0:	18fb      	adds	r3, r7, r3
     cb2:	781a      	ldrb	r2, [r3, #0]
     cb4:	2316      	movs	r3, #22
     cb6:	18fb      	adds	r3, r7, r3
     cb8:	781b      	ldrb	r3, [r3, #0]
     cba:	2117      	movs	r1, #23
     cbc:	1879      	adds	r1, r7, r1
     cbe:	7808      	ldrb	r0, [r1, #0]
     cc0:	2116      	movs	r1, #22
     cc2:	1879      	adds	r1, r7, r1
     cc4:	7809      	ldrb	r1, [r1, #0]
     cc6:	68bc      	ldr	r4, [r7, #8]
     cc8:	0080      	lsls	r0, r0, #2
     cca:	1820      	adds	r0, r4, r0
     ccc:	5c40      	ldrb	r0, [r0, r1]
     cce:	210f      	movs	r1, #15
     cd0:	1879      	adds	r1, r7, r1
     cd2:	7809      	ldrb	r1, [r1, #0]
     cd4:	008c      	lsls	r4, r1, #2
     cd6:	2117      	movs	r1, #23
     cd8:	1879      	adds	r1, r7, r1
     cda:	7809      	ldrb	r1, [r1, #0]
     cdc:	1861      	adds	r1, r4, r1
     cde:	008c      	lsls	r4, r1, #2
     ce0:	2116      	movs	r1, #22
     ce2:	1879      	adds	r1, r7, r1
     ce4:	7809      	ldrb	r1, [r1, #0]
     ce6:	1861      	adds	r1, r4, r1
     ce8:	000c      	movs	r4, r1
     cea:	6879      	ldr	r1, [r7, #4]
     cec:	1909      	adds	r1, r1, r4
     cee:	7809      	ldrb	r1, [r1, #0]
     cf0:	4041      	eors	r1, r0
     cf2:	b2c8      	uxtb	r0, r1
     cf4:	68b9      	ldr	r1, [r7, #8]
     cf6:	0092      	lsls	r2, r2, #2
     cf8:	188a      	adds	r2, r1, r2
     cfa:	1c01      	adds	r1, r0, #0
     cfc:	54d1      	strb	r1, [r2, r3]
     cfe:	2316      	movs	r3, #22
     d00:	18fb      	adds	r3, r7, r3
     d02:	2216      	movs	r2, #22
     d04:	18ba      	adds	r2, r7, r2
     d06:	7812      	ldrb	r2, [r2, #0]
     d08:	3201      	adds	r2, #1
     d0a:	701a      	strb	r2, [r3, #0]
     d0c:	2316      	movs	r3, #22
     d0e:	18fb      	adds	r3, r7, r3
     d10:	781b      	ldrb	r3, [r3, #0]
     d12:	2b03      	cmp	r3, #3
     d14:	d9cb      	bls.n	cae <AddRoundKey+0x26>
     d16:	2317      	movs	r3, #23
     d18:	18fb      	adds	r3, r7, r3
     d1a:	2217      	movs	r2, #23
     d1c:	18ba      	adds	r2, r7, r2
     d1e:	7812      	ldrb	r2, [r2, #0]
     d20:	3201      	adds	r2, #1
     d22:	701a      	strb	r2, [r3, #0]
     d24:	2317      	movs	r3, #23
     d26:	18fb      	adds	r3, r7, r3
     d28:	781b      	ldrb	r3, [r3, #0]
     d2a:	2b03      	cmp	r3, #3
     d2c:	d9ba      	bls.n	ca4 <AddRoundKey+0x1c>
     d2e:	46c0      	nop			; (mov r8, r8)
     d30:	46bd      	mov	sp, r7
     d32:	b007      	add	sp, #28
     d34:	bd90      	pop	{r4, r7, pc}

00000d36 <xtime>:
     d36:	b580      	push	{r7, lr}
     d38:	b082      	sub	sp, #8
     d3a:	af00      	add	r7, sp, #0
     d3c:	0002      	movs	r2, r0
     d3e:	1dfb      	adds	r3, r7, #7
     d40:	701a      	strb	r2, [r3, #0]
     d42:	1dfb      	adds	r3, r7, #7
     d44:	781b      	ldrb	r3, [r3, #0]
     d46:	005b      	lsls	r3, r3, #1
     d48:	b25a      	sxtb	r2, r3
     d4a:	1dfb      	adds	r3, r7, #7
     d4c:	781b      	ldrb	r3, [r3, #0]
     d4e:	09db      	lsrs	r3, r3, #7
     d50:	b2db      	uxtb	r3, r3
     d52:	1c19      	adds	r1, r3, #0
     d54:	1c0b      	adds	r3, r1, #0
     d56:	18db      	adds	r3, r3, r3
     d58:	185b      	adds	r3, r3, r1
     d5a:	1c19      	adds	r1, r3, #0
     d5c:	00c8      	lsls	r0, r1, #3
     d5e:	1c19      	adds	r1, r3, #0
     d60:	1c03      	adds	r3, r0, #0
     d62:	18cb      	adds	r3, r1, r3
     d64:	b2db      	uxtb	r3, r3
     d66:	b25b      	sxtb	r3, r3
     d68:	4053      	eors	r3, r2
     d6a:	b25b      	sxtb	r3, r3
     d6c:	b2db      	uxtb	r3, r3
     d6e:	0018      	movs	r0, r3
     d70:	46bd      	mov	sp, r7
     d72:	b002      	add	sp, #8
     d74:	bd80      	pop	{r7, pc}

00000d76 <InvMixColumns>:
     d76:	b5b0      	push	{r4, r5, r7, lr}
     d78:	b084      	sub	sp, #16
     d7a:	af00      	add	r7, sp, #0
     d7c:	6078      	str	r0, [r7, #4]
     d7e:	2300      	movs	r3, #0
     d80:	60fb      	str	r3, [r7, #12]
     d82:	f000 fdc2 	bl	190a <InvMixColumns+0xb94>
     d86:	230b      	movs	r3, #11
     d88:	18fb      	adds	r3, r7, r3
     d8a:	687a      	ldr	r2, [r7, #4]
     d8c:	68f9      	ldr	r1, [r7, #12]
     d8e:	0089      	lsls	r1, r1, #2
     d90:	5c8a      	ldrb	r2, [r1, r2]
     d92:	701a      	strb	r2, [r3, #0]
     d94:	230a      	movs	r3, #10
     d96:	18fb      	adds	r3, r7, r3
     d98:	6879      	ldr	r1, [r7, #4]
     d9a:	68fa      	ldr	r2, [r7, #12]
     d9c:	0092      	lsls	r2, r2, #2
     d9e:	188a      	adds	r2, r1, r2
     da0:	3201      	adds	r2, #1
     da2:	7812      	ldrb	r2, [r2, #0]
     da4:	701a      	strb	r2, [r3, #0]
     da6:	2309      	movs	r3, #9
     da8:	18fb      	adds	r3, r7, r3
     daa:	6879      	ldr	r1, [r7, #4]
     dac:	68fa      	ldr	r2, [r7, #12]
     dae:	0092      	lsls	r2, r2, #2
     db0:	188a      	adds	r2, r1, r2
     db2:	3202      	adds	r2, #2
     db4:	7812      	ldrb	r2, [r2, #0]
     db6:	701a      	strb	r2, [r3, #0]
     db8:	2308      	movs	r3, #8
     dba:	18fb      	adds	r3, r7, r3
     dbc:	6879      	ldr	r1, [r7, #4]
     dbe:	68fa      	ldr	r2, [r7, #12]
     dc0:	0092      	lsls	r2, r2, #2
     dc2:	188a      	adds	r2, r1, r2
     dc4:	3203      	adds	r2, #3
     dc6:	7812      	ldrb	r2, [r2, #0]
     dc8:	701a      	strb	r2, [r3, #0]
     dca:	230b      	movs	r3, #11
     dcc:	18fb      	adds	r3, r7, r3
     dce:	781b      	ldrb	r3, [r3, #0]
     dd0:	0018      	movs	r0, r3
     dd2:	f640 5337 	movw	r3, #3383	; 0xd37
     dd6:	f2c0 0300 	movt	r3, #0
     dda:	4798      	blx	r3
     ddc:	0003      	movs	r3, r0
     dde:	0018      	movs	r0, r3
     de0:	f640 5337 	movw	r3, #3383	; 0xd37
     de4:	f2c0 0300 	movt	r3, #0
     de8:	4798      	blx	r3
     dea:	0003      	movs	r3, r0
     dec:	0018      	movs	r0, r3
     dee:	f640 5337 	movw	r3, #3383	; 0xd37
     df2:	f2c0 0300 	movt	r3, #0
     df6:	4798      	blx	r3
     df8:	0003      	movs	r3, r0
     dfa:	0018      	movs	r0, r3
     dfc:	f640 5337 	movw	r3, #3383	; 0xd37
     e00:	f2c0 0300 	movt	r3, #0
     e04:	4798      	blx	r3
     e06:	230a      	movs	r3, #10
     e08:	18fb      	adds	r3, r7, r3
     e0a:	781b      	ldrb	r3, [r3, #0]
     e0c:	0018      	movs	r0, r3
     e0e:	f640 5337 	movw	r3, #3383	; 0xd37
     e12:	f2c0 0300 	movt	r3, #0
     e16:	4798      	blx	r3
     e18:	0003      	movs	r3, r0
     e1a:	0018      	movs	r0, r3
     e1c:	f640 5337 	movw	r3, #3383	; 0xd37
     e20:	f2c0 0300 	movt	r3, #0
     e24:	4798      	blx	r3
     e26:	230a      	movs	r3, #10
     e28:	18fb      	adds	r3, r7, r3
     e2a:	781b      	ldrb	r3, [r3, #0]
     e2c:	0018      	movs	r0, r3
     e2e:	f640 5337 	movw	r3, #3383	; 0xd37
     e32:	f2c0 0300 	movt	r3, #0
     e36:	4798      	blx	r3
     e38:	0003      	movs	r3, r0
     e3a:	0018      	movs	r0, r3
     e3c:	f640 5337 	movw	r3, #3383	; 0xd37
     e40:	f2c0 0300 	movt	r3, #0
     e44:	4798      	blx	r3
     e46:	0003      	movs	r3, r0
     e48:	0018      	movs	r0, r3
     e4a:	f640 5337 	movw	r3, #3383	; 0xd37
     e4e:	f2c0 0300 	movt	r3, #0
     e52:	4798      	blx	r3
     e54:	0003      	movs	r3, r0
     e56:	0018      	movs	r0, r3
     e58:	f640 5337 	movw	r3, #3383	; 0xd37
     e5c:	f2c0 0300 	movt	r3, #0
     e60:	4798      	blx	r3
     e62:	2309      	movs	r3, #9
     e64:	18fb      	adds	r3, r7, r3
     e66:	781b      	ldrb	r3, [r3, #0]
     e68:	0018      	movs	r0, r3
     e6a:	f640 5337 	movw	r3, #3383	; 0xd37
     e6e:	f2c0 0300 	movt	r3, #0
     e72:	4798      	blx	r3
     e74:	2309      	movs	r3, #9
     e76:	18fb      	adds	r3, r7, r3
     e78:	781b      	ldrb	r3, [r3, #0]
     e7a:	0018      	movs	r0, r3
     e7c:	f640 5337 	movw	r3, #3383	; 0xd37
     e80:	f2c0 0300 	movt	r3, #0
     e84:	4798      	blx	r3
     e86:	0003      	movs	r3, r0
     e88:	0018      	movs	r0, r3
     e8a:	f640 5337 	movw	r3, #3383	; 0xd37
     e8e:	f2c0 0300 	movt	r3, #0
     e92:	4798      	blx	r3
     e94:	0003      	movs	r3, r0
     e96:	0018      	movs	r0, r3
     e98:	f640 5337 	movw	r3, #3383	; 0xd37
     e9c:	f2c0 0300 	movt	r3, #0
     ea0:	4798      	blx	r3
     ea2:	0003      	movs	r3, r0
     ea4:	0018      	movs	r0, r3
     ea6:	f640 5337 	movw	r3, #3383	; 0xd37
     eaa:	f2c0 0300 	movt	r3, #0
     eae:	4798      	blx	r3
     eb0:	2308      	movs	r3, #8
     eb2:	18fb      	adds	r3, r7, r3
     eb4:	781b      	ldrb	r3, [r3, #0]
     eb6:	0018      	movs	r0, r3
     eb8:	f640 5337 	movw	r3, #3383	; 0xd37
     ebc:	f2c0 0300 	movt	r3, #0
     ec0:	4798      	blx	r3
     ec2:	2308      	movs	r3, #8
     ec4:	18fb      	adds	r3, r7, r3
     ec6:	781b      	ldrb	r3, [r3, #0]
     ec8:	0018      	movs	r0, r3
     eca:	f640 5337 	movw	r3, #3383	; 0xd37
     ece:	f2c0 0300 	movt	r3, #0
     ed2:	4798      	blx	r3
     ed4:	0003      	movs	r3, r0
     ed6:	0018      	movs	r0, r3
     ed8:	f640 5337 	movw	r3, #3383	; 0xd37
     edc:	f2c0 0300 	movt	r3, #0
     ee0:	4798      	blx	r3
     ee2:	2308      	movs	r3, #8
     ee4:	18fb      	adds	r3, r7, r3
     ee6:	781b      	ldrb	r3, [r3, #0]
     ee8:	0018      	movs	r0, r3
     eea:	f640 5337 	movw	r3, #3383	; 0xd37
     eee:	f2c0 0300 	movt	r3, #0
     ef2:	4798      	blx	r3
     ef4:	0003      	movs	r3, r0
     ef6:	0018      	movs	r0, r3
     ef8:	f640 5337 	movw	r3, #3383	; 0xd37
     efc:	f2c0 0300 	movt	r3, #0
     f00:	4798      	blx	r3
     f02:	0003      	movs	r3, r0
     f04:	0018      	movs	r0, r3
     f06:	f640 5337 	movw	r3, #3383	; 0xd37
     f0a:	f2c0 0300 	movt	r3, #0
     f0e:	4798      	blx	r3
     f10:	0003      	movs	r3, r0
     f12:	0018      	movs	r0, r3
     f14:	f640 5337 	movw	r3, #3383	; 0xd37
     f18:	f2c0 0300 	movt	r3, #0
     f1c:	4798      	blx	r3
     f1e:	230b      	movs	r3, #11
     f20:	18fb      	adds	r3, r7, r3
     f22:	781b      	ldrb	r3, [r3, #0]
     f24:	0018      	movs	r0, r3
     f26:	f640 5337 	movw	r3, #3383	; 0xd37
     f2a:	f2c0 0300 	movt	r3, #0
     f2e:	4798      	blx	r3
     f30:	0003      	movs	r3, r0
     f32:	001c      	movs	r4, r3
     f34:	230b      	movs	r3, #11
     f36:	18fb      	adds	r3, r7, r3
     f38:	781b      	ldrb	r3, [r3, #0]
     f3a:	0018      	movs	r0, r3
     f3c:	f640 5337 	movw	r3, #3383	; 0xd37
     f40:	f2c0 0300 	movt	r3, #0
     f44:	4798      	blx	r3
     f46:	0003      	movs	r3, r0
     f48:	0018      	movs	r0, r3
     f4a:	f640 5337 	movw	r3, #3383	; 0xd37
     f4e:	f2c0 0300 	movt	r3, #0
     f52:	4798      	blx	r3
     f54:	0003      	movs	r3, r0
     f56:	4063      	eors	r3, r4
     f58:	b2dc      	uxtb	r4, r3
     f5a:	230b      	movs	r3, #11
     f5c:	18fb      	adds	r3, r7, r3
     f5e:	781b      	ldrb	r3, [r3, #0]
     f60:	0018      	movs	r0, r3
     f62:	f640 5337 	movw	r3, #3383	; 0xd37
     f66:	f2c0 0300 	movt	r3, #0
     f6a:	4798      	blx	r3
     f6c:	0003      	movs	r3, r0
     f6e:	0018      	movs	r0, r3
     f70:	f640 5337 	movw	r3, #3383	; 0xd37
     f74:	f2c0 0300 	movt	r3, #0
     f78:	4798      	blx	r3
     f7a:	0003      	movs	r3, r0
     f7c:	0018      	movs	r0, r3
     f7e:	f640 5337 	movw	r3, #3383	; 0xd37
     f82:	f2c0 0300 	movt	r3, #0
     f86:	4798      	blx	r3
     f88:	0003      	movs	r3, r0
     f8a:	4063      	eors	r3, r4
     f8c:	b2dc      	uxtb	r4, r3
     f8e:	230a      	movs	r3, #10
     f90:	18fb      	adds	r3, r7, r3
     f92:	781b      	ldrb	r3, [r3, #0]
     f94:	0018      	movs	r0, r3
     f96:	f640 5337 	movw	r3, #3383	; 0xd37
     f9a:	f2c0 0300 	movt	r3, #0
     f9e:	4798      	blx	r3
     fa0:	0003      	movs	r3, r0
     fa2:	001a      	movs	r2, r3
     fa4:	230a      	movs	r3, #10
     fa6:	18fb      	adds	r3, r7, r3
     fa8:	781b      	ldrb	r3, [r3, #0]
     faa:	4053      	eors	r3, r2
     fac:	b2dd      	uxtb	r5, r3
     fae:	230a      	movs	r3, #10
     fb0:	18fb      	adds	r3, r7, r3
     fb2:	781b      	ldrb	r3, [r3, #0]
     fb4:	0018      	movs	r0, r3
     fb6:	f640 5337 	movw	r3, #3383	; 0xd37
     fba:	f2c0 0300 	movt	r3, #0
     fbe:	4798      	blx	r3
     fc0:	0003      	movs	r3, r0
     fc2:	0018      	movs	r0, r3
     fc4:	f640 5337 	movw	r3, #3383	; 0xd37
     fc8:	f2c0 0300 	movt	r3, #0
     fcc:	4798      	blx	r3
     fce:	0003      	movs	r3, r0
     fd0:	0018      	movs	r0, r3
     fd2:	f640 5337 	movw	r3, #3383	; 0xd37
     fd6:	f2c0 0300 	movt	r3, #0
     fda:	4798      	blx	r3
     fdc:	0003      	movs	r3, r0
     fde:	406b      	eors	r3, r5
     fe0:	b2db      	uxtb	r3, r3
     fe2:	4063      	eors	r3, r4
     fe4:	b2dc      	uxtb	r4, r3
     fe6:	2309      	movs	r3, #9
     fe8:	18fb      	adds	r3, r7, r3
     fea:	781b      	ldrb	r3, [r3, #0]
     fec:	0018      	movs	r0, r3
     fee:	f640 5337 	movw	r3, #3383	; 0xd37
     ff2:	f2c0 0300 	movt	r3, #0
     ff6:	4798      	blx	r3
     ff8:	0003      	movs	r3, r0
     ffa:	0018      	movs	r0, r3
     ffc:	f640 5337 	movw	r3, #3383	; 0xd37
    1000:	f2c0 0300 	movt	r3, #0
    1004:	4798      	blx	r3
    1006:	0003      	movs	r3, r0
    1008:	001a      	movs	r2, r3
    100a:	2309      	movs	r3, #9
    100c:	18fb      	adds	r3, r7, r3
    100e:	781b      	ldrb	r3, [r3, #0]
    1010:	4053      	eors	r3, r2
    1012:	b2dd      	uxtb	r5, r3
    1014:	2309      	movs	r3, #9
    1016:	18fb      	adds	r3, r7, r3
    1018:	781b      	ldrb	r3, [r3, #0]
    101a:	0018      	movs	r0, r3
    101c:	f640 5337 	movw	r3, #3383	; 0xd37
    1020:	f2c0 0300 	movt	r3, #0
    1024:	4798      	blx	r3
    1026:	0003      	movs	r3, r0
    1028:	0018      	movs	r0, r3
    102a:	f640 5337 	movw	r3, #3383	; 0xd37
    102e:	f2c0 0300 	movt	r3, #0
    1032:	4798      	blx	r3
    1034:	0003      	movs	r3, r0
    1036:	0018      	movs	r0, r3
    1038:	f640 5337 	movw	r3, #3383	; 0xd37
    103c:	f2c0 0300 	movt	r3, #0
    1040:	4798      	blx	r3
    1042:	0003      	movs	r3, r0
    1044:	406b      	eors	r3, r5
    1046:	b2db      	uxtb	r3, r3
    1048:	4063      	eors	r3, r4
    104a:	b2dc      	uxtb	r4, r3
    104c:	2308      	movs	r3, #8
    104e:	18fb      	adds	r3, r7, r3
    1050:	781b      	ldrb	r3, [r3, #0]
    1052:	0018      	movs	r0, r3
    1054:	f640 5337 	movw	r3, #3383	; 0xd37
    1058:	f2c0 0300 	movt	r3, #0
    105c:	4798      	blx	r3
    105e:	0003      	movs	r3, r0
    1060:	0018      	movs	r0, r3
    1062:	f640 5337 	movw	r3, #3383	; 0xd37
    1066:	f2c0 0300 	movt	r3, #0
    106a:	4798      	blx	r3
    106c:	0003      	movs	r3, r0
    106e:	0018      	movs	r0, r3
    1070:	f640 5337 	movw	r3, #3383	; 0xd37
    1074:	f2c0 0300 	movt	r3, #0
    1078:	4798      	blx	r3
    107a:	0003      	movs	r3, r0
    107c:	001a      	movs	r2, r3
    107e:	2308      	movs	r3, #8
    1080:	18fb      	adds	r3, r7, r3
    1082:	781b      	ldrb	r3, [r3, #0]
    1084:	4053      	eors	r3, r2
    1086:	b2db      	uxtb	r3, r3
    1088:	4063      	eors	r3, r4
    108a:	b2d9      	uxtb	r1, r3
    108c:	687b      	ldr	r3, [r7, #4]
    108e:	68fa      	ldr	r2, [r7, #12]
    1090:	0092      	lsls	r2, r2, #2
    1092:	54d1      	strb	r1, [r2, r3]
    1094:	230b      	movs	r3, #11
    1096:	18fb      	adds	r3, r7, r3
    1098:	781b      	ldrb	r3, [r3, #0]
    109a:	0018      	movs	r0, r3
    109c:	f640 5337 	movw	r3, #3383	; 0xd37
    10a0:	f2c0 0300 	movt	r3, #0
    10a4:	4798      	blx	r3
    10a6:	230b      	movs	r3, #11
    10a8:	18fb      	adds	r3, r7, r3
    10aa:	781b      	ldrb	r3, [r3, #0]
    10ac:	0018      	movs	r0, r3
    10ae:	f640 5337 	movw	r3, #3383	; 0xd37
    10b2:	f2c0 0300 	movt	r3, #0
    10b6:	4798      	blx	r3
    10b8:	0003      	movs	r3, r0
    10ba:	0018      	movs	r0, r3
    10bc:	f640 5337 	movw	r3, #3383	; 0xd37
    10c0:	f2c0 0300 	movt	r3, #0
    10c4:	4798      	blx	r3
    10c6:	230b      	movs	r3, #11
    10c8:	18fb      	adds	r3, r7, r3
    10ca:	781b      	ldrb	r3, [r3, #0]
    10cc:	0018      	movs	r0, r3
    10ce:	f640 5337 	movw	r3, #3383	; 0xd37
    10d2:	f2c0 0300 	movt	r3, #0
    10d6:	4798      	blx	r3
    10d8:	0003      	movs	r3, r0
    10da:	0018      	movs	r0, r3
    10dc:	f640 5337 	movw	r3, #3383	; 0xd37
    10e0:	f2c0 0300 	movt	r3, #0
    10e4:	4798      	blx	r3
    10e6:	0003      	movs	r3, r0
    10e8:	0018      	movs	r0, r3
    10ea:	f640 5337 	movw	r3, #3383	; 0xd37
    10ee:	f2c0 0300 	movt	r3, #0
    10f2:	4798      	blx	r3
    10f4:	0003      	movs	r3, r0
    10f6:	0018      	movs	r0, r3
    10f8:	f640 5337 	movw	r3, #3383	; 0xd37
    10fc:	f2c0 0300 	movt	r3, #0
    1100:	4798      	blx	r3
    1102:	230a      	movs	r3, #10
    1104:	18fb      	adds	r3, r7, r3
    1106:	781b      	ldrb	r3, [r3, #0]
    1108:	0018      	movs	r0, r3
    110a:	f640 5337 	movw	r3, #3383	; 0xd37
    110e:	f2c0 0300 	movt	r3, #0
    1112:	4798      	blx	r3
    1114:	0003      	movs	r3, r0
    1116:	0018      	movs	r0, r3
    1118:	f640 5337 	movw	r3, #3383	; 0xd37
    111c:	f2c0 0300 	movt	r3, #0
    1120:	4798      	blx	r3
    1122:	0003      	movs	r3, r0
    1124:	0018      	movs	r0, r3
    1126:	f640 5337 	movw	r3, #3383	; 0xd37
    112a:	f2c0 0300 	movt	r3, #0
    112e:	4798      	blx	r3
    1130:	0003      	movs	r3, r0
    1132:	0018      	movs	r0, r3
    1134:	f640 5337 	movw	r3, #3383	; 0xd37
    1138:	f2c0 0300 	movt	r3, #0
    113c:	4798      	blx	r3
    113e:	2309      	movs	r3, #9
    1140:	18fb      	adds	r3, r7, r3
    1142:	781b      	ldrb	r3, [r3, #0]
    1144:	0018      	movs	r0, r3
    1146:	f640 5337 	movw	r3, #3383	; 0xd37
    114a:	f2c0 0300 	movt	r3, #0
    114e:	4798      	blx	r3
    1150:	0003      	movs	r3, r0
    1152:	0018      	movs	r0, r3
    1154:	f640 5337 	movw	r3, #3383	; 0xd37
    1158:	f2c0 0300 	movt	r3, #0
    115c:	4798      	blx	r3
    115e:	2309      	movs	r3, #9
    1160:	18fb      	adds	r3, r7, r3
    1162:	781b      	ldrb	r3, [r3, #0]
    1164:	0018      	movs	r0, r3
    1166:	f640 5337 	movw	r3, #3383	; 0xd37
    116a:	f2c0 0300 	movt	r3, #0
    116e:	4798      	blx	r3
    1170:	0003      	movs	r3, r0
    1172:	0018      	movs	r0, r3
    1174:	f640 5337 	movw	r3, #3383	; 0xd37
    1178:	f2c0 0300 	movt	r3, #0
    117c:	4798      	blx	r3
    117e:	0003      	movs	r3, r0
    1180:	0018      	movs	r0, r3
    1182:	f640 5337 	movw	r3, #3383	; 0xd37
    1186:	f2c0 0300 	movt	r3, #0
    118a:	4798      	blx	r3
    118c:	0003      	movs	r3, r0
    118e:	0018      	movs	r0, r3
    1190:	f640 5337 	movw	r3, #3383	; 0xd37
    1194:	f2c0 0300 	movt	r3, #0
    1198:	4798      	blx	r3
    119a:	2308      	movs	r3, #8
    119c:	18fb      	adds	r3, r7, r3
    119e:	781b      	ldrb	r3, [r3, #0]
    11a0:	0018      	movs	r0, r3
    11a2:	f640 5337 	movw	r3, #3383	; 0xd37
    11a6:	f2c0 0300 	movt	r3, #0
    11aa:	4798      	blx	r3
    11ac:	2308      	movs	r3, #8
    11ae:	18fb      	adds	r3, r7, r3
    11b0:	781b      	ldrb	r3, [r3, #0]
    11b2:	0018      	movs	r0, r3
    11b4:	f640 5337 	movw	r3, #3383	; 0xd37
    11b8:	f2c0 0300 	movt	r3, #0
    11bc:	4798      	blx	r3
    11be:	0003      	movs	r3, r0
    11c0:	0018      	movs	r0, r3
    11c2:	f640 5337 	movw	r3, #3383	; 0xd37
    11c6:	f2c0 0300 	movt	r3, #0
    11ca:	4798      	blx	r3
    11cc:	0003      	movs	r3, r0
    11ce:	0018      	movs	r0, r3
    11d0:	f640 5337 	movw	r3, #3383	; 0xd37
    11d4:	f2c0 0300 	movt	r3, #0
    11d8:	4798      	blx	r3
    11da:	0003      	movs	r3, r0
    11dc:	0018      	movs	r0, r3
    11de:	f640 5337 	movw	r3, #3383	; 0xd37
    11e2:	f2c0 0300 	movt	r3, #0
    11e6:	4798      	blx	r3
    11e8:	230b      	movs	r3, #11
    11ea:	18fb      	adds	r3, r7, r3
    11ec:	781b      	ldrb	r3, [r3, #0]
    11ee:	0018      	movs	r0, r3
    11f0:	f640 5337 	movw	r3, #3383	; 0xd37
    11f4:	f2c0 0300 	movt	r3, #0
    11f8:	4798      	blx	r3
    11fa:	0003      	movs	r3, r0
    11fc:	0018      	movs	r0, r3
    11fe:	f640 5337 	movw	r3, #3383	; 0xd37
    1202:	f2c0 0300 	movt	r3, #0
    1206:	4798      	blx	r3
    1208:	0003      	movs	r3, r0
    120a:	0018      	movs	r0, r3
    120c:	f640 5337 	movw	r3, #3383	; 0xd37
    1210:	f2c0 0300 	movt	r3, #0
    1214:	4798      	blx	r3
    1216:	0003      	movs	r3, r0
    1218:	001a      	movs	r2, r3
    121a:	230b      	movs	r3, #11
    121c:	18fb      	adds	r3, r7, r3
    121e:	781b      	ldrb	r3, [r3, #0]
    1220:	4053      	eors	r3, r2
    1222:	b2dc      	uxtb	r4, r3
    1224:	230a      	movs	r3, #10
    1226:	18fb      	adds	r3, r7, r3
    1228:	781b      	ldrb	r3, [r3, #0]
    122a:	0018      	movs	r0, r3
    122c:	f640 5337 	movw	r3, #3383	; 0xd37
    1230:	f2c0 0300 	movt	r3, #0
    1234:	4798      	blx	r3
    1236:	0003      	movs	r3, r0
    1238:	001d      	movs	r5, r3
    123a:	230a      	movs	r3, #10
    123c:	18fb      	adds	r3, r7, r3
    123e:	781b      	ldrb	r3, [r3, #0]
    1240:	0018      	movs	r0, r3
    1242:	f640 5337 	movw	r3, #3383	; 0xd37
    1246:	f2c0 0300 	movt	r3, #0
    124a:	4798      	blx	r3
    124c:	0003      	movs	r3, r0
    124e:	0018      	movs	r0, r3
    1250:	f640 5337 	movw	r3, #3383	; 0xd37
    1254:	f2c0 0300 	movt	r3, #0
    1258:	4798      	blx	r3
    125a:	0003      	movs	r3, r0
    125c:	406b      	eors	r3, r5
    125e:	b2dd      	uxtb	r5, r3
    1260:	230a      	movs	r3, #10
    1262:	18fb      	adds	r3, r7, r3
    1264:	781b      	ldrb	r3, [r3, #0]
    1266:	0018      	movs	r0, r3
    1268:	f640 5337 	movw	r3, #3383	; 0xd37
    126c:	f2c0 0300 	movt	r3, #0
    1270:	4798      	blx	r3
    1272:	0003      	movs	r3, r0
    1274:	0018      	movs	r0, r3
    1276:	f640 5337 	movw	r3, #3383	; 0xd37
    127a:	f2c0 0300 	movt	r3, #0
    127e:	4798      	blx	r3
    1280:	0003      	movs	r3, r0
    1282:	0018      	movs	r0, r3
    1284:	f640 5337 	movw	r3, #3383	; 0xd37
    1288:	f2c0 0300 	movt	r3, #0
    128c:	4798      	blx	r3
    128e:	0003      	movs	r3, r0
    1290:	406b      	eors	r3, r5
    1292:	b2db      	uxtb	r3, r3
    1294:	4063      	eors	r3, r4
    1296:	b2dc      	uxtb	r4, r3
    1298:	2309      	movs	r3, #9
    129a:	18fb      	adds	r3, r7, r3
    129c:	781b      	ldrb	r3, [r3, #0]
    129e:	0018      	movs	r0, r3
    12a0:	f640 5337 	movw	r3, #3383	; 0xd37
    12a4:	f2c0 0300 	movt	r3, #0
    12a8:	4798      	blx	r3
    12aa:	0003      	movs	r3, r0
    12ac:	001a      	movs	r2, r3
    12ae:	2309      	movs	r3, #9
    12b0:	18fb      	adds	r3, r7, r3
    12b2:	781b      	ldrb	r3, [r3, #0]
    12b4:	4053      	eors	r3, r2
    12b6:	b2dd      	uxtb	r5, r3
    12b8:	2309      	movs	r3, #9
    12ba:	18fb      	adds	r3, r7, r3
    12bc:	781b      	ldrb	r3, [r3, #0]
    12be:	0018      	movs	r0, r3
    12c0:	f640 5337 	movw	r3, #3383	; 0xd37
    12c4:	f2c0 0300 	movt	r3, #0
    12c8:	4798      	blx	r3
    12ca:	0003      	movs	r3, r0
    12cc:	0018      	movs	r0, r3
    12ce:	f640 5337 	movw	r3, #3383	; 0xd37
    12d2:	f2c0 0300 	movt	r3, #0
    12d6:	4798      	blx	r3
    12d8:	0003      	movs	r3, r0
    12da:	0018      	movs	r0, r3
    12dc:	f640 5337 	movw	r3, #3383	; 0xd37
    12e0:	f2c0 0300 	movt	r3, #0
    12e4:	4798      	blx	r3
    12e6:	0003      	movs	r3, r0
    12e8:	406b      	eors	r3, r5
    12ea:	b2db      	uxtb	r3, r3
    12ec:	4063      	eors	r3, r4
    12ee:	b2dc      	uxtb	r4, r3
    12f0:	2308      	movs	r3, #8
    12f2:	18fb      	adds	r3, r7, r3
    12f4:	781b      	ldrb	r3, [r3, #0]
    12f6:	0018      	movs	r0, r3
    12f8:	f640 5337 	movw	r3, #3383	; 0xd37
    12fc:	f2c0 0300 	movt	r3, #0
    1300:	4798      	blx	r3
    1302:	0003      	movs	r3, r0
    1304:	0018      	movs	r0, r3
    1306:	f640 5337 	movw	r3, #3383	; 0xd37
    130a:	f2c0 0300 	movt	r3, #0
    130e:	4798      	blx	r3
    1310:	0003      	movs	r3, r0
    1312:	001a      	movs	r2, r3
    1314:	2308      	movs	r3, #8
    1316:	18fb      	adds	r3, r7, r3
    1318:	781b      	ldrb	r3, [r3, #0]
    131a:	4053      	eors	r3, r2
    131c:	b2dd      	uxtb	r5, r3
    131e:	2308      	movs	r3, #8
    1320:	18fb      	adds	r3, r7, r3
    1322:	781b      	ldrb	r3, [r3, #0]
    1324:	0018      	movs	r0, r3
    1326:	f640 5337 	movw	r3, #3383	; 0xd37
    132a:	f2c0 0300 	movt	r3, #0
    132e:	4798      	blx	r3
    1330:	0003      	movs	r3, r0
    1332:	0018      	movs	r0, r3
    1334:	f640 5337 	movw	r3, #3383	; 0xd37
    1338:	f2c0 0300 	movt	r3, #0
    133c:	4798      	blx	r3
    133e:	0003      	movs	r3, r0
    1340:	0018      	movs	r0, r3
    1342:	f640 5337 	movw	r3, #3383	; 0xd37
    1346:	f2c0 0300 	movt	r3, #0
    134a:	4798      	blx	r3
    134c:	0003      	movs	r3, r0
    134e:	406b      	eors	r3, r5
    1350:	b2db      	uxtb	r3, r3
    1352:	4063      	eors	r3, r4
    1354:	b2d9      	uxtb	r1, r3
    1356:	687a      	ldr	r2, [r7, #4]
    1358:	68fb      	ldr	r3, [r7, #12]
    135a:	009b      	lsls	r3, r3, #2
    135c:	18d3      	adds	r3, r2, r3
    135e:	3301      	adds	r3, #1
    1360:	1c0a      	adds	r2, r1, #0
    1362:	701a      	strb	r2, [r3, #0]
    1364:	230b      	movs	r3, #11
    1366:	18fb      	adds	r3, r7, r3
    1368:	781b      	ldrb	r3, [r3, #0]
    136a:	0018      	movs	r0, r3
    136c:	f640 5337 	movw	r3, #3383	; 0xd37
    1370:	f2c0 0300 	movt	r3, #0
    1374:	4798      	blx	r3
    1376:	230b      	movs	r3, #11
    1378:	18fb      	adds	r3, r7, r3
    137a:	781b      	ldrb	r3, [r3, #0]
    137c:	0018      	movs	r0, r3
    137e:	f640 5337 	movw	r3, #3383	; 0xd37
    1382:	f2c0 0300 	movt	r3, #0
    1386:	4798      	blx	r3
    1388:	0003      	movs	r3, r0
    138a:	0018      	movs	r0, r3
    138c:	f640 5337 	movw	r3, #3383	; 0xd37
    1390:	f2c0 0300 	movt	r3, #0
    1394:	4798      	blx	r3
    1396:	0003      	movs	r3, r0
    1398:	0018      	movs	r0, r3
    139a:	f640 5337 	movw	r3, #3383	; 0xd37
    139e:	f2c0 0300 	movt	r3, #0
    13a2:	4798      	blx	r3
    13a4:	0003      	movs	r3, r0
    13a6:	0018      	movs	r0, r3
    13a8:	f640 5337 	movw	r3, #3383	; 0xd37
    13ac:	f2c0 0300 	movt	r3, #0
    13b0:	4798      	blx	r3
    13b2:	230a      	movs	r3, #10
    13b4:	18fb      	adds	r3, r7, r3
    13b6:	781b      	ldrb	r3, [r3, #0]
    13b8:	0018      	movs	r0, r3
    13ba:	f640 5337 	movw	r3, #3383	; 0xd37
    13be:	f2c0 0300 	movt	r3, #0
    13c2:	4798      	blx	r3
    13c4:	230a      	movs	r3, #10
    13c6:	18fb      	adds	r3, r7, r3
    13c8:	781b      	ldrb	r3, [r3, #0]
    13ca:	0018      	movs	r0, r3
    13cc:	f640 5337 	movw	r3, #3383	; 0xd37
    13d0:	f2c0 0300 	movt	r3, #0
    13d4:	4798      	blx	r3
    13d6:	0003      	movs	r3, r0
    13d8:	0018      	movs	r0, r3
    13da:	f640 5337 	movw	r3, #3383	; 0xd37
    13de:	f2c0 0300 	movt	r3, #0
    13e2:	4798      	blx	r3
    13e4:	230a      	movs	r3, #10
    13e6:	18fb      	adds	r3, r7, r3
    13e8:	781b      	ldrb	r3, [r3, #0]
    13ea:	0018      	movs	r0, r3
    13ec:	f640 5337 	movw	r3, #3383	; 0xd37
    13f0:	f2c0 0300 	movt	r3, #0
    13f4:	4798      	blx	r3
    13f6:	0003      	movs	r3, r0
    13f8:	0018      	movs	r0, r3
    13fa:	f640 5337 	movw	r3, #3383	; 0xd37
    13fe:	f2c0 0300 	movt	r3, #0
    1402:	4798      	blx	r3
    1404:	0003      	movs	r3, r0
    1406:	0018      	movs	r0, r3
    1408:	f640 5337 	movw	r3, #3383	; 0xd37
    140c:	f2c0 0300 	movt	r3, #0
    1410:	4798      	blx	r3
    1412:	0003      	movs	r3, r0
    1414:	0018      	movs	r0, r3
    1416:	f640 5337 	movw	r3, #3383	; 0xd37
    141a:	f2c0 0300 	movt	r3, #0
    141e:	4798      	blx	r3
    1420:	2309      	movs	r3, #9
    1422:	18fb      	adds	r3, r7, r3
    1424:	781b      	ldrb	r3, [r3, #0]
    1426:	0018      	movs	r0, r3
    1428:	f640 5337 	movw	r3, #3383	; 0xd37
    142c:	f2c0 0300 	movt	r3, #0
    1430:	4798      	blx	r3
    1432:	0003      	movs	r3, r0
    1434:	0018      	movs	r0, r3
    1436:	f640 5337 	movw	r3, #3383	; 0xd37
    143a:	f2c0 0300 	movt	r3, #0
    143e:	4798      	blx	r3
    1440:	0003      	movs	r3, r0
    1442:	0018      	movs	r0, r3
    1444:	f640 5337 	movw	r3, #3383	; 0xd37
    1448:	f2c0 0300 	movt	r3, #0
    144c:	4798      	blx	r3
    144e:	0003      	movs	r3, r0
    1450:	0018      	movs	r0, r3
    1452:	f640 5337 	movw	r3, #3383	; 0xd37
    1456:	f2c0 0300 	movt	r3, #0
    145a:	4798      	blx	r3
    145c:	2308      	movs	r3, #8
    145e:	18fb      	adds	r3, r7, r3
    1460:	781b      	ldrb	r3, [r3, #0]
    1462:	0018      	movs	r0, r3
    1464:	f640 5337 	movw	r3, #3383	; 0xd37
    1468:	f2c0 0300 	movt	r3, #0
    146c:	4798      	blx	r3
    146e:	0003      	movs	r3, r0
    1470:	0018      	movs	r0, r3
    1472:	f640 5337 	movw	r3, #3383	; 0xd37
    1476:	f2c0 0300 	movt	r3, #0
    147a:	4798      	blx	r3
    147c:	2308      	movs	r3, #8
    147e:	18fb      	adds	r3, r7, r3
    1480:	781b      	ldrb	r3, [r3, #0]
    1482:	0018      	movs	r0, r3
    1484:	f640 5337 	movw	r3, #3383	; 0xd37
    1488:	f2c0 0300 	movt	r3, #0
    148c:	4798      	blx	r3
    148e:	0003      	movs	r3, r0
    1490:	0018      	movs	r0, r3
    1492:	f640 5337 	movw	r3, #3383	; 0xd37
    1496:	f2c0 0300 	movt	r3, #0
    149a:	4798      	blx	r3
    149c:	0003      	movs	r3, r0
    149e:	0018      	movs	r0, r3
    14a0:	f640 5337 	movw	r3, #3383	; 0xd37
    14a4:	f2c0 0300 	movt	r3, #0
    14a8:	4798      	blx	r3
    14aa:	0003      	movs	r3, r0
    14ac:	0018      	movs	r0, r3
    14ae:	f640 5337 	movw	r3, #3383	; 0xd37
    14b2:	f2c0 0300 	movt	r3, #0
    14b6:	4798      	blx	r3
    14b8:	230b      	movs	r3, #11
    14ba:	18fb      	adds	r3, r7, r3
    14bc:	781b      	ldrb	r3, [r3, #0]
    14be:	0018      	movs	r0, r3
    14c0:	f640 5337 	movw	r3, #3383	; 0xd37
    14c4:	f2c0 0300 	movt	r3, #0
    14c8:	4798      	blx	r3
    14ca:	0003      	movs	r3, r0
    14cc:	0018      	movs	r0, r3
    14ce:	f640 5337 	movw	r3, #3383	; 0xd37
    14d2:	f2c0 0300 	movt	r3, #0
    14d6:	4798      	blx	r3
    14d8:	0003      	movs	r3, r0
    14da:	001a      	movs	r2, r3
    14dc:	230b      	movs	r3, #11
    14de:	18fb      	adds	r3, r7, r3
    14e0:	781b      	ldrb	r3, [r3, #0]
    14e2:	4053      	eors	r3, r2
    14e4:	b2dc      	uxtb	r4, r3
    14e6:	230b      	movs	r3, #11
    14e8:	18fb      	adds	r3, r7, r3
    14ea:	781b      	ldrb	r3, [r3, #0]
    14ec:	0018      	movs	r0, r3
    14ee:	f640 5337 	movw	r3, #3383	; 0xd37
    14f2:	f2c0 0300 	movt	r3, #0
    14f6:	4798      	blx	r3
    14f8:	0003      	movs	r3, r0
    14fa:	0018      	movs	r0, r3
    14fc:	f640 5337 	movw	r3, #3383	; 0xd37
    1500:	f2c0 0300 	movt	r3, #0
    1504:	4798      	blx	r3
    1506:	0003      	movs	r3, r0
    1508:	0018      	movs	r0, r3
    150a:	f640 5337 	movw	r3, #3383	; 0xd37
    150e:	f2c0 0300 	movt	r3, #0
    1512:	4798      	blx	r3
    1514:	0003      	movs	r3, r0
    1516:	4063      	eors	r3, r4
    1518:	b2dc      	uxtb	r4, r3
    151a:	230a      	movs	r3, #10
    151c:	18fb      	adds	r3, r7, r3
    151e:	781b      	ldrb	r3, [r3, #0]
    1520:	0018      	movs	r0, r3
    1522:	f640 5337 	movw	r3, #3383	; 0xd37
    1526:	f2c0 0300 	movt	r3, #0
    152a:	4798      	blx	r3
    152c:	0003      	movs	r3, r0
    152e:	0018      	movs	r0, r3
    1530:	f640 5337 	movw	r3, #3383	; 0xd37
    1534:	f2c0 0300 	movt	r3, #0
    1538:	4798      	blx	r3
    153a:	0003      	movs	r3, r0
    153c:	0018      	movs	r0, r3
    153e:	f640 5337 	movw	r3, #3383	; 0xd37
    1542:	f2c0 0300 	movt	r3, #0
    1546:	4798      	blx	r3
    1548:	0003      	movs	r3, r0
    154a:	001a      	movs	r2, r3
    154c:	230a      	movs	r3, #10
    154e:	18fb      	adds	r3, r7, r3
    1550:	781b      	ldrb	r3, [r3, #0]
    1552:	4053      	eors	r3, r2
    1554:	b2db      	uxtb	r3, r3
    1556:	4063      	eors	r3, r4
    1558:	b2dc      	uxtb	r4, r3
    155a:	2309      	movs	r3, #9
    155c:	18fb      	adds	r3, r7, r3
    155e:	781b      	ldrb	r3, [r3, #0]
    1560:	0018      	movs	r0, r3
    1562:	f640 5337 	movw	r3, #3383	; 0xd37
    1566:	f2c0 0300 	movt	r3, #0
    156a:	4798      	blx	r3
    156c:	0003      	movs	r3, r0
    156e:	001d      	movs	r5, r3
    1570:	2309      	movs	r3, #9
    1572:	18fb      	adds	r3, r7, r3
    1574:	781b      	ldrb	r3, [r3, #0]
    1576:	0018      	movs	r0, r3
    1578:	f640 5337 	movw	r3, #3383	; 0xd37
    157c:	f2c0 0300 	movt	r3, #0
    1580:	4798      	blx	r3
    1582:	0003      	movs	r3, r0
    1584:	0018      	movs	r0, r3
    1586:	f640 5337 	movw	r3, #3383	; 0xd37
    158a:	f2c0 0300 	movt	r3, #0
    158e:	4798      	blx	r3
    1590:	0003      	movs	r3, r0
    1592:	406b      	eors	r3, r5
    1594:	b2dd      	uxtb	r5, r3
    1596:	2309      	movs	r3, #9
    1598:	18fb      	adds	r3, r7, r3
    159a:	781b      	ldrb	r3, [r3, #0]
    159c:	0018      	movs	r0, r3
    159e:	f640 5337 	movw	r3, #3383	; 0xd37
    15a2:	f2c0 0300 	movt	r3, #0
    15a6:	4798      	blx	r3
    15a8:	0003      	movs	r3, r0
    15aa:	0018      	movs	r0, r3
    15ac:	f640 5337 	movw	r3, #3383	; 0xd37
    15b0:	f2c0 0300 	movt	r3, #0
    15b4:	4798      	blx	r3
    15b6:	0003      	movs	r3, r0
    15b8:	0018      	movs	r0, r3
    15ba:	f640 5337 	movw	r3, #3383	; 0xd37
    15be:	f2c0 0300 	movt	r3, #0
    15c2:	4798      	blx	r3
    15c4:	0003      	movs	r3, r0
    15c6:	406b      	eors	r3, r5
    15c8:	b2db      	uxtb	r3, r3
    15ca:	4063      	eors	r3, r4
    15cc:	b2dc      	uxtb	r4, r3
    15ce:	2308      	movs	r3, #8
    15d0:	18fb      	adds	r3, r7, r3
    15d2:	781b      	ldrb	r3, [r3, #0]
    15d4:	0018      	movs	r0, r3
    15d6:	f640 5337 	movw	r3, #3383	; 0xd37
    15da:	f2c0 0300 	movt	r3, #0
    15de:	4798      	blx	r3
    15e0:	0003      	movs	r3, r0
    15e2:	001a      	movs	r2, r3
    15e4:	2308      	movs	r3, #8
    15e6:	18fb      	adds	r3, r7, r3
    15e8:	781b      	ldrb	r3, [r3, #0]
    15ea:	4053      	eors	r3, r2
    15ec:	b2dd      	uxtb	r5, r3
    15ee:	2308      	movs	r3, #8
    15f0:	18fb      	adds	r3, r7, r3
    15f2:	781b      	ldrb	r3, [r3, #0]
    15f4:	0018      	movs	r0, r3
    15f6:	f640 5337 	movw	r3, #3383	; 0xd37
    15fa:	f2c0 0300 	movt	r3, #0
    15fe:	4798      	blx	r3
    1600:	0003      	movs	r3, r0
    1602:	0018      	movs	r0, r3
    1604:	f640 5337 	movw	r3, #3383	; 0xd37
    1608:	f2c0 0300 	movt	r3, #0
    160c:	4798      	blx	r3
    160e:	0003      	movs	r3, r0
    1610:	0018      	movs	r0, r3
    1612:	f640 5337 	movw	r3, #3383	; 0xd37
    1616:	f2c0 0300 	movt	r3, #0
    161a:	4798      	blx	r3
    161c:	0003      	movs	r3, r0
    161e:	406b      	eors	r3, r5
    1620:	b2db      	uxtb	r3, r3
    1622:	4063      	eors	r3, r4
    1624:	b2d9      	uxtb	r1, r3
    1626:	687a      	ldr	r2, [r7, #4]
    1628:	68fb      	ldr	r3, [r7, #12]
    162a:	009b      	lsls	r3, r3, #2
    162c:	18d3      	adds	r3, r2, r3
    162e:	3302      	adds	r3, #2
    1630:	1c0a      	adds	r2, r1, #0
    1632:	701a      	strb	r2, [r3, #0]
    1634:	230b      	movs	r3, #11
    1636:	18fb      	adds	r3, r7, r3
    1638:	781b      	ldrb	r3, [r3, #0]
    163a:	0018      	movs	r0, r3
    163c:	f640 5337 	movw	r3, #3383	; 0xd37
    1640:	f2c0 0300 	movt	r3, #0
    1644:	4798      	blx	r3
    1646:	0003      	movs	r3, r0
    1648:	0018      	movs	r0, r3
    164a:	f640 5337 	movw	r3, #3383	; 0xd37
    164e:	f2c0 0300 	movt	r3, #0
    1652:	4798      	blx	r3
    1654:	230b      	movs	r3, #11
    1656:	18fb      	adds	r3, r7, r3
    1658:	781b      	ldrb	r3, [r3, #0]
    165a:	0018      	movs	r0, r3
    165c:	f640 5337 	movw	r3, #3383	; 0xd37
    1660:	f2c0 0300 	movt	r3, #0
    1664:	4798      	blx	r3
    1666:	0003      	movs	r3, r0
    1668:	0018      	movs	r0, r3
    166a:	f640 5337 	movw	r3, #3383	; 0xd37
    166e:	f2c0 0300 	movt	r3, #0
    1672:	4798      	blx	r3
    1674:	0003      	movs	r3, r0
    1676:	0018      	movs	r0, r3
    1678:	f640 5337 	movw	r3, #3383	; 0xd37
    167c:	f2c0 0300 	movt	r3, #0
    1680:	4798      	blx	r3
    1682:	0003      	movs	r3, r0
    1684:	0018      	movs	r0, r3
    1686:	f640 5337 	movw	r3, #3383	; 0xd37
    168a:	f2c0 0300 	movt	r3, #0
    168e:	4798      	blx	r3
    1690:	230a      	movs	r3, #10
    1692:	18fb      	adds	r3, r7, r3
    1694:	781b      	ldrb	r3, [r3, #0]
    1696:	0018      	movs	r0, r3
    1698:	f640 5337 	movw	r3, #3383	; 0xd37
    169c:	f2c0 0300 	movt	r3, #0
    16a0:	4798      	blx	r3
    16a2:	230a      	movs	r3, #10
    16a4:	18fb      	adds	r3, r7, r3
    16a6:	781b      	ldrb	r3, [r3, #0]
    16a8:	0018      	movs	r0, r3
    16aa:	f640 5337 	movw	r3, #3383	; 0xd37
    16ae:	f2c0 0300 	movt	r3, #0
    16b2:	4798      	blx	r3
    16b4:	0003      	movs	r3, r0
    16b6:	0018      	movs	r0, r3
    16b8:	f640 5337 	movw	r3, #3383	; 0xd37
    16bc:	f2c0 0300 	movt	r3, #0
    16c0:	4798      	blx	r3
    16c2:	0003      	movs	r3, r0
    16c4:	0018      	movs	r0, r3
    16c6:	f640 5337 	movw	r3, #3383	; 0xd37
    16ca:	f2c0 0300 	movt	r3, #0
    16ce:	4798      	blx	r3
    16d0:	0003      	movs	r3, r0
    16d2:	0018      	movs	r0, r3
    16d4:	f640 5337 	movw	r3, #3383	; 0xd37
    16d8:	f2c0 0300 	movt	r3, #0
    16dc:	4798      	blx	r3
    16de:	2309      	movs	r3, #9
    16e0:	18fb      	adds	r3, r7, r3
    16e2:	781b      	ldrb	r3, [r3, #0]
    16e4:	0018      	movs	r0, r3
    16e6:	f640 5337 	movw	r3, #3383	; 0xd37
    16ea:	f2c0 0300 	movt	r3, #0
    16ee:	4798      	blx	r3
    16f0:	2309      	movs	r3, #9
    16f2:	18fb      	adds	r3, r7, r3
    16f4:	781b      	ldrb	r3, [r3, #0]
    16f6:	0018      	movs	r0, r3
    16f8:	f640 5337 	movw	r3, #3383	; 0xd37
    16fc:	f2c0 0300 	movt	r3, #0
    1700:	4798      	blx	r3
    1702:	0003      	movs	r3, r0
    1704:	0018      	movs	r0, r3
    1706:	f640 5337 	movw	r3, #3383	; 0xd37
    170a:	f2c0 0300 	movt	r3, #0
    170e:	4798      	blx	r3
    1710:	2309      	movs	r3, #9
    1712:	18fb      	adds	r3, r7, r3
    1714:	781b      	ldrb	r3, [r3, #0]
    1716:	0018      	movs	r0, r3
    1718:	f640 5337 	movw	r3, #3383	; 0xd37
    171c:	f2c0 0300 	movt	r3, #0
    1720:	4798      	blx	r3
    1722:	0003      	movs	r3, r0
    1724:	0018      	movs	r0, r3
    1726:	f640 5337 	movw	r3, #3383	; 0xd37
    172a:	f2c0 0300 	movt	r3, #0
    172e:	4798      	blx	r3
    1730:	0003      	movs	r3, r0
    1732:	0018      	movs	r0, r3
    1734:	f640 5337 	movw	r3, #3383	; 0xd37
    1738:	f2c0 0300 	movt	r3, #0
    173c:	4798      	blx	r3
    173e:	0003      	movs	r3, r0
    1740:	0018      	movs	r0, r3
    1742:	f640 5337 	movw	r3, #3383	; 0xd37
    1746:	f2c0 0300 	movt	r3, #0
    174a:	4798      	blx	r3
    174c:	2308      	movs	r3, #8
    174e:	18fb      	adds	r3, r7, r3
    1750:	781b      	ldrb	r3, [r3, #0]
    1752:	0018      	movs	r0, r3
    1754:	f640 5337 	movw	r3, #3383	; 0xd37
    1758:	f2c0 0300 	movt	r3, #0
    175c:	4798      	blx	r3
    175e:	0003      	movs	r3, r0
    1760:	0018      	movs	r0, r3
    1762:	f640 5337 	movw	r3, #3383	; 0xd37
    1766:	f2c0 0300 	movt	r3, #0
    176a:	4798      	blx	r3
    176c:	0003      	movs	r3, r0
    176e:	0018      	movs	r0, r3
    1770:	f640 5337 	movw	r3, #3383	; 0xd37
    1774:	f2c0 0300 	movt	r3, #0
    1778:	4798      	blx	r3
    177a:	0003      	movs	r3, r0
    177c:	0018      	movs	r0, r3
    177e:	f640 5337 	movw	r3, #3383	; 0xd37
    1782:	f2c0 0300 	movt	r3, #0
    1786:	4798      	blx	r3
    1788:	230b      	movs	r3, #11
    178a:	18fb      	adds	r3, r7, r3
    178c:	781b      	ldrb	r3, [r3, #0]
    178e:	0018      	movs	r0, r3
    1790:	f640 5337 	movw	r3, #3383	; 0xd37
    1794:	f2c0 0300 	movt	r3, #0
    1798:	4798      	blx	r3
    179a:	0003      	movs	r3, r0
    179c:	001a      	movs	r2, r3
    179e:	230b      	movs	r3, #11
    17a0:	18fb      	adds	r3, r7, r3
    17a2:	781b      	ldrb	r3, [r3, #0]
    17a4:	4053      	eors	r3, r2
    17a6:	b2dc      	uxtb	r4, r3
    17a8:	230b      	movs	r3, #11
    17aa:	18fb      	adds	r3, r7, r3
    17ac:	781b      	ldrb	r3, [r3, #0]
    17ae:	0018      	movs	r0, r3
    17b0:	f640 5337 	movw	r3, #3383	; 0xd37
    17b4:	f2c0 0300 	movt	r3, #0
    17b8:	4798      	blx	r3
    17ba:	0003      	movs	r3, r0
    17bc:	0018      	movs	r0, r3
    17be:	f640 5337 	movw	r3, #3383	; 0xd37
    17c2:	f2c0 0300 	movt	r3, #0
    17c6:	4798      	blx	r3
    17c8:	0003      	movs	r3, r0
    17ca:	0018      	movs	r0, r3
    17cc:	f640 5337 	movw	r3, #3383	; 0xd37
    17d0:	f2c0 0300 	movt	r3, #0
    17d4:	4798      	blx	r3
    17d6:	0003      	movs	r3, r0
    17d8:	4063      	eors	r3, r4
    17da:	b2dc      	uxtb	r4, r3
    17dc:	230a      	movs	r3, #10
    17de:	18fb      	adds	r3, r7, r3
    17e0:	781b      	ldrb	r3, [r3, #0]
    17e2:	0018      	movs	r0, r3
    17e4:	f640 5337 	movw	r3, #3383	; 0xd37
    17e8:	f2c0 0300 	movt	r3, #0
    17ec:	4798      	blx	r3
    17ee:	0003      	movs	r3, r0
    17f0:	0018      	movs	r0, r3
    17f2:	f640 5337 	movw	r3, #3383	; 0xd37
    17f6:	f2c0 0300 	movt	r3, #0
    17fa:	4798      	blx	r3
    17fc:	0003      	movs	r3, r0
    17fe:	001a      	movs	r2, r3
    1800:	230a      	movs	r3, #10
    1802:	18fb      	adds	r3, r7, r3
    1804:	781b      	ldrb	r3, [r3, #0]
    1806:	4053      	eors	r3, r2
    1808:	b2dd      	uxtb	r5, r3
    180a:	230a      	movs	r3, #10
    180c:	18fb      	adds	r3, r7, r3
    180e:	781b      	ldrb	r3, [r3, #0]
    1810:	0018      	movs	r0, r3
    1812:	f640 5337 	movw	r3, #3383	; 0xd37
    1816:	f2c0 0300 	movt	r3, #0
    181a:	4798      	blx	r3
    181c:	0003      	movs	r3, r0
    181e:	0018      	movs	r0, r3
    1820:	f640 5337 	movw	r3, #3383	; 0xd37
    1824:	f2c0 0300 	movt	r3, #0
    1828:	4798      	blx	r3
    182a:	0003      	movs	r3, r0
    182c:	0018      	movs	r0, r3
    182e:	f640 5337 	movw	r3, #3383	; 0xd37
    1832:	f2c0 0300 	movt	r3, #0
    1836:	4798      	blx	r3
    1838:	0003      	movs	r3, r0
    183a:	406b      	eors	r3, r5
    183c:	b2db      	uxtb	r3, r3
    183e:	4063      	eors	r3, r4
    1840:	b2dc      	uxtb	r4, r3
    1842:	2309      	movs	r3, #9
    1844:	18fb      	adds	r3, r7, r3
    1846:	781b      	ldrb	r3, [r3, #0]
    1848:	0018      	movs	r0, r3
    184a:	f640 5337 	movw	r3, #3383	; 0xd37
    184e:	f2c0 0300 	movt	r3, #0
    1852:	4798      	blx	r3
    1854:	0003      	movs	r3, r0
    1856:	0018      	movs	r0, r3
    1858:	f640 5337 	movw	r3, #3383	; 0xd37
    185c:	f2c0 0300 	movt	r3, #0
    1860:	4798      	blx	r3
    1862:	0003      	movs	r3, r0
    1864:	0018      	movs	r0, r3
    1866:	f640 5337 	movw	r3, #3383	; 0xd37
    186a:	f2c0 0300 	movt	r3, #0
    186e:	4798      	blx	r3
    1870:	0003      	movs	r3, r0
    1872:	001a      	movs	r2, r3
    1874:	2309      	movs	r3, #9
    1876:	18fb      	adds	r3, r7, r3
    1878:	781b      	ldrb	r3, [r3, #0]
    187a:	4053      	eors	r3, r2
    187c:	b2db      	uxtb	r3, r3
    187e:	4063      	eors	r3, r4
    1880:	b2dc      	uxtb	r4, r3
    1882:	2308      	movs	r3, #8
    1884:	18fb      	adds	r3, r7, r3
    1886:	781b      	ldrb	r3, [r3, #0]
    1888:	0018      	movs	r0, r3
    188a:	f640 5337 	movw	r3, #3383	; 0xd37
    188e:	f2c0 0300 	movt	r3, #0
    1892:	4798      	blx	r3
    1894:	0003      	movs	r3, r0
    1896:	001d      	movs	r5, r3
    1898:	2308      	movs	r3, #8
    189a:	18fb      	adds	r3, r7, r3
    189c:	781b      	ldrb	r3, [r3, #0]
    189e:	0018      	movs	r0, r3
    18a0:	f640 5337 	movw	r3, #3383	; 0xd37
    18a4:	f2c0 0300 	movt	r3, #0
    18a8:	4798      	blx	r3
    18aa:	0003      	movs	r3, r0
    18ac:	0018      	movs	r0, r3
    18ae:	f640 5337 	movw	r3, #3383	; 0xd37
    18b2:	f2c0 0300 	movt	r3, #0
    18b6:	4798      	blx	r3
    18b8:	0003      	movs	r3, r0
    18ba:	406b      	eors	r3, r5
    18bc:	b2dd      	uxtb	r5, r3
    18be:	2308      	movs	r3, #8
    18c0:	18fb      	adds	r3, r7, r3
    18c2:	781b      	ldrb	r3, [r3, #0]
    18c4:	0018      	movs	r0, r3
    18c6:	f640 5337 	movw	r3, #3383	; 0xd37
    18ca:	f2c0 0300 	movt	r3, #0
    18ce:	4798      	blx	r3
    18d0:	0003      	movs	r3, r0
    18d2:	0018      	movs	r0, r3
    18d4:	f640 5337 	movw	r3, #3383	; 0xd37
    18d8:	f2c0 0300 	movt	r3, #0
    18dc:	4798      	blx	r3
    18de:	0003      	movs	r3, r0
    18e0:	0018      	movs	r0, r3
    18e2:	f640 5337 	movw	r3, #3383	; 0xd37
    18e6:	f2c0 0300 	movt	r3, #0
    18ea:	4798      	blx	r3
    18ec:	0003      	movs	r3, r0
    18ee:	406b      	eors	r3, r5
    18f0:	b2db      	uxtb	r3, r3
    18f2:	4063      	eors	r3, r4
    18f4:	b2d9      	uxtb	r1, r3
    18f6:	687a      	ldr	r2, [r7, #4]
    18f8:	68fb      	ldr	r3, [r7, #12]
    18fa:	009b      	lsls	r3, r3, #2
    18fc:	18d3      	adds	r3, r2, r3
    18fe:	3303      	adds	r3, #3
    1900:	1c0a      	adds	r2, r1, #0
    1902:	701a      	strb	r2, [r3, #0]
    1904:	68fb      	ldr	r3, [r7, #12]
    1906:	3301      	adds	r3, #1
    1908:	60fb      	str	r3, [r7, #12]
    190a:	68fb      	ldr	r3, [r7, #12]
    190c:	2b03      	cmp	r3, #3
    190e:	dc01      	bgt.n	1914 <InvMixColumns+0xb9e>
    1910:	f7ff fa39 	bl	d86 <InvMixColumns+0x10>
    1914:	46c0      	nop			; (mov r8, r8)
    1916:	46bd      	mov	sp, r7
    1918:	b004      	add	sp, #16
    191a:	bdb0      	pop	{r4, r5, r7, pc}

0000191c <InvSubBytes>:
    191c:	b590      	push	{r4, r7, lr}
    191e:	b085      	sub	sp, #20
    1920:	af00      	add	r7, sp, #0
    1922:	6078      	str	r0, [r7, #4]
    1924:	230f      	movs	r3, #15
    1926:	18fb      	adds	r3, r7, r3
    1928:	2200      	movs	r2, #0
    192a:	701a      	strb	r2, [r3, #0]
    192c:	e032      	b.n	1994 <InvSubBytes+0x78>
    192e:	230e      	movs	r3, #14
    1930:	18fb      	adds	r3, r7, r3
    1932:	2200      	movs	r2, #0
    1934:	701a      	strb	r2, [r3, #0]
    1936:	e021      	b.n	197c <InvSubBytes+0x60>
    1938:	230e      	movs	r3, #14
    193a:	18fb      	adds	r3, r7, r3
    193c:	7818      	ldrb	r0, [r3, #0]
    193e:	230f      	movs	r3, #15
    1940:	18fb      	adds	r3, r7, r3
    1942:	781a      	ldrb	r2, [r3, #0]
    1944:	230e      	movs	r3, #14
    1946:	18fb      	adds	r3, r7, r3
    1948:	7819      	ldrb	r1, [r3, #0]
    194a:	230f      	movs	r3, #15
    194c:	18fb      	adds	r3, r7, r3
    194e:	781b      	ldrb	r3, [r3, #0]
    1950:	687c      	ldr	r4, [r7, #4]
    1952:	0089      	lsls	r1, r1, #2
    1954:	1861      	adds	r1, r4, r1
    1956:	5ccb      	ldrb	r3, [r1, r3]
    1958:	0019      	movs	r1, r3
    195a:	f641 5340 	movw	r3, #7488	; 0x1d40
    195e:	f2c0 0300 	movt	r3, #0
    1962:	5c5c      	ldrb	r4, [r3, r1]
    1964:	6879      	ldr	r1, [r7, #4]
    1966:	0083      	lsls	r3, r0, #2
    1968:	18cb      	adds	r3, r1, r3
    196a:	1c21      	adds	r1, r4, #0
    196c:	5499      	strb	r1, [r3, r2]
    196e:	230e      	movs	r3, #14
    1970:	18fb      	adds	r3, r7, r3
    1972:	220e      	movs	r2, #14
    1974:	18ba      	adds	r2, r7, r2
    1976:	7812      	ldrb	r2, [r2, #0]
    1978:	3201      	adds	r2, #1
    197a:	701a      	strb	r2, [r3, #0]
    197c:	230e      	movs	r3, #14
    197e:	18fb      	adds	r3, r7, r3
    1980:	781b      	ldrb	r3, [r3, #0]
    1982:	2b03      	cmp	r3, #3
    1984:	d9d8      	bls.n	1938 <InvSubBytes+0x1c>
    1986:	230f      	movs	r3, #15
    1988:	18fb      	adds	r3, r7, r3
    198a:	220f      	movs	r2, #15
    198c:	18ba      	adds	r2, r7, r2
    198e:	7812      	ldrb	r2, [r2, #0]
    1990:	3201      	adds	r2, #1
    1992:	701a      	strb	r2, [r3, #0]
    1994:	230f      	movs	r3, #15
    1996:	18fb      	adds	r3, r7, r3
    1998:	781b      	ldrb	r3, [r3, #0]
    199a:	2b03      	cmp	r3, #3
    199c:	d9c7      	bls.n	192e <InvSubBytes+0x12>
    199e:	46c0      	nop			; (mov r8, r8)
    19a0:	46bd      	mov	sp, r7
    19a2:	b005      	add	sp, #20
    19a4:	bd90      	pop	{r4, r7, pc}

000019a6 <InvShiftRows>:
    19a6:	b580      	push	{r7, lr}
    19a8:	b084      	sub	sp, #16
    19aa:	af00      	add	r7, sp, #0
    19ac:	6078      	str	r0, [r7, #4]
    19ae:	230f      	movs	r3, #15
    19b0:	18fb      	adds	r3, r7, r3
    19b2:	687a      	ldr	r2, [r7, #4]
    19b4:	7b52      	ldrb	r2, [r2, #13]
    19b6:	701a      	strb	r2, [r3, #0]
    19b8:	687b      	ldr	r3, [r7, #4]
    19ba:	7a5a      	ldrb	r2, [r3, #9]
    19bc:	687b      	ldr	r3, [r7, #4]
    19be:	735a      	strb	r2, [r3, #13]
    19c0:	687b      	ldr	r3, [r7, #4]
    19c2:	795a      	ldrb	r2, [r3, #5]
    19c4:	687b      	ldr	r3, [r7, #4]
    19c6:	725a      	strb	r2, [r3, #9]
    19c8:	687b      	ldr	r3, [r7, #4]
    19ca:	785a      	ldrb	r2, [r3, #1]
    19cc:	687b      	ldr	r3, [r7, #4]
    19ce:	715a      	strb	r2, [r3, #5]
    19d0:	687b      	ldr	r3, [r7, #4]
    19d2:	220f      	movs	r2, #15
    19d4:	18ba      	adds	r2, r7, r2
    19d6:	7812      	ldrb	r2, [r2, #0]
    19d8:	705a      	strb	r2, [r3, #1]
    19da:	230f      	movs	r3, #15
    19dc:	18fb      	adds	r3, r7, r3
    19de:	687a      	ldr	r2, [r7, #4]
    19e0:	7892      	ldrb	r2, [r2, #2]
    19e2:	701a      	strb	r2, [r3, #0]
    19e4:	687b      	ldr	r3, [r7, #4]
    19e6:	7a9a      	ldrb	r2, [r3, #10]
    19e8:	687b      	ldr	r3, [r7, #4]
    19ea:	709a      	strb	r2, [r3, #2]
    19ec:	687b      	ldr	r3, [r7, #4]
    19ee:	220f      	movs	r2, #15
    19f0:	18ba      	adds	r2, r7, r2
    19f2:	7812      	ldrb	r2, [r2, #0]
    19f4:	729a      	strb	r2, [r3, #10]
    19f6:	230f      	movs	r3, #15
    19f8:	18fb      	adds	r3, r7, r3
    19fa:	687a      	ldr	r2, [r7, #4]
    19fc:	7992      	ldrb	r2, [r2, #6]
    19fe:	701a      	strb	r2, [r3, #0]
    1a00:	687b      	ldr	r3, [r7, #4]
    1a02:	7b9a      	ldrb	r2, [r3, #14]
    1a04:	687b      	ldr	r3, [r7, #4]
    1a06:	719a      	strb	r2, [r3, #6]
    1a08:	687b      	ldr	r3, [r7, #4]
    1a0a:	220f      	movs	r2, #15
    1a0c:	18ba      	adds	r2, r7, r2
    1a0e:	7812      	ldrb	r2, [r2, #0]
    1a10:	739a      	strb	r2, [r3, #14]
    1a12:	230f      	movs	r3, #15
    1a14:	18fb      	adds	r3, r7, r3
    1a16:	687a      	ldr	r2, [r7, #4]
    1a18:	78d2      	ldrb	r2, [r2, #3]
    1a1a:	701a      	strb	r2, [r3, #0]
    1a1c:	687b      	ldr	r3, [r7, #4]
    1a1e:	79da      	ldrb	r2, [r3, #7]
    1a20:	687b      	ldr	r3, [r7, #4]
    1a22:	70da      	strb	r2, [r3, #3]
    1a24:	687b      	ldr	r3, [r7, #4]
    1a26:	7ada      	ldrb	r2, [r3, #11]
    1a28:	687b      	ldr	r3, [r7, #4]
    1a2a:	71da      	strb	r2, [r3, #7]
    1a2c:	687b      	ldr	r3, [r7, #4]
    1a2e:	7bda      	ldrb	r2, [r3, #15]
    1a30:	687b      	ldr	r3, [r7, #4]
    1a32:	72da      	strb	r2, [r3, #11]
    1a34:	687b      	ldr	r3, [r7, #4]
    1a36:	220f      	movs	r2, #15
    1a38:	18ba      	adds	r2, r7, r2
    1a3a:	7812      	ldrb	r2, [r2, #0]
    1a3c:	73da      	strb	r2, [r3, #15]
    1a3e:	46c0      	nop			; (mov r8, r8)
    1a40:	46bd      	mov	sp, r7
    1a42:	b004      	add	sp, #16
    1a44:	bd80      	pop	{r7, pc}

00001a46 <InvCipher>:
    1a46:	b580      	push	{r7, lr}
    1a48:	b084      	sub	sp, #16
    1a4a:	af00      	add	r7, sp, #0
    1a4c:	6078      	str	r0, [r7, #4]
    1a4e:	6039      	str	r1, [r7, #0]
    1a50:	230f      	movs	r3, #15
    1a52:	18fb      	adds	r3, r7, r3
    1a54:	2200      	movs	r2, #0
    1a56:	701a      	strb	r2, [r3, #0]
    1a58:	683a      	ldr	r2, [r7, #0]
    1a5a:	687b      	ldr	r3, [r7, #4]
    1a5c:	0019      	movs	r1, r3
    1a5e:	200e      	movs	r0, #14
    1a60:	f640 4389 	movw	r3, #3209	; 0xc89
    1a64:	f2c0 0300 	movt	r3, #0
    1a68:	4798      	blx	r3
    1a6a:	230f      	movs	r3, #15
    1a6c:	18fb      	adds	r3, r7, r3
    1a6e:	220d      	movs	r2, #13
    1a70:	701a      	strb	r2, [r3, #0]
    1a72:	687b      	ldr	r3, [r7, #4]
    1a74:	0018      	movs	r0, r3
    1a76:	f641 13a7 	movw	r3, #6567	; 0x19a7
    1a7a:	f2c0 0300 	movt	r3, #0
    1a7e:	4798      	blx	r3
    1a80:	687b      	ldr	r3, [r7, #4]
    1a82:	0018      	movs	r0, r3
    1a84:	f641 131d 	movw	r3, #6429	; 0x191d
    1a88:	f2c0 0300 	movt	r3, #0
    1a8c:	4798      	blx	r3
    1a8e:	683a      	ldr	r2, [r7, #0]
    1a90:	6879      	ldr	r1, [r7, #4]
    1a92:	230f      	movs	r3, #15
    1a94:	18fb      	adds	r3, r7, r3
    1a96:	781b      	ldrb	r3, [r3, #0]
    1a98:	0018      	movs	r0, r3
    1a9a:	f640 4389 	movw	r3, #3209	; 0xc89
    1a9e:	f2c0 0300 	movt	r3, #0
    1aa2:	4798      	blx	r3
    1aa4:	230f      	movs	r3, #15
    1aa6:	18fb      	adds	r3, r7, r3
    1aa8:	781b      	ldrb	r3, [r3, #0]
    1aaa:	b173      	cbz	r3, 1aca <InvCipher+0x84>
    1aac:	687b      	ldr	r3, [r7, #4]
    1aae:	0018      	movs	r0, r3
    1ab0:	f640 5377 	movw	r3, #3447	; 0xd77
    1ab4:	f2c0 0300 	movt	r3, #0
    1ab8:	4798      	blx	r3
    1aba:	230f      	movs	r3, #15
    1abc:	18fb      	adds	r3, r7, r3
    1abe:	220f      	movs	r2, #15
    1ac0:	18ba      	adds	r2, r7, r2
    1ac2:	7812      	ldrb	r2, [r2, #0]
    1ac4:	3a01      	subs	r2, #1
    1ac6:	701a      	strb	r2, [r3, #0]
    1ac8:	e7d3      	b.n	1a72 <InvCipher+0x2c>
    1aca:	46c0      	nop			; (mov r8, r8)
    1acc:	46c0      	nop			; (mov r8, r8)
    1ace:	46bd      	mov	sp, r7
    1ad0:	b004      	add	sp, #16
    1ad2:	bd80      	pop	{r7, pc}

00001ad4 <AES_decrypt>:
    1ad4:	b580      	push	{r7, lr}
    1ad6:	b082      	sub	sp, #8
    1ad8:	af00      	add	r7, sp, #0
    1ada:	6078      	str	r0, [r7, #4]
    1adc:	6039      	str	r1, [r7, #0]
    1ade:	687a      	ldr	r2, [r7, #4]
    1ae0:	683b      	ldr	r3, [r7, #0]
    1ae2:	0011      	movs	r1, r2
    1ae4:	0018      	movs	r0, r3
    1ae6:	f641 2347 	movw	r3, #6727	; 0x1a47
    1aea:	f2c0 0300 	movt	r3, #0
    1aee:	4798      	blx	r3
    1af0:	46c0      	nop			; (mov r8, r8)
    1af2:	46bd      	mov	sp, r7
    1af4:	b002      	add	sp, #8
    1af6:	bd80      	pop	{r7, pc}

00001af8 <test_AES_decrypt>:
    1af8:	b590      	push	{r4, r7, lr}
    1afa:	b0d1      	sub	sp, #324	; 0x144
    1afc:	af00      	add	r7, sp, #0
    1afe:	f240 1320 	movw	r3, #288	; 0x120
    1b02:	18fb      	adds	r3, r7, r3
    1b04:	f641 624c 	movw	r2, #7756	; 0x1e4c
    1b08:	f2c0 0200 	movt	r2, #0
    1b0c:	ca13      	ldmia	r2!, {r0, r1, r4}
    1b0e:	c313      	stmia	r3!, {r0, r1, r4}
    1b10:	ca13      	ldmia	r2!, {r0, r1, r4}
    1b12:	c313      	stmia	r3!, {r0, r1, r4}
    1b14:	ca03      	ldmia	r2!, {r0, r1}
    1b16:	c303      	stmia	r3!, {r0, r1}
    1b18:	f240 1310 	movw	r3, #272	; 0x110
    1b1c:	18fa      	adds	r2, r7, r3
    1b1e:	f641 636c 	movw	r3, #7788	; 0x1e6c
    1b22:	f2c0 0300 	movt	r3, #0
    1b26:	cb13      	ldmia	r3!, {r0, r1, r4}
    1b28:	c213      	stmia	r2!, {r0, r1, r4}
    1b2a:	681b      	ldr	r3, [r3, #0]
    1b2c:	6013      	str	r3, [r2, #0]
    1b2e:	1c7a      	adds	r2, r7, #1
    1b30:	32ff      	adds	r2, #255	; 0xff
    1b32:	f641 637c 	movw	r3, #7804	; 0x1e7c
    1b36:	f2c0 0300 	movt	r3, #0
    1b3a:	cb13      	ldmia	r3!, {r0, r1, r4}
    1b3c:	c213      	stmia	r2!, {r0, r1, r4}
    1b3e:	681b      	ldr	r3, [r3, #0]
    1b40:	6013      	str	r3, [r2, #0]
    1b42:	f240 1310 	movw	r3, #272	; 0x110
    1b46:	18fb      	adds	r3, r7, r3
    1b48:	0018      	movs	r0, r3
    1b4a:	f640 1387 	movw	r3, #2439	; 0x987
    1b4e:	f2c0 0300 	movt	r3, #0
    1b52:	4798      	blx	r3
    1b54:	f240 1320 	movw	r3, #288	; 0x120
    1b58:	18fb      	adds	r3, r7, r3
    1b5a:	0018      	movs	r0, r3
    1b5c:	f640 1387 	movw	r3, #2439	; 0x987
    1b60:	f2c0 0300 	movt	r3, #0
    1b64:	4798      	blx	r3
    1b66:	f240 1320 	movw	r3, #288	; 0x120
    1b6a:	18fa      	adds	r2, r7, r3
    1b6c:	003b      	movs	r3, r7
    1b6e:	0011      	movs	r1, r2
    1b70:	0018      	movs	r0, r3
    1b72:	f640 4365 	movw	r3, #3173	; 0xc65
    1b76:	f2c0 0300 	movt	r3, #0
    1b7a:	4798      	blx	r3
    1b7c:	f240 1310 	movw	r3, #272	; 0x110
    1b80:	18fa      	adds	r2, r7, r3
    1b82:	003b      	movs	r3, r7
    1b84:	0011      	movs	r1, r2
    1b86:	0018      	movs	r0, r3
    1b88:	f641 23d5 	movw	r3, #6869	; 0x1ad5
    1b8c:	f2c0 0300 	movt	r3, #0
    1b90:	4798      	blx	r3
    1b92:	f240 1310 	movw	r3, #272	; 0x110
    1b96:	18f9      	adds	r1, r7, r3
    1b98:	1c7b      	adds	r3, r7, #1
    1b9a:	33ff      	adds	r3, #255	; 0xff
    1b9c:	2210      	movs	r2, #16
    1b9e:	0018      	movs	r0, r3
    1ba0:	f641 4321 	movw	r3, #7201	; 0x1c21
    1ba4:	f2c0 0300 	movt	r3, #0
    1ba8:	4798      	blx	r3
    1baa:	0003      	movs	r3, r0
    1bac:	b953      	cbnz	r3, 1bc4 <test_AES_decrypt+0xcc>
    1bae:	f240 1310 	movw	r3, #272	; 0x110
    1bb2:	18fb      	adds	r3, r7, r3
    1bb4:	0018      	movs	r0, r3
    1bb6:	f640 1387 	movw	r3, #2439	; 0x987
    1bba:	f2c0 0300 	movt	r3, #0
    1bbe:	4798      	blx	r3
    1bc0:	2300      	movs	r3, #0
    1bc2:	e000      	b.n	1bc6 <test_AES_decrypt+0xce>
    1bc4:	2301      	movs	r3, #1
    1bc6:	0018      	movs	r0, r3
    1bc8:	46bd      	mov	sp, r7
    1bca:	b051      	add	sp, #324	; 0x144
    1bcc:	bd90      	pop	{r4, r7, pc}
	...

00001bd0 <__libc_init_array>:
    1bd0:	b570      	push	{r4, r5, r6, lr}
    1bd2:	2500      	movs	r5, #0
    1bd4:	4b0e      	ldr	r3, [pc, #56]	; (1c10 <__libc_init_array+0x40>)
    1bd6:	4c0f      	ldr	r4, [pc, #60]	; (1c14 <__libc_init_array+0x44>)
    1bd8:	1ae4      	subs	r4, r4, r3
    1bda:	10a4      	asrs	r4, r4, #2
    1bdc:	42a5      	cmp	r5, r4
    1bde:	d109      	bne.n	1bf4 <__libc_init_array+0x24>
    1be0:	2500      	movs	r5, #0
    1be2:	f000 f953 	bl	1e8c <_init>
    1be6:	4c0c      	ldr	r4, [pc, #48]	; (1c18 <__libc_init_array+0x48>)
    1be8:	4b0c      	ldr	r3, [pc, #48]	; (1c1c <__libc_init_array+0x4c>)
    1bea:	1ae4      	subs	r4, r4, r3
    1bec:	10a4      	asrs	r4, r4, #2
    1bee:	42a5      	cmp	r5, r4
    1bf0:	d107      	bne.n	1c02 <__libc_init_array+0x32>
    1bf2:	bd70      	pop	{r4, r5, r6, pc}
    1bf4:	4a06      	ldr	r2, [pc, #24]	; (1c10 <__libc_init_array+0x40>)
    1bf6:	00ab      	lsls	r3, r5, #2
    1bf8:	189b      	adds	r3, r3, r2
    1bfa:	681b      	ldr	r3, [r3, #0]
    1bfc:	4798      	blx	r3
    1bfe:	3501      	adds	r5, #1
    1c00:	e7ec      	b.n	1bdc <__libc_init_array+0xc>
    1c02:	4a06      	ldr	r2, [pc, #24]	; (1c1c <__libc_init_array+0x4c>)
    1c04:	00ab      	lsls	r3, r5, #2
    1c06:	189b      	adds	r3, r3, r2
    1c08:	681b      	ldr	r3, [r3, #0]
    1c0a:	4798      	blx	r3
    1c0c:	3501      	adds	r5, #1
    1c0e:	e7ee      	b.n	1bee <__libc_init_array+0x1e>
    1c10:	00001e98 	.word	0x00001e98
    1c14:	00001e98 	.word	0x00001e98
    1c18:	00001e9c 	.word	0x00001e9c
    1c1c:	00001e98 	.word	0x00001e98

00001c20 <memcmp>:
    1c20:	b530      	push	{r4, r5, lr}
    1c22:	2400      	movs	r4, #0
    1c24:	42a2      	cmp	r2, r4
    1c26:	d101      	bne.n	1c2c <memcmp+0xc>
    1c28:	2000      	movs	r0, #0
    1c2a:	e005      	b.n	1c38 <memcmp+0x18>
    1c2c:	5d03      	ldrb	r3, [r0, r4]
    1c2e:	1c65      	adds	r5, r4, #1
    1c30:	5d0c      	ldrb	r4, [r1, r4]
    1c32:	42a3      	cmp	r3, r4
    1c34:	d001      	beq.n	1c3a <memcmp+0x1a>
    1c36:	1b18      	subs	r0, r3, r4
    1c38:	bd30      	pop	{r4, r5, pc}
    1c3a:	002c      	movs	r4, r5
    1c3c:	e7f2      	b.n	1c24 <memcmp+0x4>
	...

00001c40 <sbox>:
    1c40:	7c63 7b77 6bf2 c56f 0130 2b67 d7fe 76ab     c|w{.ko.0.g+...v
    1c50:	82ca 7dc9 59fa f047 d4ad afa2 a49c c072     ...}.YG.......r.
    1c60:	fdb7 2693 3f36 ccf7 a534 f1e5 d871 1531     ...&6?..4...q.1.
    1c70:	c704 c323 9618 9a05 1207 e280 27eb 75b2     ..#..........'.u
    1c80:	8309 1a2c 6e1b a05a 3b52 b3d6 e329 842f     ..,..nZ.R;..)./.
    1c90:	d153 ed00 fc20 5bb1 cb6a 39be 4c4a cf58     S... ..[j..9JLX.
    1ca0:	efd0 fbaa 4d43 8533 f945 7f02 3c50 a89f     ....CM3.E...P<..
    1cb0:	a351 8f40 9d92 f538 b6bc 21da ff10 d2f3     Q.@...8....!....
    1cc0:	0ccd ec13 975f 1744 a7c4 3d7e 5d64 7319     ...._.D...~=d].s
    1cd0:	8160 dc4f 2a22 8890 ee46 14b8 5ede db0b     `.O."*..F....^..
    1ce0:	32e0 0a3a 0649 5c24 d3c2 62ac 9591 79e4     .2:.I.$\...b...y
    1cf0:	c8e7 6d37 d58d a94e 566c eaf4 7a65 08ae     ..7m..N.lV..ez..
    1d00:	78ba 2e25 a61c c6b4 dde8 1f74 bd4b 8a8b     .x%.......t.K...
    1d10:	3e70 66b5 0348 0ef6 3561 b957 c186 9e1d     p>.fH...a5W.....
    1d20:	f8e1 1198 d969 948e 1e9b e987 55ce df28     ....i........U(.
    1d30:	a18c 0d89 e6bf 6842 9941 0f2d 54b0 16bb     ......BhA.-..T..

00001d40 <rsbox>:
    1d40:	0952 d56a 3630 38a5 40bf 9ea3 f381 fbd7     R.j.06.8.@......
    1d50:	e37c 8239 2f9b 87ff 8e34 4443 dec4 cbe9     |.9../..4.CD....
    1d60:	7b54 3294 c2a6 3d23 4cee 0b95 fa42 4ec3     T{.2..#=.L..B..N
    1d70:	2e08 66a1 d928 b224 5b76 49a2 8b6d 25d1     ...f(.$.v[.Im..%
    1d80:	f872 64f6 6886 1698 a4d4 cc5c 655d 92b6     r..d.h....\.]e..
    1d90:	706c 5048 edfd dab9 155e 5746 8da7 849d     lpHP....^.FW....
    1da0:	d890 00ab bc8c 0ad3 e4f7 0558 b3b8 0645     ..........X...E.
    1db0:	2cd0 8f1e 3fca 020f afc1 03bd 1301 6b8a     .,...?.........k
    1dc0:	913a 4111 674f eadc f297 cecf b4f0 73e6     :..AOg.........s
    1dd0:	ac96 2274 ade7 8535 f9e2 e837 751c 6edf     ..t"..5...7..u.n
    1de0:	f147 711a 291d 89c5 b76f 0e62 18aa 1bbe     G..q.)..o.b.....
    1df0:	56fc 4b3e d2c6 2079 db9a fec0 cd78 f45a     .V>K..y ....x.Z.
    1e00:	dd1f 33a8 0788 31c7 12b1 5910 8027 5fec     ...3...1...Y'.._
    1e10:	5160 a97f b519 0d4a e52d 9f7a c993 ef9c     `Q....J.-.z.....
    1e20:	e0a0 4d3b 2aae b0f5 ebc8 3cbb 5383 6199     ..;M.*.....<.S.a
    1e30:	2b17 7e04 77ba 26d6 69e1 6314 2155 7d0c     .+.~.w.&.i.cU!.}

00001e40 <Rcon>:
    1e40:	018d 0402 1008 4020 1b80 0036 3d60 10eb     ...... @..6.`=..
    1e50:	ca15 be71 732b f0ae 7d85 8177 351f 072c     ..q.+s...}w..5,.
    1e60:	613b d708 982d a310 1409 f4df eef3 bdd1     ;a..-...........
    1e70:	d2b5 3ca0 4b06 7e5a b13d f881 c16b e2be     ...<.KZ~=...k...
    1e80:	402e 969f 3de9 117e 9373 2a17               .@...=~.s..*

00001e8c <_init>:
    1e8c:	b5f8      	push	{r3, r4, r5, r6, r7, lr}
    1e8e:	46c0      	nop			; (mov r8, r8)
    1e90:	bcf8      	pop	{r3, r4, r5, r6, r7}
    1e92:	bc08      	pop	{r3}
    1e94:	469e      	mov	lr, r3
    1e96:	4770      	bx	lr

00001e98 <__init_array_start>:
    1e98:	00000121 	.word	0x00000121

00001e9c <_fini>:
    1e9c:	b5f8      	push	{r3, r4, r5, r6, r7, lr}
    1e9e:	46c0      	nop			; (mov r8, r8)
    1ea0:	bcf8      	pop	{r3, r4, r5, r6, r7}
    1ea2:	bc08      	pop	{r3}
    1ea4:	469e      	mov	lr, r3
    1ea6:	4770      	bx	lr

00001ea8 <__fini_array_start>:
    1ea8:	000000f5 	.word	0x000000f5
