
/home/jubayer/Documents/riscV/EnergyHarvestingDeviceTestbed/FE310/blinky/src/debug/hello.elf:     file format elf32-littleriscv
/home/jubayer/Documents/riscV/EnergyHarvestingDeviceTestbed/FE310/blinky/src/debug/hello.elf
architecture: riscv:rv32, flags 0x00000112:
EXEC_P, HAS_SYMS, D_PAGED
start address 0x20010000

Program Header:
    LOAD off    0x00001000 vaddr 0x20010000 paddr 0x20010000 align 2**12
         filesz 0x00000f74 memsz 0x00000f74 flags rwx
    LOAD off    0x00007000 vaddr 0x80000000 paddr 0x20015e00 align 2**12
         filesz 0x00000a84 memsz 0x00000a84 flags rw-
     TLS off    0x00000000 vaddr 0x00000000 paddr 0x00000000 align 2**2
         filesz 0x00000000 memsz 0x00000000 flags ---
    LOAD off    0x00000a88 vaddr 0x80000a88 paddr 0x80000a88 align 2**12
         filesz 0x00000000 memsz 0x00000c98 flags rw-
    LOAD off    0x00000114 vaddr 0x00000000 paddr 0x00000000 align 2**12
         filesz 0x00000000 memsz 0x00000000 flags ---
    LOAD off    0x00001f80 vaddr 0x20010f80 paddr 0x20010f80 align 2**12
         filesz 0x00004e7a memsz 0x00004e7a flags r-x
    LOAD off    0x00000114 vaddr 0x00000000 paddr 0x00000000 align 2**12
         filesz 0x00000000 memsz 0x00000000 flags ---

Sections:
Idx Name              Size      VMA       LMA       File off  Algn  Flags
  0 .init             000002dc  20010000  20010000  00001000  2**4  CONTENTS, ALLOC, LOAD, READONLY, CODE
  1 .init_array       00000008  200102e0  200102e0  000012e0  2**3  CONTENTS, ALLOC, LOAD, DATA
  2 .ctors            00000056  200102e8  200102e8  000012e8  2**1  CONTENTS, ALLOC, LOAD, READONLY, CODE
  3 .rodata           00000c34  20010340  20010340  00001340  2**2  CONTENTS, ALLOC, LOAD, READONLY, DATA
  4 .text             00004e7a  20010f80  20010f80  00001f80  2**7  CONTENTS, ALLOC, LOAD, READONLY, CODE
  5 .data             00000a84  80000000  20015e00  00007000  2**3  CONTENTS, ALLOC, LOAD, DATA
  6 .bss              00000098  80000a88  80000a88  00007a88  2**3  ALLOC
  7 .stack            00000400  80000b20  80000b20  00007a88  2**4  ALLOC
  8 .heap             00000800  80000f20  80000f20  00007a88  2**3  ALLOC
  9 .debug_info       0001e77a  00000000  00000000  00007a84  2**0  CONTENTS, READONLY, DEBUGGING, OCTETS
 10 .debug_abbrev     000027a5  00000000  00000000  000261fe  2**0  CONTENTS, READONLY, DEBUGGING, OCTETS
 11 .debug_aranges    00000a10  00000000  00000000  000289a8  2**3  CONTENTS, READONLY, DEBUGGING, OCTETS
 12 .debug_ranges     00000a18  00000000  00000000  000293b8  2**3  CONTENTS, READONLY, DEBUGGING, OCTETS
 13 .debug_line       0000a623  00000000  00000000  00029dd0  2**0  CONTENTS, READONLY, DEBUGGING, OCTETS
 14 .debug_str        000049db  00000000  00000000  000343f3  2**0  CONTENTS, READONLY, DEBUGGING, OCTETS
 15 .comment          00000030  00000000  00000000  00038dce  2**0  CONTENTS, READONLY
 16 .riscv.attributes 0000002f  00000000  00000000  00038dfe  2**0  CONTENTS, READONLY
 17 .debug_frame      00002894  00000000  00000000  00038e30  2**2  CONTENTS, READONLY, DEBUGGING, OCTETS
 18 .debug_loc        00001565  00000000  00000000  0003b6c4  2**0  CONTENTS, READONLY, DEBUGGING, OCTETS
SYMBOL TABLE:
20010000 l    d  .init	00000000 .init
200102e0 l    d  .init_array	00000000 .init_array
200102e8 l    d  .ctors	00000000 .ctors
20010340 l    d  .rodata	00000000 .rodata
20010f80 l    d  .text	00000000 .text
80000000 l    d  .data	00000000 .data
80000a88 l    d  .bss	00000000 .bss
80000b20 l    d  .stack	00000000 .stack
80000f20 l    d  .heap	00000000 .heap
00000000 l    d  .debug_info	00000000 .debug_info
00000000 l    d  .debug_abbrev	00000000 .debug_abbrev
00000000 l    d  .debug_aranges	00000000 .debug_aranges
00000000 l    d  .debug_ranges	00000000 .debug_ranges
00000000 l    d  .debug_line	00000000 .debug_line
00000000 l    d  .debug_str	00000000 .debug_str
00000000 l    d  .comment	00000000 .comment
00000000 l    d  .riscv.attributes	00000000 .riscv.attributes
00000000 l    d  .debug_frame	00000000 .debug_frame
00000000 l    d  .debug_loc	00000000 .debug_loc
00000000 l    df *ABS*	00000000 scrub.o
200100c0 l     F .init	00000000 __metal_memory_scrub
2001012e l       .init	00000000 skip_scrub
00000000 l    df *ABS*	00000000 synchronize_harts.c
00000000 l    df *ABS*	00000000 crt0.o
20010240 l       .init	00000000 _skip_init
20010e38 l       .rodata	00000000 argv
20010e3c l       .rodata	00000000 envp
20010e40 l       .rodata	00000000 name
00000000 l    df *ABS*	00000000 sifive_fe310-g000_pll.c
20013d80 l     F .text	0000001a __metal_driver_sifive_fe310_g000_pll_pllsel0
20013d9a l     F .text	0000001a __metal_driver_sifive_fe310_g000_pll_pllref
20013db4 l     F .text	00000016 __metal_driver_sifive_fe310_g000_pll_divider_base
20013dca l     F .text	00000014 __metal_driver_sifive_fe310_g000_pll_divider_offset
20013dde l     F .text	00000012 __metal_driver_sifive_fe310_g000_pll_config_base
20013df0 l     F .text	00000010 __metal_driver_sifive_fe310_g000_pll_config_offset
20013e00 l     F .text	00000016 __metal_driver_sifive_fe310_g000_pll_init_rate
20013e16 l     F .text	00000012 __metal_driver_sifive_fe310_g000_prci_base
20013e28 l     F .text	00000016 __metal_driver_sifive_fe310_g000_prci_vtable
20010530 l     O .rodata	00000880 pll_configs
20013e3e l     F .text	0000004e get_pll_config_freq
200140a0 l     F .text	000000aa find_closest_config
2001414a l     F .text	000001b0 configure_pll
00000000 l    df *ABS*	00000000 riscv_clint0.c
2001119a l     F .text	0000002a __metal_driver_sifive_clint0_control_base
200111c4 l     F .text	00000028 __metal_driver_sifive_clint0_num_interrupts
200111ec l     F .text	0000003c __metal_driver_sifive_clint0_interrupt_parents
20011228 l     F .text	00000030 __metal_driver_sifive_clint0_interrupt_lines
20011388 l     F .text	00000036 _get_cpu_intc
00000000 l    df *ABS*	00000000 riscv_cpu.c
200118c4 l     F .text	00000024 __metal_driver_cpu_hartid
200118e8 l     F .text	0000002a __metal_driver_cpu_timebase
20011912 l     F .text	0000002a __metal_driver_cpu_interrupt_controller
2001193c l     F .text	00000024 __metal_driver_cpu_buserror
00000000 l    df *ABS*	00000000 riscv_plic0.c
200132e2 l     F .text	0000002a __metal_driver_sifive_plic0_control_base
2001330c l     F .text	0000002a __metal_driver_sifive_plic0_num_interrupts
20013336 l     F .text	00000028 __metal_driver_sifive_plic0_max_priority
2001335e l     F .text	00000028 __metal_driver_sifive_plic0_interrupt_parents
20013386 l     F .text	00000022 __metal_driver_sifive_plic0_interrupt_lines
200133a8 l     F .text	0000001e __metal_driver_sifive_plic0_context_ids
00000000 l    df *ABS*	00000000 sifive_gpio0.c
200144d4 l     F .text	00000026 __metal_driver_sifive_gpio0_base
200144fa l     F .text	0000002a __metal_driver_sifive_gpio0_interrupt_parent
20014524 l     F .text	0000035e __metal_driver_sifive_gpio0_interrupt_lines
00000000 l    df *ABS*	00000000 libgcc2.c
00000000 l    df *ABS*	00000000 impure.c
80000000 l     O .data	00000060 impure_data
00000000 l    df *ABS*	00000000 sifive_fe310-g000_hfrosc.c
20013b90 l     F .text	0000001a __metal_driver_sifive_fe310_g000_hfrosc_ref
20013baa l     F .text	00000016 __metal_driver_sifive_fe310_g000_hfrosc_config_base
20013bc0 l     F .text	00000014 __metal_driver_sifive_fe310_g000_hfrosc_config_offset
20013bd4 l     F .text	00000016 __metal_driver_sifive_fe310_g000_prci_vtable
00000000 l    df *ABS*	00000000 sifive_fe310-g000_hfxosc.c
20013c90 l     F .text	0000001a __metal_driver_sifive_fe310_g000_hfxosc_ref
20013caa l     F .text	00000016 __metal_driver_sifive_fe310_g000_hfxosc_config_base
20013cc0 l     F .text	00000014 __metal_driver_sifive_fe310_g000_hfxosc_config_offset
20013cd4 l     F .text	00000016 __metal_driver_sifive_fe310_g000_prci_vtable
00000000 l    df *ABS*	00000000 sifive_fe310-g000_prci.c
2001445c l     F .text	00000012 __metal_driver_sifive_fe310_g000_prci_base
00000000 l    df *ABS*	00000000 fixed-clock.c
20015180 l     F .text	00000070 __metal_driver_fixed_clock_rate
00000000 l    df *ABS*	00000000 hello.c
00000000 l    df *ABS*	00000000 clock.c
00000000 l    df *ABS*	00000000 timesr.c
00000000 l    df *ABS*	00000000 gpio.c
00000000 l    df *ABS*	00000000 clock.c
00000000 l    df *ABS*	00000000 cpu.c
00000000 l    df *ABS*	00000000 shutdown.c
00000000 l    df *ABS*	00000000 vector.o
20015100 l       .text	00000000 IRQ_0
20015104 l       .text	00000000 IRQ_1
20015108 l       .text	00000000 IRQ_2
2001510c l       .text	00000000 IRQ_3
20015110 l       .text	00000000 IRQ_4
20015114 l       .text	00000000 IRQ_5
20015118 l       .text	00000000 IRQ_6
2001511c l       .text	00000000 IRQ_7
20015120 l       .text	00000000 IRQ_8
20015124 l       .text	00000000 IRQ_9
20015128 l       .text	00000000 IRQ_10
2001512c l       .text	00000000 IRQ_11
20015130 l       .text	00000000 IRQ_12
20015134 l       .text	00000000 IRQ_13
20015138 l       .text	00000000 IRQ_14
2001513c l       .text	00000000 IRQ_15
20015140 l       .text	00000000 IRQ_LC0
20015144 l       .text	00000000 IRQ_LC1
20015148 l       .text	00000000 IRQ_LC2
2001514c l       .text	00000000 IRQ_LC3
20015150 l       .text	00000000 IRQ_LC4
20015154 l       .text	00000000 IRQ_LC5
20015158 l       .text	00000000 IRQ_LC6
2001515c l       .text	00000000 IRQ_LC7
20015160 l       .text	00000000 IRQ_LC8
20015164 l       .text	00000000 IRQ_LC9
20015168 l       .text	00000000 IRQ_LC10
2001516c l       .text	00000000 IRQ_LC11
20015170 l       .text	00000000 IRQ_LC12
20015174 l       .text	00000000 IRQ_LC13
20015178 l       .text	00000000 IRQ_LC14
2001517c l       .text	00000000 IRQ_LC15
00000000 l    df *ABS*	00000000 timer.c
00000000 l    df *ABS*	00000000 sys_times.c
200152b8 l     F .text	000000e0 muldiv
00000000 l    df *ABS*	00000000 atexit.c
00000000 l    df *ABS*	00000000 exit.c
00000000 l    df *ABS*	00000000 fini.c
00000000 l    df *ABS*	00000000 init.c
00000000 l    df *ABS*	00000000 __atexit.c
80000a94 l     O .bss	0000008c _global_atexit0
00000000 l    df *ABS*	00000000 __call_atexit.c
00000000 l    df *ABS*	00000000 libgcc2.c
00000000 l    df *ABS*	00000000 libgcc2.c
00000000 l    df *ABS*	00000000 init.c
80000a8c l     O .bss	00000004 init_done.1
80000a90 l     O .bss	00000004 fini_done.0
00000000 l    df *ABS*	00000000 sys_exit.c
00000000 l    df *ABS*	00000000 inline.c
00000000 l    df *ABS*	00000000 
200102e8 l       .init_array	00000000 metal_constructors_end
200102e8 l       .init_array	00000000 __fini_array_end
200102e8 l       .init_array	00000000 metal_destructors_end
200102e8 l       .init_array	00000000 metal_destructors_start
200102e8 l       .init_array	00000000 __fini_array_start
200102e0 l       .init_array	00000000 __init_array_end
200102e0 l       .init_array	00000000 __preinit_array_end
200102e0 l       .init_array	00000000 __init_array_start
200102e0 l       .init_array	00000000 metal_constructors_start
200102e0 l       .init_array	00000000 __preinit_array_start
200121ce  w    F .text	00000096 metal_lc4_interrupt_vector_handler
20014f74 g     F .text	00000026 metal_clock_get_rate_hz
20011564 g     F .text	00000058 __metal_driver_riscv_clint0_set_vector_mode
20012138  w    F .text	00000096 metal_lc3_interrupt_vector_handler
200129e0 g     F .text	00000058 __metal_valid_interrupt_id
200102e4 g     O .init_array	00000004 _use_hfxosc_ptr
20012e58 g     F .text	0000001a __metal_driver_riscv_cpu_controller_get_vector_mode
80001260 g       .data	00000000 __global_pointer$
20013402 g     F .text	00000046 __metal_plic0_complete_interrupt
20012c24 g     F .text	000001e0 __metal_driver_riscv_cpu_controller_interrupt_register
200102e0 g     O .init_array	00000004 _metal_sifive_fe310_g000_pll_init_ptr
80000a88 g       .data	00000000 __tls_base
2001505c g     F .text	0000002e metal_cpu_get
20014b0c g     F .text	0000004a __metal_driver_sifive_gpio0_disable_io
20010340 g     O .rodata	00000064 __metal_driver_vtable_riscv_clint0
80000b20 g       .bss	00000000 metal_segment_bss_target_end
20011258 g     F .text	0000009a __metal_clint0_mtime_get
20013256 g     F .text	0000002e __metal_driver_cpu_get_instruction_length
00000001 g       *ABS*	00000000 __metal_chicken_bit
200148c2 g     F .text	00000046 __metal_driver_sifive_gpio0_disable_input
08000000 g       .rodata	00000000 metal_segment_itim_target_start
20015398  w    F .text	0000008a times
2001500c g     F .text	0000002a metal_cpu_get_timebase
20011080 g     F .text	00000040 metal_gpio_enable_output
20010142 g     F .init	0000000e __metal_synchronize_harts
80000a88 g       .data	00000000 metal_segment_bss_target_start
200112f2 g     F .text	00000096 __metal_driver_riscv_clint0_mtimecmp_set
20014d5c g     F .text	00000188 __metal_driver_sifive_gpio0_clear_int
20013f30 g     F .text	00000170 __metal_driver_sifive_fe310_g000_pll_get_rate_hz
00000400 g       *ABS*	00000000 __stack_size
200124bc  w    F .text	00000096 metal_lc9_interrupt_vector_handler
200100cc  w    F .init	00000000 __metal_before_start
20015dbe  w    F .text	00000014 metal_init_run
200104cc g     O .rodata	00000064 __metal_driver_vtable_riscv_plic0
20010488 g     O .rodata	00000044 __metal_driver_vtable_cpu
00000000 g       *ABS*	00000000 __metal_eccscrub_bit
2001103a g     F .text	00000006 _times_r
20012ede g     F .text	00000070 __metal_driver_cpu_mcycle_get
20010db0 g     O .rodata	0000000c __metal_driver_vtable_sifive_fe310_g000_pll
80000a68  w    O .data	00000004 __metal_gpio_table
80000a74 g     O .data	00000008 __metal_dt_cpu_0
20012426  w    F .text	00000096 metal_lc8_interrupt_vector_handler
200142fa g     F .text	00000162 __metal_driver_sifive_fe310_g000_pll_set_rate_hz
20015274 g     F .text	00000044 metal_timer_get_timebase_frequency
20013af4 g     F .text	00000074 __metal_driver_riscv_plic0_affinity_set_threshold
20012714  w    F .text	00000096 metal_lc13_interrupt_vector_handler
200110c0 g     F .text	00000068 metal_gpio_set_pin
20011ace g     F .text	00000018 __metal_default_exception_handler
20011890 g     F .text	00000034 __metal_driver_riscv_clint0_set_interrupt
20012e72 g     F .text	00000050 __metal_driver_riscv_cpu_controller_set_vector_mode
20011960 g     F .text	00000030 __metal_driver_cpu_get
20010424 g     O .rodata	00000064 __metal_driver_vtable_riscv_cpu_intc
200119c2 g     F .text	00000018 __metal_interrupt_global_disable
20013b68 g     F .text	00000028 __metal_driver_riscv_plic0_affinity_get_threshold
20012390  w    F .text	00000096 metal_lc7_interrupt_vector_handler
20012552  w    F .text	00000096 metal_lc10_interrupt_vector_handler
20013918 g     F .text	0000004e __metal_driver_riscv_plic0_disable
20012af4 g     F .text	0000004e __metal_exception_register
20015cce g     F .text	00000078 metal_init
20013070 g     F .text	0000001a __metal_driver_cpu_timer_controller_interrupt
200149a4 g     F .text	00000040 __metal_driver_sifive_gpio0_enable_output
80000000 g       .rodata	00000000 metal_segment_lim_target_end
20011bbe g     F .text	00000068 __metal_default_sw_handler
8000006c g     O .data	0000000c __metal_dt_clock_2
2001598e g     F .text	00000340 .hidden __umoddi3
20014a6a g     F .text	00000040 __metal_driver_sifive_gpio0_output_toggle
20010f6c g     O .rodata	00000008 __metal_driver_vtable_fixed_clock
20010f50 g     O .rodata	00000004 _global_impure_ptr
20011c26  w    F .text	00000092 metal_timer_interrupt_vector_handler
2001548c g     F .text	0000005e __libc_init_array
200149e4 g     F .text	00000040 __metal_driver_sifive_gpio0_output_set
200125e8  w    F .text	00000096 metal_lc11_interrupt_vector_handler
2001562e g     F .text	00000360 .hidden __udivdi3
20013d5e g     F .text	00000022 __metal_driver_sifive_fe310_g000_hfxosc_set_rate_hz
20012e04 g     F .text	0000002a __metal_driver_riscv_cpu_controller_interrupt_enable
2001495e g     F .text	00000046 __metal_driver_sifive_gpio0_disable_output
20014f32 g     F .text	00000042 _metal_clock_call_all_callbacks
200102ba g     F .init	00000002 _init
20011a24 g     F .text	0000001a __metal_interrupt_timer_disable
20014b56 g     F .text	00000206 __metal_driver_sifive_gpio0_config_int
2001312e g     F .text	00000062 __metal_driver_cpu_clear_sw_ipi
20010dfc g     O .rodata	0000003c __metal_driver_vtable_sifive_gpio0
20014aaa g     F .text	00000062 __metal_driver_sifive_gpio0_enable_io
20015456 g     F .text	00000036 __libc_fini_array
20015398 g     F .text	0000008a _times
80000a50 g     O .data	0000000c __metal_dt_clock_4
20015d46 g     F .text	00000078 metal_fini
20014ee4 g     F .text	00000020 __metal_driver_gpio_interrupt_controller
200130b8 g     F .text	00000014 __metal_driver_cpu_get_sw_interrupt_id
200132c2 g     F .text	00000020 __metal_driver_cpu_get_buserror
80000000 g       .data	00000000 metal_segment_data_target_start
20011a76 g     F .text	0000002c __metal_interrupt_local_enable
2001185c g     F .text	00000034 __metal_driver_riscv_clint0_clear_interrupt
20013600 g     F .text	00000018 __metal_plic0_default_handler
00000000 g       *ABS*	00000000 __tbss_size
80000060 g     O .data	0000000c __metal_dt_clock_0
00000800 g       *ABS*	00000000 __heap_size
20013966 g     F .text	00000030 __metal_driver_riscv_plic0_set_threshold
20011cb8 g     F .text	00000016 __metal_default_beu_handler
20011a5a g     F .text	0000001c __metal_interrupt_external_disable
20011128 g     F .text	00000040 metal_gpio_disable_pinmux
20012ec2 g     F .text	0000001c __metal_driver_riscv_cpu_controller_command_request
20012b42 g     F .text	000000e2 __metal_driver_riscv_cpu_controller_interrupt_init
20013210 g     F .text	00000046 __metal_driver_cpu_exception_register
200119da g     F .text	00000018 __metal_interrupt_software_enable
2001200c  w    F .text	00000096 metal_lc1_interrupt_vector_handler
80000a88 g     O .bss	00000004 _global_atexit
200134c8 g     F .text	00000062 __metal_driver_riscv_plic0_set_priority
200128d6 g     F .text	00000058 __metal_controller_interrupt_vector_mode
20015566 g     F .text	000000c8 __call_exitprocs
80000f20 g       .stack	00000000 _sp
20010150 g     F .init	00000000 _start
20013bea g     F .text	00000084 __metal_driver_sifive_fe310_g000_hfrosc_get_rate_hz
20015230 g     F .text	00000044 metal_timer_get_cyclecount
200131f0 g     F .text	00000020 __metal_driver_cpu_controller_interrupt
20013284 g     F .text	0000001e __metal_driver_cpu_get_exception_pc
20011a3e g     F .text	0000001c __metal_interrupt_external_enable
200154ea g     F .text	0000007c __register_exitproc
200136bc g     F .text	00000150 __metal_driver_riscv_plic0_init
200138ca g     F .text	0000004e __metal_driver_riscv_plic0_enable
20014932 g     F .text	0000002c __metal_driver_sifive_gpio0_output
200122fa  w    F .text	00000096 metal_lc6_interrupt_vector_handler
20011990 g     F .text	0000001a __metal_myhart_id
20014f04 g     F .text	0000002e __metal_driver_gpio_get_interrupt_id
20011b2c  w    F .text	00000092 metal_software_interrupt_vector_handler
20012e2e g     F .text	0000002a __metal_driver_riscv_cpu_controller_interrupt_disable
20014fe2 g     F .text	0000002a metal_cpu_get_timer
20011446 g     F .text	000000da __metal_driver_riscv_clint0_register
20011040 g     F .text	00000040 metal_gpio_disable_input
80000a6c g     O .data	00000008 __metal_dt_clint_2000000
20014f9a g     F .text	00000048 metal_clock_set_rate_hz
20011168 g     F .text	00000032 metal_gpio_get_device
20014882 g     F .text	00000040 __metal_driver_sifive_gpio0_enable_input
200102bc  w    F .init	00000000 secondary_main
20011afe  w    F .text	0000002e metal_interrupt_vector_handler
2001348e g     F .text	0000003a __metal_plic0_get_threshold
2001446e g     F .text	0000002e __metal_driver_sifive_fe310_g000_prci_get_reg
20012a38 g     F .text	000000bc __metal_local_interrupt_enable
20011720 g     F .text	0000013c __metal_driver_riscv_clint0_command_request
20012264  w    F .text	00000096 metal_lc5_interrupt_vector_handler
20010fc2 g     F .text	0000004e main
80000a88 g       .data	00000000 metal_segment_data_target_end
20010f54 g     O .rodata	00000008 __metal_driver_vtable_sifive_fe310_g000_hfrosc
200130cc g     F .text	00000062 __metal_driver_cpu_set_sw_ipi
20013190 g     F .text	00000060 __metal_driver_cpu_get_msip
200150a4 g     F .text	0000000e metal_shutdown
08000000 g       .rodata	00000000 metal_segment_itim_target_end
200132a2 g     F .text	00000020 __metal_driver_cpu_set_exception_pc
200133c6 g     F .text	0000003c __metal_plic0_claim_interrupt
2001267e  w    F .text	00000096 metal_lc12_interrupt_vector_handler
2001008a g     F .init	00000000 metal_mem_scrub
20011548 g     F .text	0000001c __metal_driver_riscv_clint0_get_vector_mode
80000a80 g     O .data	00000004 __metal_dt_prci_10008000
20012f4e g     F .text	00000046 __metal_driver_cpu_timebase_get
20013a58 g     F .text	0000009c __metal_driver_riscv_plic0_affinity_disable
20010000 g       .init	00000000 _enter
2001508a g     F .text	0000001a metal_cpu_get_current_hartid
20013cea g     F .text	00000074 __metal_driver_sifive_fe310_g000_hfxosc_get_rate_hz
20015100 g       .text	00000000 __metal_vector_table
20010f78 g       *ABS*	00000000 metal_segment_itim_source_start
80000a64  w    O .data	00000004 __metal_cpu_table
20010f80 g     F .text	00000042 delay
80000090 g     O .data	000003d0 __metal_dt_cpu_0_interrupt_controller
200102ba g     F .init	00000002 _fini
80000000 g       .rodata	00000000 metal_segment_lim_target_start
20010e4c g     O .rodata	00000100 .hidden __clz_tab
2001352a g     F .text	00000034 __metal_driver_riscv_plic0_get_priority
20010314 g     F .ctors	0000002a use_hfxosc
200119aa g     F .text	00000018 __metal_interrupt_global_enable
20015422 g     F .text	0000000a atexit
20011a0a g     F .text	0000001a __metal_interrupt_timer_enable
2001166e g     F .text	000000b2 __metal_driver_riscv_clint0_disable
80000a60 g     O .data	00000004 _impure_ptr
20012ffa g     F .text	00000076 __metal_driver_cpu_mtimecmp_set
20013996 g     F .text	00000028 __metal_driver_riscv_plic0_get_threshold
20013e8c g     F .text	000000a4 __metal_driver_sifive_fe310_g000_pll_init
80000078 g     O .data	0000000c __metal_dt_clock_5
2001449c g     F .text	00000038 __metal_driver_sifive_fe310_g000_prci_set_reg
200151f0 g     F .text	0000001e __metal_driver_fixed_clock_get_rate_hz
200115bc g     F .text	000000b2 __metal_driver_riscv_clint0_enable
20015e00 g       *ABS*	00000000 metal_segment_data_source_start
20010134 g       .init	00000000 early_trap_vector
2001292e g     F .text	000000b2 __metal_controller_interrupt_vector
80000a44 g     O .data	0000000c __metal_dt_clock_1
80000460 g     O .data	000005d8 __metal_dt_interrupt_controller_c000000
20014a24 g     F .text	00000046 __metal_driver_sifive_gpio0_output_clear
20011cce g     F .text	00000066 __metal_default_timer_handler
20013618 g     F .text	000000a4 __metal_plic0_handler
200120a2  w    F .text	00000096 metal_lc2_interrupt_vector_handler
20012840  w    F .text	00000096 metal_lc15_interrupt_vector_handler
20015036 g     F .text	00000026 metal_cpu_interrupt_controller
2001542c g     F .text	0000002a exit
2001520e g     F .text	00000022 __metal_driver_fixed_clock_set_rate_hz
20010f78 g       *ABS*	00000000 metal_segment_lim_source_start
80000a7c g     O .data	00000004 __metal_dt_gpio_10012000
20011ae6 g     F .text	00000018 __metal_default_interrupt_handler
20015dd2  w    F .text	00000014 metal_fini_run
20014908 g     F .text	0000002a __metal_driver_sifive_gpio0_input
20011d80 g     F .text	0000017c __metal_exception_handler
20011f76  w    F .text	00000096 metal_lc0_interrupt_vector_handler
20015de6 g     F .text	00000014 _exit
20012f94 g     F .text	00000066 __metal_driver_cpu_mtime_get
20011520 g     F .text	00000028 __metal_driver_riscv_clint0_vector_register
20011010 g     F .text	0000002a clock
200127aa  w    F .text	00000096 metal_lc14_interrupt_vector_handler
20010f5c g     O .rodata	00000008 __metal_driver_vtable_sifive_fe310_g000_hfxosc
200113be g     F .text	00000088 __metal_driver_riscv_clint0_init
200102e8 g     F .ctors	0000002c metal_sifive_fe310_g000_pll_init
2001308a g     F .text	00000014 __metal_driver_cpu_get_timer_interrupt_id
2001355e g     F .text	000000a2 __metal_plic0_enable
20010088  w      .init	00000000 __register_frame_info
20013c6e g     F .text	00000022 __metal_driver_sifive_fe310_g000_hfrosc_set_rate_hz
2001309e g     F .text	0000001a __metal_driver_cpu_sw_controller_interrupt
20011aa2 g     F .text	0000002c __metal_interrupt_local_disable
200119f2 g     F .text	00000018 __metal_interrupt_software_disable
80000a38 g     O .data	0000000c __metal_dt_clock_3
80000084 g     O .data	0000000c __metal_dt_clock_6
20013448 g     F .text	00000046 __metal_plic0_set_threshold
200139be g     F .text	0000009a __metal_driver_riscv_plic0_affinity_enable
20010f64 g     O .rodata	00000008 __metal_driver_vtable_sifive_fe310_g000_prci
00000000 g       *ABS*	00000000 __metal_boot_hart
2001380c g     F .text	000000be __metal_driver_riscv_plic0_register



Disassembly of section .init:

20010000 <_enter>:
_enter():
/home/jubayer/Documents/riscV/EnergyHarvestingDeviceTestbed/FE310/blinky/freedom-metal/src/entry.S:24
     * it's not valid to obtain the address of any symbol without GP
     * configured.  The C environment might go ahead and do this again, but
     * that's safe as it's a fixed register. */
.option push
.option norelax
    la gp, __global_pointer$
20010000:	5fff1197          	auipc	gp,0x5fff1
20010004:	26018193          	addi	gp,gp,608 # 80001260 <__global_pointer$>
/home/jubayer/Documents/riscV/EnergyHarvestingDeviceTestbed/FE310/blinky/freedom-metal/src/entry.S:28
.option pop

    /* trap over the chicken bit register clearing, aloe & fe310 dont have it */
    la t0, 1f
20010008:	00000297          	auipc	t0,0x0
2001000c:	01828293          	addi	t0,t0,24 # 20010020 <_enter+0x20>
/home/jubayer/Documents/riscV/EnergyHarvestingDeviceTestbed/FE310/blinky/freedom-metal/src/entry.S:29
    csrw mtvec, t0
20010010:	30529073          	csrw	mtvec,t0
/home/jubayer/Documents/riscV/EnergyHarvestingDeviceTestbed/FE310/blinky/freedom-metal/src/entry.S:31
    /* chicken bit is enable if core are sifive series. */
    la t0, __metal_chicken_bit
20010014:	00100293          	li	t0,1
/home/jubayer/Documents/riscV/EnergyHarvestingDeviceTestbed/FE310/blinky/freedom-metal/src/entry.S:32
    beqz t0, 1f
20010018:	00028463          	beqz	t0,20010020 <_enter+0x20>
/home/jubayer/Documents/riscV/EnergyHarvestingDeviceTestbed/FE310/blinky/freedom-metal/src/entry.S:34
    /* If set, always clear the feature disable register for all cores series */
    csrwi 0x7C1, 0
2001001c:	7c105073          	csrwi	0x7c1,0
/home/jubayer/Documents/riscV/EnergyHarvestingDeviceTestbed/FE310/blinky/freedom-metal/src/entry.S:39
.align 4
1:
    /* Set up a simple trap vector to catch anything that goes wrong early in
     * the boot process. */
    la t0, early_trap_vector
20010020:	00000297          	auipc	t0,0x0
20010024:	11428293          	addi	t0,t0,276 # 20010134 <early_trap_vector>
/home/jubayer/Documents/riscV/EnergyHarvestingDeviceTestbed/FE310/blinky/freedom-metal/src/entry.S:40
    csrw mtvec, t0
20010028:	30529073          	csrw	mtvec,t0
/home/jubayer/Documents/riscV/EnergyHarvestingDeviceTestbed/FE310/blinky/freedom-metal/src/entry.S:48
     * C, so here we set up a C environment. First we set up a stack pointer,
     * which is left as a weak reference in order to allow initialization
     * routines that do not need a stack to be set up to transparently be
     * called. */
    .weak __metal_stack_pointer
    la sp, __metal_stack_pointer
2001002c:	00000113          	li	sp,0
/home/jubayer/Documents/riscV/EnergyHarvestingDeviceTestbed/FE310/blinky/freedom-metal/src/entry.S:55
   /* The METAL is designed for a bare-metal environment and therefore is expected
    * to define its own stack pointer. We also align the stack pointer here
    * because the only RISC-V ABI that's currently defined, mandates 16-byte
    * stack alignment. */

    bne sp, zero, 1f
20010030:	00011463          	bnez	sp,20010038 <_enter+0x38>
/home/jubayer/Documents/riscV/EnergyHarvestingDeviceTestbed/FE310/blinky/freedom-metal/src/entry.S:56
    la sp, _sp
20010034:	cc018113          	addi	sp,gp,-832 # 80000f20 <_sp>
/home/jubayer/Documents/riscV/EnergyHarvestingDeviceTestbed/FE310/blinky/freedom-metal/src/entry.S:59
1:
    /* Increment by hartid number of stack sizes */
    csrr a0, mhartid
20010038:	f1402573          	csrr	a0,mhartid
/home/jubayer/Documents/riscV/EnergyHarvestingDeviceTestbed/FE310/blinky/freedom-metal/src/entry.S:60
    li t0, 0
2001003c:	4281                	li	t0,0
/home/jubayer/Documents/riscV/EnergyHarvestingDeviceTestbed/FE310/blinky/freedom-metal/src/entry.S:61
    la t1, __stack_size
2001003e:	40000313          	li	t1,1024
/home/jubayer/Documents/riscV/EnergyHarvestingDeviceTestbed/FE310/blinky/freedom-metal/src/entry.S:63
1:
    andi sp, sp, -16
20010042:	ff017113          	andi	sp,sp,-16
/home/jubayer/Documents/riscV/EnergyHarvestingDeviceTestbed/FE310/blinky/freedom-metal/src/entry.S:64
    beq t0, a0, 1f
20010046:	00a28563          	beq	t0,a0,20010050 <_enter+0x50>
/home/jubayer/Documents/riscV/EnergyHarvestingDeviceTestbed/FE310/blinky/freedom-metal/src/entry.S:65
    add sp, sp, t1
2001004a:	911a                	add	sp,sp,t1
/home/jubayer/Documents/riscV/EnergyHarvestingDeviceTestbed/FE310/blinky/freedom-metal/src/entry.S:66
    addi t0, t0, 1
2001004c:	0285                	addi	t0,t0,1
/home/jubayer/Documents/riscV/EnergyHarvestingDeviceTestbed/FE310/blinky/freedom-metal/src/entry.S:67
    j 1b
2001004e:	bfd5                	j	20010042 <_enter+0x42>
/home/jubayer/Documents/riscV/EnergyHarvestingDeviceTestbed/FE310/blinky/freedom-metal/src/entry.S:76
     * just skip over the call entirely.   Note that __metal_initialize isn't
     * actually a full C function, as it doesn't end up with the .bss or .data
     * segments having been initialized.  This is done to avoid putting a
     * burden on systems that can be initialized without having a C environment
     * set up. */
    la ra, __metal_before_start
20010050:	00000097          	auipc	ra,0x0
20010054:	07c08093          	addi	ra,ra,124 # 200100cc <__metal_before_start>
/home/jubayer/Documents/riscV/EnergyHarvestingDeviceTestbed/FE310/blinky/freedom-metal/src/entry.S:77
    beqz ra, 1f
20010058:	00008363          	beqz	ra,2001005e <_enter+0x5e>
/home/jubayer/Documents/riscV/EnergyHarvestingDeviceTestbed/FE310/blinky/freedom-metal/src/entry.S:78
    jalr ra
2001005c:	9082                	jalr	ra
/home/jubayer/Documents/riscV/EnergyHarvestingDeviceTestbed/FE310/blinky/freedom-metal/src/entry.S:84
1:

    /* At this point we can enter the C runtime's startup file.  The arguments
     * to this function are designed to match those provided to the SEE, just
     * so we don't have to write another ABI. */
    csrr a0, mhartid
2001005e:	f1402573          	csrr	a0,mhartid
/home/jubayer/Documents/riscV/EnergyHarvestingDeviceTestbed/FE310/blinky/freedom-metal/src/entry.S:85
    li a1, 0
20010062:	4581                	li	a1,0
/home/jubayer/Documents/riscV/EnergyHarvestingDeviceTestbed/FE310/blinky/freedom-metal/src/entry.S:86
    li a2, 0
20010064:	4601                	li	a2,0
/home/jubayer/Documents/riscV/EnergyHarvestingDeviceTestbed/FE310/blinky/freedom-metal/src/entry.S:87
    call _start
20010066:	20ed                	jal	20010150 <_start>
/home/jubayer/Documents/riscV/EnergyHarvestingDeviceTestbed/FE310/blinky/freedom-metal/src/entry.S:92

    /* If we've made it back here then there's probably something wrong.  We
     * allow the METAL to register a handler here. */
    .weak __metal_after_main
    la ra, __metal_after_main
20010068:	00000093          	li	ra,0
/home/jubayer/Documents/riscV/EnergyHarvestingDeviceTestbed/FE310/blinky/freedom-metal/src/entry.S:93
    beqz ra, 1f
2001006c:	00008363          	beqz	ra,20010072 <_enter+0x72>
/home/jubayer/Documents/riscV/EnergyHarvestingDeviceTestbed/FE310/blinky/freedom-metal/src/entry.S:94
    jalr ra
20010070:	9082                	jalr	ra
/home/jubayer/Documents/riscV/EnergyHarvestingDeviceTestbed/FE310/blinky/freedom-metal/src/entry.S:99
1:

    /* If that handler returns then there's not a whole lot we can do.  Just
     * try to make some noise. */
     la t0, 1f
20010072:	00000297          	auipc	t0,0x0
20010076:	00c28293          	addi	t0,t0,12 # 2001007e <_enter+0x7e>
/home/jubayer/Documents/riscV/EnergyHarvestingDeviceTestbed/FE310/blinky/freedom-metal/src/entry.S:100
     csrw mtvec, t0
2001007a:	30529073          	csrw	mtvec,t0
/home/jubayer/Documents/riscV/EnergyHarvestingDeviceTestbed/FE310/blinky/freedom-metal/src/entry.S:102
1:
     lw t1, 0(x0)
2001007e:	00002303          	lw	t1,0(zero) # 0 <__metal_boot_hart>
/home/jubayer/Documents/riscV/EnergyHarvestingDeviceTestbed/FE310/blinky/freedom-metal/src/entry.S:103
     j 1b
20010082:	bff5                	j	2001007e <_enter+0x7e>
20010084:	0000                	unimp
	...

20010088 <__register_frame_info>:
__register_frame_info():
/home/jubayer/Documents/riscV/EnergyHarvestingDeviceTestbed/FE310/blinky/freedom-metal/src/entry.S:117
.weak __register_frame_info
.global __register_frame_info
.section .text.metal.init.__register_frame_info
__register_frame_info:
    .cfi_startproc
    ret
20010088:	8082                	ret

2001008a <metal_mem_scrub>:
metal_mem_scrub():
/home/jubayer/Documents/riscV/EnergyHarvestingDeviceTestbed/FE310/blinky/freedom-metal/src/scrub.S:24
.type metal_mem_scrub, @function
metal_mem_scrub:

    /* Disable machine interrupts,
    restore previous mstatus value at exit */
    li      a3, 8
2001008a:	46a1                	li	a3,8
/home/jubayer/Documents/riscV/EnergyHarvestingDeviceTestbed/FE310/blinky/freedom-metal/src/scrub.S:25
    csrrc   t1, mstatus, a3
2001008c:	3006b373          	csrrc	t1,mstatus,a3
/home/jubayer/Documents/riscV/EnergyHarvestingDeviceTestbed/FE310/blinky/freedom-metal/src/scrub.S:28

#if __riscv_xlen == 32
    addi    t0, x0, 4
20010090:	4291                	li	t0,4
/home/jubayer/Documents/riscV/EnergyHarvestingDeviceTestbed/FE310/blinky/freedom-metal/src/scrub.S:30
1:
    blt     a1, t0, 2f
20010092:	0055c563          	blt	a1,t0,2001009c <metal_mem_scrub+0x12>
/home/jubayer/Documents/riscV/EnergyHarvestingDeviceTestbed/FE310/blinky/freedom-metal/src/scrub.S:31
    andi    a2, a0, 3
20010096:	00357613          	andi	a2,a0,3
/home/jubayer/Documents/riscV/EnergyHarvestingDeviceTestbed/FE310/blinky/freedom-metal/src/scrub.S:32
    beqz    a2, 3f
2001009a:	ca11                	beqz	a2,200100ae <metal_mem_scrub+0x24>
/home/jubayer/Documents/riscV/EnergyHarvestingDeviceTestbed/FE310/blinky/freedom-metal/src/scrub.S:34
2:
    sb      x0, 0(a0)
2001009c:	00050023          	sb	zero,0(a0)
/home/jubayer/Documents/riscV/EnergyHarvestingDeviceTestbed/FE310/blinky/freedom-metal/src/scrub.S:35
    addi    a0, a0, 1
200100a0:	0505                	addi	a0,a0,1
/home/jubayer/Documents/riscV/EnergyHarvestingDeviceTestbed/FE310/blinky/freedom-metal/src/scrub.S:36
    addi    a1, a1, -1
200100a2:	15fd                	addi	a1,a1,-1
/home/jubayer/Documents/riscV/EnergyHarvestingDeviceTestbed/FE310/blinky/freedom-metal/src/scrub.S:37
    bgtz    a1, 1b
200100a4:	feb047e3          	bgtz	a1,20010092 <metal_mem_scrub+0x8>
/home/jubayer/Documents/riscV/EnergyHarvestingDeviceTestbed/FE310/blinky/freedom-metal/src/scrub.S:38
    csrw    mstatus, t1
200100a8:	30031073          	csrw	mstatus,t1
/home/jubayer/Documents/riscV/EnergyHarvestingDeviceTestbed/FE310/blinky/freedom-metal/src/scrub.S:39
    ret
200100ac:	8082                	ret
/home/jubayer/Documents/riscV/EnergyHarvestingDeviceTestbed/FE310/blinky/freedom-metal/src/scrub.S:41
3:
    sw      x0, 0(a0)
200100ae:	00052023          	sw	zero,0(a0)
/home/jubayer/Documents/riscV/EnergyHarvestingDeviceTestbed/FE310/blinky/freedom-metal/src/scrub.S:42
    addi    a0, a0, 4
200100b2:	0511                	addi	a0,a0,4
/home/jubayer/Documents/riscV/EnergyHarvestingDeviceTestbed/FE310/blinky/freedom-metal/src/scrub.S:43
    addi    a1, a1, -4
200100b4:	15f1                	addi	a1,a1,-4
/home/jubayer/Documents/riscV/EnergyHarvestingDeviceTestbed/FE310/blinky/freedom-metal/src/scrub.S:44
    bgtz    a1, 1b
200100b6:	fcb04ee3          	bgtz	a1,20010092 <metal_mem_scrub+0x8>
/home/jubayer/Documents/riscV/EnergyHarvestingDeviceTestbed/FE310/blinky/freedom-metal/src/scrub.S:45
    csrw    mstatus, t1
200100ba:	30031073          	csrw	mstatus,t1
/home/jubayer/Documents/riscV/EnergyHarvestingDeviceTestbed/FE310/blinky/freedom-metal/src/scrub.S:46
    ret
200100be:	8082                	ret

200100c0 <__metal_memory_scrub>:
__metal_memory_scrub():
/home/jubayer/Documents/riscV/EnergyHarvestingDeviceTestbed/FE310/blinky/freedom-metal/src/scrub.S:74
.type __metal_memory_scrub, @function
__metal_memory_scrub:
/* Zero out specified memory regions */
1:
#if __riscv_xlen == 32
    sw      x0, 0(t1)
200100c0:	00032023          	sw	zero,0(t1)
/home/jubayer/Documents/riscV/EnergyHarvestingDeviceTestbed/FE310/blinky/freedom-metal/src/scrub.S:75
    addi    t1, t1, 4
200100c4:	0311                	addi	t1,t1,4
/home/jubayer/Documents/riscV/EnergyHarvestingDeviceTestbed/FE310/blinky/freedom-metal/src/scrub.S:76
    blt     t1, t2, 1b
200100c6:	fe734de3          	blt	t1,t2,200100c0 <__metal_memory_scrub>
/home/jubayer/Documents/riscV/EnergyHarvestingDeviceTestbed/FE310/blinky/freedom-metal/src/scrub.S:82
#else
    sd      x0, 0(t1)
    addi    t1, t1, 8
    blt     t1, t2, 1b
#endif
    ret
200100ca:	8082                	ret

200100cc <__metal_before_start>:
__metal_before_start():
/home/jubayer/Documents/riscV/EnergyHarvestingDeviceTestbed/FE310/blinky/freedom-metal/src/scrub.S:94
.weak __metal_before_start
.global __metal_before_start
.type __metal_before_start, @function
__metal_before_start:
    /* Save caller ra */
    mv      s0, ra
200100cc:	8406                	mv	s0,ra
/home/jubayer/Documents/riscV/EnergyHarvestingDeviceTestbed/FE310/blinky/freedom-metal/src/scrub.S:96

    la      t0, __metal_eccscrub_bit
200100ce:	dfff0297          	auipc	t0,0xdfff0
200100d2:	f3228293          	addi	t0,t0,-206 # 0 <__metal_boot_hart>
/home/jubayer/Documents/riscV/EnergyHarvestingDeviceTestbed/FE310/blinky/freedom-metal/src/scrub.S:97
    beqz    t0, skip_scrub
200100d6:	04028c63          	beqz	t0,2001012e <skip_scrub>
/home/jubayer/Documents/riscV/EnergyHarvestingDeviceTestbed/FE310/blinky/freedom-metal/src/scrub.S:99

    la      t0, __metal_boot_hart
200100da:	dfff0297          	auipc	t0,0xdfff0
200100de:	f2628293          	addi	t0,t0,-218 # 0 <__metal_boot_hart>
/home/jubayer/Documents/riscV/EnergyHarvestingDeviceTestbed/FE310/blinky/freedom-metal/src/scrub.S:100
    csrr    a5, mhartid
200100e2:	f14027f3          	csrr	a5,mhartid
/home/jubayer/Documents/riscV/EnergyHarvestingDeviceTestbed/FE310/blinky/freedom-metal/src/scrub.S:103

    /* Disable machine interrupts to be safe */
    li      a3, 8
200100e6:	46a1                	li	a3,8
/home/jubayer/Documents/riscV/EnergyHarvestingDeviceTestbed/FE310/blinky/freedom-metal/src/scrub.S:104
    csrc    mstatus, a3
200100e8:	3006b073          	csrc	mstatus,a3
/home/jubayer/Documents/riscV/EnergyHarvestingDeviceTestbed/FE310/blinky/freedom-metal/src/scrub.S:107

    /* Zero out per hart stack */
    mv      t1, sp
200100ec:	830a                	mv	t1,sp
/home/jubayer/Documents/riscV/EnergyHarvestingDeviceTestbed/FE310/blinky/freedom-metal/src/scrub.S:108
    la      t2, __stack_size
200100ee:	dfff0397          	auipc	t2,0xdfff0
200100f2:	31238393          	addi	t2,t2,786 # 400 <__stack_size>
/home/jubayer/Documents/riscV/EnergyHarvestingDeviceTestbed/FE310/blinky/freedom-metal/src/scrub.S:109
    add     t2, t2, sp
200100f6:	938a                	add	t2,t2,sp
/home/jubayer/Documents/riscV/EnergyHarvestingDeviceTestbed/FE310/blinky/freedom-metal/src/scrub.S:110
    beq     t1, t2, 1f
200100f8:	00730363          	beq	t1,t2,200100fe <__metal_before_start+0x32>
/home/jubayer/Documents/riscV/EnergyHarvestingDeviceTestbed/FE310/blinky/freedom-metal/src/scrub.S:111
    jal     __metal_memory_scrub
200100fc:	37d1                	jal	200100c0 <__metal_memory_scrub>
/home/jubayer/Documents/riscV/EnergyHarvestingDeviceTestbed/FE310/blinky/freedom-metal/src/scrub.S:113
1:
    bne     a5, t0, skip_scrub
200100fe:	02579863          	bne	a5,t0,2001012e <skip_scrub>
/home/jubayer/Documents/riscV/EnergyHarvestingDeviceTestbed/FE310/blinky/freedom-metal/src/scrub.S:116

    /* Zero out data segment */
    la      t1, metal_segment_data_target_start
20010102:	5fff0317          	auipc	t1,0x5fff0
20010106:	efe30313          	addi	t1,t1,-258 # 80000000 <impure_data>
/home/jubayer/Documents/riscV/EnergyHarvestingDeviceTestbed/FE310/blinky/freedom-metal/src/scrub.S:117
    la      t2, metal_segment_data_target_end
2001010a:	5fff1397          	auipc	t2,0x5fff1
2001010e:	97e38393          	addi	t2,t2,-1666 # 80000a88 <_global_atexit>
/home/jubayer/Documents/riscV/EnergyHarvestingDeviceTestbed/FE310/blinky/freedom-metal/src/scrub.S:118
    beq     t1, t2, 1f
20010112:	00730363          	beq	t1,t2,20010118 <__metal_before_start+0x4c>
/home/jubayer/Documents/riscV/EnergyHarvestingDeviceTestbed/FE310/blinky/freedom-metal/src/scrub.S:119
    jal     __metal_memory_scrub
20010116:	376d                	jal	200100c0 <__metal_memory_scrub>
/home/jubayer/Documents/riscV/EnergyHarvestingDeviceTestbed/FE310/blinky/freedom-metal/src/scrub.S:122
1:
    /* Zero out itim memory */
    la      t1, metal_segment_itim_target_start
20010118:	e7ff0317          	auipc	t1,0xe7ff0
2001011c:	ee830313          	addi	t1,t1,-280 # 8000000 <metal_segment_itim_target_end>
/home/jubayer/Documents/riscV/EnergyHarvestingDeviceTestbed/FE310/blinky/freedom-metal/src/scrub.S:123
    la      t2, metal_segment_itim_target_end
20010120:	e7ff0397          	auipc	t2,0xe7ff0
20010124:	ee038393          	addi	t2,t2,-288 # 8000000 <metal_segment_itim_target_end>
/home/jubayer/Documents/riscV/EnergyHarvestingDeviceTestbed/FE310/blinky/freedom-metal/src/scrub.S:124
    beq     t1, t2, skip_scrub
20010128:	00730363          	beq	t1,t2,2001012e <skip_scrub>
/home/jubayer/Documents/riscV/EnergyHarvestingDeviceTestbed/FE310/blinky/freedom-metal/src/scrub.S:125
    jal     __metal_memory_scrub
2001012c:	3f51                	jal	200100c0 <__metal_memory_scrub>

2001012e <skip_scrub>:
skip_scrub():
/home/jubayer/Documents/riscV/EnergyHarvestingDeviceTestbed/FE310/blinky/freedom-metal/src/scrub.S:129

skip_scrub:
    /* Restore caller ra */
    mv      ra, s0
2001012e:	80a2                	mv	ra,s0
/home/jubayer/Documents/riscV/EnergyHarvestingDeviceTestbed/FE310/blinky/freedom-metal/src/scrub.S:130
    ret
20010130:	8082                	ret
	...

20010134 <early_trap_vector>:
early_trap_vector():
/home/jubayer/Documents/riscV/EnergyHarvestingDeviceTestbed/FE310/blinky/freedom-metal/src/trap.S:64
.section .text.metal.init.trapvec
.global early_trap_vector
.align 2
early_trap_vector:
    .cfi_startproc
    csrr t0, mcause
20010134:	342022f3          	csrr	t0,mcause
/home/jubayer/Documents/riscV/EnergyHarvestingDeviceTestbed/FE310/blinky/freedom-metal/src/trap.S:65
    csrr t1, mepc
20010138:	34102373          	csrr	t1,mepc
/home/jubayer/Documents/riscV/EnergyHarvestingDeviceTestbed/FE310/blinky/freedom-metal/src/trap.S:66
    csrr t2, mtval
2001013c:	343023f3          	csrr	t2,mtval
/home/jubayer/Documents/riscV/EnergyHarvestingDeviceTestbed/FE310/blinky/freedom-metal/src/trap.S:67
    j early_trap_vector
20010140:	bfd5                	j	20010134 <early_trap_vector>

20010142 <__metal_synchronize_harts>:
__metal_synchronize_harts():
/home/jubayer/Documents/riscV/EnergyHarvestingDeviceTestbed/FE310/blinky/freedom-metal/src/synchronize_harts.c:19
/*
 * _synchronize_harts() is called by crt0.S to cause harts > 0 to wait for
 * hart 0 to finish copying the datat section, zeroing the BSS, and running
 * the libc contstructors.
 */
__attribute__((section(".init"))) void __metal_synchronize_harts() {
20010142:	1141                	addi	sp,sp,-16
20010144:	c622                	sw	s0,12(sp)
20010146:	0800                	addi	s0,sp,16
/home/jubayer/Documents/riscV/EnergyHarvestingDeviceTestbed/FE310/blinky/freedom-metal/src/synchronize_harts.c:66
        while (METAL_MSIP(msip_base, hart) == 1)
            ;
    }

#endif /* __METAL_DT_MAX_HARTS > 1 */
}
20010148:	0001                	nop
2001014a:	4432                	lw	s0,12(sp)
2001014c:	0141                	addi	sp,sp,16
2001014e:	8082                	ret

20010150 <_start>:
_start():
/home/jubayer/Documents/riscV/EnergyHarvestingDeviceTestbed/FE310/blinky/freedom-metal/gloss/crt0.S:36
.cfi_startproc
.cfi_undefined ra

  /* This is a bit funky: it's not usually sane for _start to return, but in
   * this case we actually want to in order to signal an error to the METAL. */
  mv s0, ra
20010150:	8406                	mv	s0,ra
/home/jubayer/Documents/riscV/EnergyHarvestingDeviceTestbed/FE310/blinky/freedom-metal/gloss/crt0.S:44
   * safely perform any access that may be relaxed without GP being set.  This
   * is done with relaxation disabled to avoid relaxing the address calculation
   * to just "addi gp, gp, 0". */
.option push
.option norelax
  la gp, __global_pointer$
20010152:	5fff1197          	auipc	gp,0x5fff1
20010156:	10e18193          	addi	gp,gp,270 # 80001260 <__global_pointer$>
/home/jubayer/Documents/riscV/EnergyHarvestingDeviceTestbed/FE310/blinky/freedom-metal/gloss/crt0.S:50
.option pop

  /* Stack pointer is expected to be initialized before _start */

  /* If we're not hart 0, skip the initialization work */
  la t0, __metal_boot_hart
2001015a:	00000293          	li	t0,0
/home/jubayer/Documents/riscV/EnergyHarvestingDeviceTestbed/FE310/blinky/freedom-metal/gloss/crt0.S:51
  bne a0, t0, _skip_init
2001015e:	0e551163          	bne	a0,t0,20010240 <_skip_init>
/home/jubayer/Documents/riscV/EnergyHarvestingDeviceTestbed/FE310/blinky/freedom-metal/gloss/crt0.S:60
   * boot and then need to get relocated into a non-persistant writable memory
   * before C code can execute.  If this is the case we do so here.  This step
   * is optional: if the METAL provides an environment in which this relocation
   * is not necessary then it must simply set metal_segment_data_source_start to
   * be equal to metal_segment_data_target_start. */
  la t0, metal_segment_data_source_start
20010162:	00006297          	auipc	t0,0x6
20010166:	c9e28293          	addi	t0,t0,-866 # 20015e00 <metal_segment_data_source_start>
/home/jubayer/Documents/riscV/EnergyHarvestingDeviceTestbed/FE310/blinky/freedom-metal/gloss/crt0.S:61
  la t1, metal_segment_data_target_start
2001016a:	5fff0317          	auipc	t1,0x5fff0
2001016e:	e9630313          	addi	t1,t1,-362 # 80000000 <impure_data>
/home/jubayer/Documents/riscV/EnergyHarvestingDeviceTestbed/FE310/blinky/freedom-metal/gloss/crt0.S:62
  la t2, metal_segment_data_target_end
20010172:	5fff1397          	auipc	t2,0x5fff1
20010176:	91638393          	addi	t2,t2,-1770 # 80000a88 <_global_atexit>
/home/jubayer/Documents/riscV/EnergyHarvestingDeviceTestbed/FE310/blinky/freedom-metal/gloss/crt0.S:64

  beq t0, t1, 2f
2001017a:	00628c63          	beq	t0,t1,20010192 <_start+0x42>
/home/jubayer/Documents/riscV/EnergyHarvestingDeviceTestbed/FE310/blinky/freedom-metal/gloss/crt0.S:65
  bge t1, t2, 2f
2001017e:	00735a63          	bge	t1,t2,20010192 <_start+0x42>
/home/jubayer/Documents/riscV/EnergyHarvestingDeviceTestbed/FE310/blinky/freedom-metal/gloss/crt0.S:69

1:
#if __riscv_xlen == 32
  lw   a0, 0(t0)
20010182:	0002a503          	lw	a0,0(t0)
/home/jubayer/Documents/riscV/EnergyHarvestingDeviceTestbed/FE310/blinky/freedom-metal/gloss/crt0.S:70
  addi t0, t0, 4
20010186:	0291                	addi	t0,t0,4
/home/jubayer/Documents/riscV/EnergyHarvestingDeviceTestbed/FE310/blinky/freedom-metal/gloss/crt0.S:71
  sw   a0, 0(t1)
20010188:	00a32023          	sw	a0,0(t1)
/home/jubayer/Documents/riscV/EnergyHarvestingDeviceTestbed/FE310/blinky/freedom-metal/gloss/crt0.S:72
  addi t1, t1, 4
2001018c:	0311                	addi	t1,t1,4
/home/jubayer/Documents/riscV/EnergyHarvestingDeviceTestbed/FE310/blinky/freedom-metal/gloss/crt0.S:73
  blt  t1, t2, 1b
2001018e:	fe734ae3          	blt	t1,t2,20010182 <_start+0x32>
/home/jubayer/Documents/riscV/EnergyHarvestingDeviceTestbed/FE310/blinky/freedom-metal/gloss/crt0.S:84
  blt  t1, t2, 1b
#endif
2:

  /* Copy the ITIM section */
  la t0, metal_segment_itim_source_start
20010192:	00001297          	auipc	t0,0x1
20010196:	de628293          	addi	t0,t0,-538 # 20010f78 <metal_segment_itim_source_start>
/home/jubayer/Documents/riscV/EnergyHarvestingDeviceTestbed/FE310/blinky/freedom-metal/gloss/crt0.S:85
  la t1, metal_segment_itim_target_start
2001019a:	e7ff0317          	auipc	t1,0xe7ff0
2001019e:	e6630313          	addi	t1,t1,-410 # 8000000 <metal_segment_itim_target_end>
/home/jubayer/Documents/riscV/EnergyHarvestingDeviceTestbed/FE310/blinky/freedom-metal/gloss/crt0.S:86
  la t2, metal_segment_itim_target_end
200101a2:	e7ff0397          	auipc	t2,0xe7ff0
200101a6:	e5e38393          	addi	t2,t2,-418 # 8000000 <metal_segment_itim_target_end>
/home/jubayer/Documents/riscV/EnergyHarvestingDeviceTestbed/FE310/blinky/freedom-metal/gloss/crt0.S:88

  beq t0, t1, 2f
200101aa:	00628c63          	beq	t0,t1,200101c2 <_start+0x72>
/home/jubayer/Documents/riscV/EnergyHarvestingDeviceTestbed/FE310/blinky/freedom-metal/gloss/crt0.S:89
  bge t1, t2, 2f
200101ae:	00735a63          	bge	t1,t2,200101c2 <_start+0x72>
/home/jubayer/Documents/riscV/EnergyHarvestingDeviceTestbed/FE310/blinky/freedom-metal/gloss/crt0.S:93

1:
#if __riscv_xlen == 32
  lw   a0, 0(t0)
200101b2:	0002a503          	lw	a0,0(t0)
/home/jubayer/Documents/riscV/EnergyHarvestingDeviceTestbed/FE310/blinky/freedom-metal/gloss/crt0.S:94
  addi t0, t0, 4
200101b6:	0291                	addi	t0,t0,4
/home/jubayer/Documents/riscV/EnergyHarvestingDeviceTestbed/FE310/blinky/freedom-metal/gloss/crt0.S:95
  sw   a0, 0(t1)
200101b8:	00a32023          	sw	a0,0(t1)
/home/jubayer/Documents/riscV/EnergyHarvestingDeviceTestbed/FE310/blinky/freedom-metal/gloss/crt0.S:96
  addi t1, t1, 4
200101bc:	0311                	addi	t1,t1,4
/home/jubayer/Documents/riscV/EnergyHarvestingDeviceTestbed/FE310/blinky/freedom-metal/gloss/crt0.S:97
  blt  t1, t2, 1b
200101be:	fe734ae3          	blt	t1,t2,200101b2 <_start+0x62>
/home/jubayer/Documents/riscV/EnergyHarvestingDeviceTestbed/FE310/blinky/freedom-metal/gloss/crt0.S:109
#endif
2:

  /* Fence all subsequent instruction fetches until after the ITIM writes
     complete */
  fence.i
200101c2:	0000100f          	fence.i
/home/jubayer/Documents/riscV/EnergyHarvestingDeviceTestbed/FE310/blinky/freedom-metal/gloss/crt0.S:114

2:

  /* Copy the LIM section */
  la t0, metal_segment_lim_source_start
200101c6:	00001297          	auipc	t0,0x1
200101ca:	db228293          	addi	t0,t0,-590 # 20010f78 <metal_segment_itim_source_start>
/home/jubayer/Documents/riscV/EnergyHarvestingDeviceTestbed/FE310/blinky/freedom-metal/gloss/crt0.S:115
  la t1, metal_segment_lim_target_start
200101ce:	5fff0317          	auipc	t1,0x5fff0
200101d2:	e3230313          	addi	t1,t1,-462 # 80000000 <impure_data>
/home/jubayer/Documents/riscV/EnergyHarvestingDeviceTestbed/FE310/blinky/freedom-metal/gloss/crt0.S:116
  la t2, metal_segment_lim_target_end
200101d6:	5fff0397          	auipc	t2,0x5fff0
200101da:	e2a38393          	addi	t2,t2,-470 # 80000000 <impure_data>
/home/jubayer/Documents/riscV/EnergyHarvestingDeviceTestbed/FE310/blinky/freedom-metal/gloss/crt0.S:118

  beq t0, t1, 2f
200101de:	00628c63          	beq	t0,t1,200101f6 <_start+0xa6>
/home/jubayer/Documents/riscV/EnergyHarvestingDeviceTestbed/FE310/blinky/freedom-metal/gloss/crt0.S:119
  bge t1, t2, 2f
200101e2:	00735a63          	bge	t1,t2,200101f6 <_start+0xa6>
/home/jubayer/Documents/riscV/EnergyHarvestingDeviceTestbed/FE310/blinky/freedom-metal/gloss/crt0.S:123

1:
#if __riscv_xlen == 32
  lw   a0, 0(t0)
200101e6:	0002a503          	lw	a0,0(t0)
/home/jubayer/Documents/riscV/EnergyHarvestingDeviceTestbed/FE310/blinky/freedom-metal/gloss/crt0.S:124
  addi t0, t0, 4
200101ea:	0291                	addi	t0,t0,4
/home/jubayer/Documents/riscV/EnergyHarvestingDeviceTestbed/FE310/blinky/freedom-metal/gloss/crt0.S:125
  sw   a0, 0(t1)
200101ec:	00a32023          	sw	a0,0(t1)
/home/jubayer/Documents/riscV/EnergyHarvestingDeviceTestbed/FE310/blinky/freedom-metal/gloss/crt0.S:126
  addi t1, t1, 4
200101f0:	0311                	addi	t1,t1,4
/home/jubayer/Documents/riscV/EnergyHarvestingDeviceTestbed/FE310/blinky/freedom-metal/gloss/crt0.S:127
  blt  t1, t2, 1b
200101f2:	fe734ae3          	blt	t1,t2,200101e6 <_start+0x96>
/home/jubayer/Documents/riscV/EnergyHarvestingDeviceTestbed/FE310/blinky/freedom-metal/gloss/crt0.S:139
#endif
2:

  /* Fence all subsequent instruction fetches until after the LIM writes
     complete */
  fence.i
200101f6:	0000100f          	fence.i
/home/jubayer/Documents/riscV/EnergyHarvestingDeviceTestbed/FE310/blinky/freedom-metal/gloss/crt0.S:142

  /* Zero the BSS segment. */
  la t1, metal_segment_bss_target_start
200101fa:	5fff1317          	auipc	t1,0x5fff1
200101fe:	88e30313          	addi	t1,t1,-1906 # 80000a88 <_global_atexit>
/home/jubayer/Documents/riscV/EnergyHarvestingDeviceTestbed/FE310/blinky/freedom-metal/gloss/crt0.S:143
  la t2, metal_segment_bss_target_end
20010202:	8c018393          	addi	t2,gp,-1856 # 80000b20 <metal_segment_bss_target_end>
/home/jubayer/Documents/riscV/EnergyHarvestingDeviceTestbed/FE310/blinky/freedom-metal/gloss/crt0.S:145

  bge t1, t2, 2f
20010206:	00735763          	bge	t1,t2,20010214 <_start+0xc4>
/home/jubayer/Documents/riscV/EnergyHarvestingDeviceTestbed/FE310/blinky/freedom-metal/gloss/crt0.S:149

1:
#if __riscv_xlen == 32
  sw   x0, 0(t1)
2001020a:	00032023          	sw	zero,0(t1)
/home/jubayer/Documents/riscV/EnergyHarvestingDeviceTestbed/FE310/blinky/freedom-metal/gloss/crt0.S:150
  addi t1, t1, 4
2001020e:	0311                	addi	t1,t1,4
/home/jubayer/Documents/riscV/EnergyHarvestingDeviceTestbed/FE310/blinky/freedom-metal/gloss/crt0.S:151
  blt  t1, t2, 1b
20010210:	fe734de3          	blt	t1,t2,2001020a <_start+0xba>
/home/jubayer/Documents/riscV/EnergyHarvestingDeviceTestbed/FE310/blinky/freedom-metal/gloss/crt0.S:161
#endif
2:

  /* Set TLS pointer */
  .weak __tls_base	
  la tp, __tls_base
20010214:	5fff1217          	auipc	tp,0x5fff1
20010218:	87420213          	addi	tp,tp,-1932 # 80000a88 <_global_atexit>
/home/jubayer/Documents/riscV/EnergyHarvestingDeviceTestbed/FE310/blinky/freedom-metal/gloss/crt0.S:166

  /* At this point we're in an environment that can execute C code.  The first
   * thing to do is to make the callback to the parent environment if it's been
   * requested to do so. */
  beqz a2, 1f
2001021c:	c211                	beqz	a2,20010220 <_start+0xd0>
/home/jubayer/Documents/riscV/EnergyHarvestingDeviceTestbed/FE310/blinky/freedom-metal/gloss/crt0.S:167
  jalr a2
2001021e:	9602                	jalr	a2
/home/jubayer/Documents/riscV/EnergyHarvestingDeviceTestbed/FE310/blinky/freedom-metal/gloss/crt0.S:171
1:

  /* The RISC-V port only uses new-style constructors and destructors. */
  la a0, __libc_fini_array
20010220:	00005517          	auipc	a0,0x5
20010224:	23650513          	addi	a0,a0,566 # 20015456 <__libc_fini_array>
/home/jubayer/Documents/riscV/EnergyHarvestingDeviceTestbed/FE310/blinky/freedom-metal/gloss/crt0.S:172
  call atexit
20010228:	1fa050ef          	jal	ra,20015422 <atexit>
/home/jubayer/Documents/riscV/EnergyHarvestingDeviceTestbed/FE310/blinky/freedom-metal/gloss/crt0.S:173
  call __libc_init_array
2001022c:	260050ef          	jal	ra,2001548c <__libc_init_array>
/home/jubayer/Documents/riscV/EnergyHarvestingDeviceTestbed/FE310/blinky/freedom-metal/gloss/crt0.S:177

  /* Register metal_fini_run as a destructor and call metal_init_run to
   * run and setup Metal constructors */
  la a0, metal_fini_run
20010230:	00006517          	auipc	a0,0x6
20010234:	ba250513          	addi	a0,a0,-1118 # 20015dd2 <metal_fini_run>
/home/jubayer/Documents/riscV/EnergyHarvestingDeviceTestbed/FE310/blinky/freedom-metal/gloss/crt0.S:178
  call atexit
20010238:	1ea050ef          	jal	ra,20015422 <atexit>
/home/jubayer/Documents/riscV/EnergyHarvestingDeviceTestbed/FE310/blinky/freedom-metal/gloss/crt0.S:179
  call metal_init_run
2001023c:	383050ef          	jal	ra,20015dbe <metal_init_run>

20010240 <_skip_init>:
_skip_init():
/home/jubayer/Documents/riscV/EnergyHarvestingDeviceTestbed/FE310/blinky/freedom-metal/gloss/crt0.S:185

_skip_init:

  /* Synchronize harts so that secondary harts wait until hart 0 finishes
     initializing */
  call __metal_synchronize_harts
20010240:	3709                	jal	20010142 <__metal_synchronize_harts>
/home/jubayer/Documents/riscV/EnergyHarvestingDeviceTestbed/FE310/blinky/freedom-metal/gloss/crt0.S:188

  /* Disable and clear all interrupt sources */
  li   a3, -1
20010242:	56fd                	li	a3,-1
/home/jubayer/Documents/riscV/EnergyHarvestingDeviceTestbed/FE310/blinky/freedom-metal/gloss/crt0.S:189
  csrc mie, a3
20010244:	3046b073          	csrc	mie,a3
/home/jubayer/Documents/riscV/EnergyHarvestingDeviceTestbed/FE310/blinky/freedom-metal/gloss/crt0.S:190
  csrc mip, a3
20010248:	3446b073          	csrc	mip,a3
/home/jubayer/Documents/riscV/EnergyHarvestingDeviceTestbed/FE310/blinky/freedom-metal/gloss/crt0.S:194

  /* The delegation CSRs exist if user mode interrupts (N extension) or
   * supervisor mode (S extension) are supported */
  csrr a5, misa
2001024c:	301027f3          	csrr	a5,misa
/home/jubayer/Documents/riscV/EnergyHarvestingDeviceTestbed/FE310/blinky/freedom-metal/gloss/crt0.S:195
  lui  a4, 0x42
20010250:	00042737          	lui	a4,0x42
/home/jubayer/Documents/riscV/EnergyHarvestingDeviceTestbed/FE310/blinky/freedom-metal/gloss/crt0.S:196
  and  a4, a4, a5
20010254:	8f7d                	and	a4,a4,a5
/home/jubayer/Documents/riscV/EnergyHarvestingDeviceTestbed/FE310/blinky/freedom-metal/gloss/crt0.S:197
  beqz a4, 1f
20010256:	c709                	beqz	a4,20010260 <_skip_init+0x20>
/home/jubayer/Documents/riscV/EnergyHarvestingDeviceTestbed/FE310/blinky/freedom-metal/gloss/crt0.S:198
  csrc mideleg, a3
20010258:	3036b073          	csrc	mideleg,a3
/home/jubayer/Documents/riscV/EnergyHarvestingDeviceTestbed/FE310/blinky/freedom-metal/gloss/crt0.S:199
  csrc medeleg, a3
2001025c:	3026b073          	csrc	medeleg,a3
/home/jubayer/Documents/riscV/EnergyHarvestingDeviceTestbed/FE310/blinky/freedom-metal/gloss/crt0.S:203
1:

  /* The satp CSR exists if supervisor mode (S extension) is supported */
  lui  a4, 0x40
20010260:	00040737          	lui	a4,0x40
/home/jubayer/Documents/riscV/EnergyHarvestingDeviceTestbed/FE310/blinky/freedom-metal/gloss/crt0.S:204
  and  a4, a4, a5
20010264:	8f7d                	and	a4,a4,a5
/home/jubayer/Documents/riscV/EnergyHarvestingDeviceTestbed/FE310/blinky/freedom-metal/gloss/crt0.S:205
  beqz a4, 1f
20010266:	c319                	beqz	a4,2001026c <_skip_init+0x2c>
/home/jubayer/Documents/riscV/EnergyHarvestingDeviceTestbed/FE310/blinky/freedom-metal/gloss/crt0.S:206
  csrc satp, a3
20010268:	1806b073          	csrc	satp,a3
/home/jubayer/Documents/riscV/EnergyHarvestingDeviceTestbed/FE310/blinky/freedom-metal/gloss/crt0.S:210
1:

  /* Check RISC-V isa and enable FS bits if Floating Point architecture. */
  li   a4, 0x10028
2001026c:	6741                	lui	a4,0x10
2001026e:	02870713          	addi	a4,a4,40 # 10028 <__heap_size+0xf828>
/home/jubayer/Documents/riscV/EnergyHarvestingDeviceTestbed/FE310/blinky/freedom-metal/gloss/crt0.S:211
  and  a5, a5, a4
20010272:	8ff9                	and	a5,a5,a4
/home/jubayer/Documents/riscV/EnergyHarvestingDeviceTestbed/FE310/blinky/freedom-metal/gloss/crt0.S:212
  beqz a5, 1f
20010274:	cb89                	beqz	a5,20010286 <_skip_init+0x46>
/home/jubayer/Documents/riscV/EnergyHarvestingDeviceTestbed/FE310/blinky/freedom-metal/gloss/crt0.S:213
  csrr a5, mstatus
20010276:	300027f3          	csrr	a5,mstatus
/home/jubayer/Documents/riscV/EnergyHarvestingDeviceTestbed/FE310/blinky/freedom-metal/gloss/crt0.S:214
  lui  a4, 0x2
2001027a:	6709                	lui	a4,0x2
/home/jubayer/Documents/riscV/EnergyHarvestingDeviceTestbed/FE310/blinky/freedom-metal/gloss/crt0.S:215
  or   a5, a5, a4
2001027c:	8fd9                	or	a5,a5,a4
/home/jubayer/Documents/riscV/EnergyHarvestingDeviceTestbed/FE310/blinky/freedom-metal/gloss/crt0.S:216
  csrw mstatus, a5
2001027e:	30079073          	csrw	mstatus,a5
/home/jubayer/Documents/riscV/EnergyHarvestingDeviceTestbed/FE310/blinky/freedom-metal/gloss/crt0.S:217
  csrwi fcsr, 0
20010282:	00305073          	csrwi	fcsr,0
/home/jubayer/Documents/riscV/EnergyHarvestingDeviceTestbed/FE310/blinky/freedom-metal/gloss/crt0.S:221
1:

  /* Check for vector extension support and enable it if found */
  csrr a5, misa
20010286:	301027f3          	csrr	a5,misa
/home/jubayer/Documents/riscV/EnergyHarvestingDeviceTestbed/FE310/blinky/freedom-metal/gloss/crt0.S:222
  li a4, 0x200000
2001028a:	00200737          	lui	a4,0x200
/home/jubayer/Documents/riscV/EnergyHarvestingDeviceTestbed/FE310/blinky/freedom-metal/gloss/crt0.S:223
  and a5, a5, a4
2001028e:	8ff9                	and	a5,a5,a4
/home/jubayer/Documents/riscV/EnergyHarvestingDeviceTestbed/FE310/blinky/freedom-metal/gloss/crt0.S:224
  beqz a5, 1f
20010290:	c799                	beqz	a5,2001029e <_skip_init+0x5e>
/home/jubayer/Documents/riscV/EnergyHarvestingDeviceTestbed/FE310/blinky/freedom-metal/gloss/crt0.S:225
  csrr a5, mstatus
20010292:	300027f3          	csrr	a5,mstatus
/home/jubayer/Documents/riscV/EnergyHarvestingDeviceTestbed/FE310/blinky/freedom-metal/gloss/crt0.S:226
  ori a5, a5, 0x200
20010296:	2007e793          	ori	a5,a5,512
/home/jubayer/Documents/riscV/EnergyHarvestingDeviceTestbed/FE310/blinky/freedom-metal/gloss/crt0.S:227
  csrw mstatus, a5
2001029a:	30079073          	csrw	mstatus,a5
/home/jubayer/Documents/riscV/EnergyHarvestingDeviceTestbed/FE310/blinky/freedom-metal/gloss/crt0.S:233
1:

  /* This is a C runtime, so main() is defined to have some arguments.  Since
   * there's nothing sane the METAL can pass we don't bother with that but
   * instead just setup as close to a NOP as we can. */
  li a0, 1     /* argc=1 */
2001029e:	4505                	li	a0,1
/home/jubayer/Documents/riscV/EnergyHarvestingDeviceTestbed/FE310/blinky/freedom-metal/gloss/crt0.S:234
  la a1, argv  /* argv = {"libgloss", NULL} */
200102a0:	00001597          	auipc	a1,0x1
200102a4:	b9858593          	addi	a1,a1,-1128 # 20010e38 <argv>
/home/jubayer/Documents/riscV/EnergyHarvestingDeviceTestbed/FE310/blinky/freedom-metal/gloss/crt0.S:235
  la a2, envp  /* envp = {NULL} */
200102a8:	00001617          	auipc	a2,0x1
200102ac:	b9460613          	addi	a2,a2,-1132 # 20010e3c <envp>
/home/jubayer/Documents/riscV/EnergyHarvestingDeviceTestbed/FE310/blinky/freedom-metal/gloss/crt0.S:236
  call secondary_main
200102b0:	2031                	jal	200102bc <secondary_main>
/home/jubayer/Documents/riscV/EnergyHarvestingDeviceTestbed/FE310/blinky/freedom-metal/gloss/crt0.S:242

  /* Call exit to handle libc's cleanup routines.  Under normal contains this
   * shouldn't even get called, but I'm still not using a tail call here
   * because returning to the METAL is the right thing to do in pathological
   * situations. */
  call exit
200102b2:	17a050ef          	jal	ra,2001542c <exit>
/home/jubayer/Documents/riscV/EnergyHarvestingDeviceTestbed/FE310/blinky/freedom-metal/gloss/crt0.S:247

  /* And here's where we return.  Again, it's a bit odd but the METAL defines
   * this as a bad idea (ie, as opposed to leaving it undefined) and at this
   * point it's really the only thing left to do. */
  mv ra, s0
200102b6:	80a2                	mv	ra,s0
/home/jubayer/Documents/riscV/EnergyHarvestingDeviceTestbed/FE310/blinky/freedom-metal/gloss/crt0.S:248
  ret
200102b8:	8082                	ret

200102ba <_fini>:
_init():
/home/jubayer/Documents/riscV/EnergyHarvestingDeviceTestbed/FE310/blinky/freedom-metal/gloss/crt0.S:260
.type   _init, @function
.global _fini
.type   _fini, @function
_init:
_fini:
  ret
200102ba:	8082                	ret

200102bc <secondary_main>:
secondary_main():
/home/jubayer/Documents/riscV/EnergyHarvestingDeviceTestbed/FE310/blinky/freedom-metal/gloss/crt0.S:271
.weak   secondary_main
.global secondary_main
.type   secondary_main, @function

secondary_main:
  addi sp, sp, -16
200102bc:	1141                	addi	sp,sp,-16
/home/jubayer/Documents/riscV/EnergyHarvestingDeviceTestbed/FE310/blinky/freedom-metal/gloss/crt0.S:273
#if __riscv_xlen == 32
  sw ra, 4(sp)
200102be:	c206                	sw	ra,4(sp)
/home/jubayer/Documents/riscV/EnergyHarvestingDeviceTestbed/FE310/blinky/freedom-metal/gloss/crt0.S:277
#else
  sd ra, 8(sp)
#endif
  csrr t0, mhartid
200102c0:	f14022f3          	csrr	t0,mhartid
/home/jubayer/Documents/riscV/EnergyHarvestingDeviceTestbed/FE310/blinky/freedom-metal/gloss/crt0.S:278
  la t1, __metal_boot_hart
200102c4:	00000313          	li	t1,0
/home/jubayer/Documents/riscV/EnergyHarvestingDeviceTestbed/FE310/blinky/freedom-metal/gloss/crt0.S:279
  beq t0, t1, 2f
200102c8:	00628563          	beq	t0,t1,200102d2 <secondary_main+0x16>
/home/jubayer/Documents/riscV/EnergyHarvestingDeviceTestbed/FE310/blinky/freedom-metal/gloss/crt0.S:281
1:
  wfi
200102cc:	10500073          	wfi
/home/jubayer/Documents/riscV/EnergyHarvestingDeviceTestbed/FE310/blinky/freedom-metal/gloss/crt0.S:282
  j 1b
200102d0:	bff5                	j	200102cc <secondary_main+0x10>
/home/jubayer/Documents/riscV/EnergyHarvestingDeviceTestbed/FE310/blinky/freedom-metal/gloss/crt0.S:284
2:
  call main
200102d2:	4f1000ef          	jal	ra,20010fc2 <main>
/home/jubayer/Documents/riscV/EnergyHarvestingDeviceTestbed/FE310/blinky/freedom-metal/gloss/crt0.S:286
#if __riscv_xlen == 32
  lw ra, 4(sp)
200102d6:	4092                	lw	ra,4(sp)
/home/jubayer/Documents/riscV/EnergyHarvestingDeviceTestbed/FE310/blinky/freedom-metal/gloss/crt0.S:290
#else
  ld ra, 8(sp)
#endif
  addi sp, sp, 16
200102d8:	0141                	addi	sp,sp,16
/home/jubayer/Documents/riscV/EnergyHarvestingDeviceTestbed/FE310/blinky/freedom-metal/gloss/crt0.S:291
  ret
200102da:	8082                	ret

Disassembly of section .ctors:

200102e8 <metal_sifive_fe310_g000_pll_init>:
metal_sifive_fe310_g000_pll_init():
/home/jubayer/Documents/riscV/EnergyHarvestingDeviceTestbed/FE310/blinky/freedom-metal/src/drivers/sifive_fe310-g000_pll.c:151
    return pll_input_rate * config->multiplier / config->divisor;
}

#ifdef __METAL_DT_SIFIVE_FE310_G000_PLL_HANDLE

METAL_CONSTRUCTOR(metal_sifive_fe310_g000_pll_init) {
200102e8:	1101                	addi	sp,sp,-32
200102ea:	ce06                	sw	ra,28(sp)
200102ec:	cc22                	sw	s0,24(sp)
200102ee:	1000                	addi	s0,sp,32
/home/jubayer/Documents/riscV/EnergyHarvestingDeviceTestbed/FE310/blinky/freedom-metal/src/drivers/sifive_fe310-g000_pll.c:152
    long init_rate = __metal_driver_sifive_fe310_g000_pll_init_rate();
200102f0:	311030ef          	jal	ra,20013e00 <__metal_driver_sifive_fe310_g000_pll_init_rate>
200102f4:	fea42623          	sw	a0,-20(s0)
/home/jubayer/Documents/riscV/EnergyHarvestingDeviceTestbed/FE310/blinky/freedom-metal/src/drivers/sifive_fe310-g000_pll.c:154
    /* If the PLL init_rate is zero, don't initialize the PLL */
    if (init_rate != 0)
200102f8:	fec42783          	lw	a5,-20(s0)
200102fc:	c799                	beqz	a5,2001030a <metal_sifive_fe310_g000_pll_init+0x22>
/home/jubayer/Documents/riscV/EnergyHarvestingDeviceTestbed/FE310/blinky/freedom-metal/src/drivers/sifive_fe310-g000_pll.c:155
        __metal_driver_sifive_fe310_g000_pll_init(
200102fe:	800017b7          	lui	a5,0x80001
20010302:	a5078513          	addi	a0,a5,-1456 # 80000a50 <__global_pointer$+0xfffff7f0>
20010306:	387030ef          	jal	ra,20013e8c <__metal_driver_sifive_fe310_g000_pll_init>
/home/jubayer/Documents/riscV/EnergyHarvestingDeviceTestbed/FE310/blinky/freedom-metal/src/drivers/sifive_fe310-g000_pll.c:157
            __METAL_DT_SIFIVE_FE310_G000_PLL_HANDLE);
}
2001030a:	0001                	nop
2001030c:	40f2                	lw	ra,28(sp)
2001030e:	4462                	lw	s0,24(sp)
20010310:	6105                	addi	sp,sp,32
20010312:	8082                	ret

20010314 <use_hfxosc>:
use_hfxosc():
/home/jubayer/Documents/riscV/EnergyHarvestingDeviceTestbed/FE310/blinky/freedom-metal/src/drivers/sifive_fe310-g000_pll.c:389

    return __metal_driver_sifive_fe310_g000_pll_get_rate_hz(clock);
}

#ifdef __METAL_DT_SIFIVE_FE310_G000_PLL_HANDLE
METAL_CONSTRUCTOR(use_hfxosc) {
20010314:	1101                	addi	sp,sp,-32
20010316:	ce06                	sw	ra,28(sp)
20010318:	cc22                	sw	s0,24(sp)
2001031a:	1000                	addi	s0,sp,32
/home/jubayer/Documents/riscV/EnergyHarvestingDeviceTestbed/FE310/blinky/freedom-metal/src/drivers/sifive_fe310-g000_pll.c:390
    long init_rate = __metal_driver_sifive_fe310_g000_pll_init_rate();
2001031c:	2e5030ef          	jal	ra,20013e00 <__metal_driver_sifive_fe310_g000_pll_init_rate>
20010320:	fea42623          	sw	a0,-20(s0)
/home/jubayer/Documents/riscV/EnergyHarvestingDeviceTestbed/FE310/blinky/freedom-metal/src/drivers/sifive_fe310-g000_pll.c:391
    metal_clock_set_rate_hz(&__METAL_DT_SIFIVE_FE310_G000_PLL_HANDLE->clock,
20010324:	fec42583          	lw	a1,-20(s0)
20010328:	800017b7          	lui	a5,0x80001
2001032c:	a5078513          	addi	a0,a5,-1456 # 80000a50 <__global_pointer$+0xfffff7f0>
20010330:	46b040ef          	jal	ra,20014f9a <metal_clock_set_rate_hz>
/home/jubayer/Documents/riscV/EnergyHarvestingDeviceTestbed/FE310/blinky/freedom-metal/src/drivers/sifive_fe310-g000_pll.c:393
                            init_rate);
}
20010334:	0001                	nop
20010336:	40f2                	lw	ra,28(sp)
20010338:	4462                	lw	s0,24(sp)
2001033a:	6105                	addi	sp,sp,32
2001033c:	8082                	ret

Disassembly of section .text:

20010f80 <delay>:
delay():
/home/jubayer/Documents/riscV/EnergyHarvestingDeviceTestbed/FE310/blinky/src/hello.c:9
#include <stdio.h>      //include Serial Library
#include <time.h>       //include Time library
#include <metal/gpio.h> //include GPIO library, https://sifive.github.io/freedom-metal-docs/apiref/gpio.html


void delay(int number_of_microseconds){
20010f80:	7179                	addi	sp,sp,-48
20010f82:	d606                	sw	ra,44(sp)
20010f84:	d422                	sw	s0,40(sp)
20010f86:	1800                	addi	s0,sp,48
20010f88:	fca42e23          	sw	a0,-36(s0)
/home/jubayer/Documents/riscV/EnergyHarvestingDeviceTestbed/FE310/blinky/src/hello.c:12

// Converting time into multiples of a hundred nS
int hundred_ns = 10 * number_of_microseconds;
20010f8c:	fdc42703          	lw	a4,-36(s0)
20010f90:	87ba                	mv	a5,a4
20010f92:	078a                	slli	a5,a5,0x2
20010f94:	97ba                	add	a5,a5,a4
20010f96:	0786                	slli	a5,a5,0x1
20010f98:	fef42623          	sw	a5,-20(s0)
/home/jubayer/Documents/riscV/EnergyHarvestingDeviceTestbed/FE310/blinky/src/hello.c:15

// Storing start time
clock_t start_time = clock();
20010f9c:	2895                	jal	20011010 <clock>
20010f9e:	fea42423          	sw	a0,-24(s0)
/home/jubayer/Documents/riscV/EnergyHarvestingDeviceTestbed/FE310/blinky/src/hello.c:18

// looping till required time is not achieved
while (clock() < start_time + hundred_ns);
20010fa2:	0001                	nop
/home/jubayer/Documents/riscV/EnergyHarvestingDeviceTestbed/FE310/blinky/src/hello.c:18 (discriminator 1)
20010fa4:	20b5                	jal	20011010 <clock>
20010fa6:	86aa                	mv	a3,a0
20010fa8:	fec42703          	lw	a4,-20(s0)
20010fac:	fe842783          	lw	a5,-24(s0)
20010fb0:	97ba                	add	a5,a5,a4
20010fb2:	fef6e9e3          	bltu	a3,a5,20010fa4 <delay+0x24>
/home/jubayer/Documents/riscV/EnergyHarvestingDeviceTestbed/FE310/blinky/src/hello.c:20

}
20010fb6:	0001                	nop
20010fb8:	0001                	nop
20010fba:	50b2                	lw	ra,44(sp)
20010fbc:	5422                	lw	s0,40(sp)
20010fbe:	6145                	addi	sp,sp,48
20010fc0:	8082                	ret

20010fc2 <main>:
main():
/home/jubayer/Documents/riscV/EnergyHarvestingDeviceTestbed/FE310/blinky/src/hello.c:22

int main (void) {
20010fc2:	1101                	addi	sp,sp,-32
20010fc4:	ce06                	sw	ra,28(sp)
20010fc6:	cc22                	sw	s0,24(sp)
20010fc8:	1000                	addi	s0,sp,32
/home/jubayer/Documents/riscV/EnergyHarvestingDeviceTestbed/FE310/blinky/src/hello.c:28

  struct metal_gpio *led0;


  //Get gpio device handle, i.e.) define IC pin here where IC's GPIO = 5/SPI.CLK
  led0 = metal_gpio_get_device(0);
20010fca:	4501                	li	a0,0
20010fcc:	2a71                	jal	20011168 <metal_gpio_get_device>
20010fce:	fea42623          	sw	a0,-20(s0)
/home/jubayer/Documents/riscV/EnergyHarvestingDeviceTestbed/FE310/blinky/src/hello.c:29
  metal_gpio_disable_input(led0, 5); // We are sending stuff out.
20010fd2:	4595                	li	a1,5
20010fd4:	fec42503          	lw	a0,-20(s0)
20010fd8:	20a5                	jal	20011040 <metal_gpio_disable_input>
/home/jubayer/Documents/riscV/EnergyHarvestingDeviceTestbed/FE310/blinky/src/hello.c:30
  metal_gpio_enable_output(led0, 5);
20010fda:	4595                	li	a1,5
20010fdc:	fec42503          	lw	a0,-20(s0)
20010fe0:	2045                	jal	20011080 <metal_gpio_enable_output>
/home/jubayer/Documents/riscV/EnergyHarvestingDeviceTestbed/FE310/blinky/src/hello.c:31
  metal_gpio_disable_pinmux(led0, 5);
20010fe2:	4595                	li	a1,5
20010fe4:	fec42503          	lw	a0,-20(s0)
20010fe8:	2281                	jal	20011128 <metal_gpio_disable_pinmux>
/home/jubayer/Documents/riscV/EnergyHarvestingDeviceTestbed/FE310/blinky/src/hello.c:37 (discriminator 1)

  //Turn ON pin
//  metal_gpio_set_pin(led0, 5, 1);
  while (1) {
      //Turn OFF pin
      metal_gpio_set_pin(led0, 5, 0); // of
20010fea:	4601                	li	a2,0
20010fec:	4595                	li	a1,5
20010fee:	fec42503          	lw	a0,-20(s0)
20010ff2:	20f9                	jal	200110c0 <metal_gpio_set_pin>
/home/jubayer/Documents/riscV/EnergyHarvestingDeviceTestbed/FE310/blinky/src/hello.c:38 (discriminator 1)
      delay(20000);
20010ff4:	6795                	lui	a5,0x5
20010ff6:	e2078513          	addi	a0,a5,-480 # 4e20 <__heap_size+0x4620>
20010ffa:	3759                	jal	20010f80 <delay>
/home/jubayer/Documents/riscV/EnergyHarvestingDeviceTestbed/FE310/blinky/src/hello.c:39 (discriminator 1)
      metal_gpio_set_pin(led0, 5, 1);
20010ffc:	4605                	li	a2,1
20010ffe:	4595                	li	a1,5
20011000:	fec42503          	lw	a0,-20(s0)
20011004:	2875                	jal	200110c0 <metal_gpio_set_pin>
/home/jubayer/Documents/riscV/EnergyHarvestingDeviceTestbed/FE310/blinky/src/hello.c:40 (discriminator 1)
      delay(20000);
20011006:	6795                	lui	a5,0x5
20011008:	e2078513          	addi	a0,a5,-480 # 4e20 <__heap_size+0x4620>
2001100c:	3f95                	jal	20010f80 <delay>
/home/jubayer/Documents/riscV/EnergyHarvestingDeviceTestbed/FE310/blinky/src/hello.c:37 (discriminator 1)
      metal_gpio_set_pin(led0, 5, 0); // of
2001100e:	bff1                	j	20010fea <main+0x28>

20011010 <clock>:
clock():
20011010:	1101                	addi	sp,sp,-32
20011012:	858a                	mv	a1,sp
20011014:	5fff0517          	auipc	a0,0x5fff0
20011018:	a4c52503          	lw	a0,-1460(a0) # 80000a60 <_impure_ptr>
2001101c:	ce06                	sw	ra,28(sp)
2001101e:	2831                	jal	2001103a <_times_r>
20011020:	57fd                	li	a5,-1
20011022:	00f50963          	beq	a0,a5,20011034 <clock+0x24>
20011026:	4792                	lw	a5,4(sp)
20011028:	4502                	lw	a0,0(sp)
2001102a:	953e                	add	a0,a0,a5
2001102c:	47a2                	lw	a5,8(sp)
2001102e:	953e                	add	a0,a0,a5
20011030:	47b2                	lw	a5,12(sp)
20011032:	953e                	add	a0,a0,a5
20011034:	40f2                	lw	ra,28(sp)
20011036:	6105                	addi	sp,sp,32
20011038:	8082                	ret

2001103a <_times_r>:
_times_r():
2001103a:	852e                	mv	a0,a1
2001103c:	35c0406f          	j	20015398 <_times>

20011040 <metal_gpio_disable_input>:
metal_gpio_disable_input():
/home/jubayer/Documents/riscV/EnergyHarvestingDeviceTestbed/FE310/blinky/freedom-metal/metal/gpio.h:79
 * @brief Disable input on a pin
 * @param gpio The handle for the GPIO interface
 * @param pin The pin number indexed from 0
 * @return 0 if the input is successfully disabled
 */
__inline__ int metal_gpio_disable_input(struct metal_gpio *gpio, int pin) {
20011040:	1101                	addi	sp,sp,-32
20011042:	ce06                	sw	ra,28(sp)
20011044:	cc22                	sw	s0,24(sp)
20011046:	1000                	addi	s0,sp,32
20011048:	fea42623          	sw	a0,-20(s0)
2001104c:	feb42423          	sw	a1,-24(s0)
/home/jubayer/Documents/riscV/EnergyHarvestingDeviceTestbed/FE310/blinky/freedom-metal/metal/gpio.h:80
    if (!gpio) {
20011050:	fec42783          	lw	a5,-20(s0)
20011054:	e399                	bnez	a5,2001105a <metal_gpio_disable_input+0x1a>
/home/jubayer/Documents/riscV/EnergyHarvestingDeviceTestbed/FE310/blinky/freedom-metal/metal/gpio.h:81
        return 1;
20011056:	4785                	li	a5,1
20011058:	a839                	j	20011076 <metal_gpio_disable_input+0x36>
/home/jubayer/Documents/riscV/EnergyHarvestingDeviceTestbed/FE310/blinky/freedom-metal/metal/gpio.h:84
    }

    return gpio->vtable->disable_input(gpio, (1 << pin));
2001105a:	fec42783          	lw	a5,-20(s0)
2001105e:	439c                	lw	a5,0(a5)
20011060:	4394                	lw	a3,0(a5)
20011062:	fe842783          	lw	a5,-24(s0)
20011066:	4705                	li	a4,1
20011068:	00f717b3          	sll	a5,a4,a5
2001106c:	85be                	mv	a1,a5
2001106e:	fec42503          	lw	a0,-20(s0)
20011072:	9682                	jalr	a3
20011074:	87aa                	mv	a5,a0
/home/jubayer/Documents/riscV/EnergyHarvestingDeviceTestbed/FE310/blinky/freedom-metal/metal/gpio.h:85
}
20011076:	853e                	mv	a0,a5
20011078:	40f2                	lw	ra,28(sp)
2001107a:	4462                	lw	s0,24(sp)
2001107c:	6105                	addi	sp,sp,32
2001107e:	8082                	ret

20011080 <metal_gpio_enable_output>:
metal_gpio_enable_output():
/home/jubayer/Documents/riscV/EnergyHarvestingDeviceTestbed/FE310/blinky/freedom-metal/metal/gpio.h:93
 * @brief Enable output on a pin
 * @param gpio The handle for the GPIO interface
 * @param pin The pin number indexed from 0
 * @return 0 if the output is successfully enabled
 */
__inline__ int metal_gpio_enable_output(struct metal_gpio *gpio, int pin) {
20011080:	1101                	addi	sp,sp,-32
20011082:	ce06                	sw	ra,28(sp)
20011084:	cc22                	sw	s0,24(sp)
20011086:	1000                	addi	s0,sp,32
20011088:	fea42623          	sw	a0,-20(s0)
2001108c:	feb42423          	sw	a1,-24(s0)
/home/jubayer/Documents/riscV/EnergyHarvestingDeviceTestbed/FE310/blinky/freedom-metal/metal/gpio.h:94
    if (!gpio) {
20011090:	fec42783          	lw	a5,-20(s0)
20011094:	e399                	bnez	a5,2001109a <metal_gpio_enable_output+0x1a>
/home/jubayer/Documents/riscV/EnergyHarvestingDeviceTestbed/FE310/blinky/freedom-metal/metal/gpio.h:95
        return 1;
20011096:	4785                	li	a5,1
20011098:	a839                	j	200110b6 <metal_gpio_enable_output+0x36>
/home/jubayer/Documents/riscV/EnergyHarvestingDeviceTestbed/FE310/blinky/freedom-metal/metal/gpio.h:98
    }

    return gpio->vtable->enable_output(gpio, (1 << pin));
2001109a:	fec42783          	lw	a5,-20(s0)
2001109e:	439c                	lw	a5,0(a5)
200110a0:	4bd4                	lw	a3,20(a5)
200110a2:	fe842783          	lw	a5,-24(s0)
200110a6:	4705                	li	a4,1
200110a8:	00f717b3          	sll	a5,a4,a5
200110ac:	85be                	mv	a1,a5
200110ae:	fec42503          	lw	a0,-20(s0)
200110b2:	9682                	jalr	a3
200110b4:	87aa                	mv	a5,a0
/home/jubayer/Documents/riscV/EnergyHarvestingDeviceTestbed/FE310/blinky/freedom-metal/metal/gpio.h:99
}
200110b6:	853e                	mv	a0,a5
200110b8:	40f2                	lw	ra,28(sp)
200110ba:	4462                	lw	s0,24(sp)
200110bc:	6105                	addi	sp,sp,32
200110be:	8082                	ret

200110c0 <metal_gpio_set_pin>:
metal_gpio_set_pin():
/home/jubayer/Documents/riscV/EnergyHarvestingDeviceTestbed/FE310/blinky/freedom-metal/metal/gpio.h:122
 * @param gpio The handle for the GPIO interface
 * @param pin The pin number indexed from 0
 * @param value The value to set the pin to
 * @return 0 if the output is successfully set
 */
__inline__ int metal_gpio_set_pin(struct metal_gpio *gpio, int pin, int value) {
200110c0:	1101                	addi	sp,sp,-32
200110c2:	ce06                	sw	ra,28(sp)
200110c4:	cc22                	sw	s0,24(sp)
200110c6:	1000                	addi	s0,sp,32
200110c8:	fea42623          	sw	a0,-20(s0)
200110cc:	feb42423          	sw	a1,-24(s0)
200110d0:	fec42223          	sw	a2,-28(s0)
/home/jubayer/Documents/riscV/EnergyHarvestingDeviceTestbed/FE310/blinky/freedom-metal/metal/gpio.h:123
    if (!gpio) {
200110d4:	fec42783          	lw	a5,-20(s0)
200110d8:	e399                	bnez	a5,200110de <metal_gpio_set_pin+0x1e>
/home/jubayer/Documents/riscV/EnergyHarvestingDeviceTestbed/FE310/blinky/freedom-metal/metal/gpio.h:124
        return 1;
200110da:	4785                	li	a5,1
200110dc:	a089                	j	2001111e <metal_gpio_set_pin+0x5e>
/home/jubayer/Documents/riscV/EnergyHarvestingDeviceTestbed/FE310/blinky/freedom-metal/metal/gpio.h:127
    }

    if (value == 0) {
200110de:	fe442783          	lw	a5,-28(s0)
200110e2:	e385                	bnez	a5,20011102 <metal_gpio_set_pin+0x42>
/home/jubayer/Documents/riscV/EnergyHarvestingDeviceTestbed/FE310/blinky/freedom-metal/metal/gpio.h:128
        return gpio->vtable->output_clear(gpio, (1 << pin));
200110e4:	fec42783          	lw	a5,-20(s0)
200110e8:	439c                	lw	a5,0(a5)
200110ea:	4fd4                	lw	a3,28(a5)
200110ec:	fe842783          	lw	a5,-24(s0)
200110f0:	4705                	li	a4,1
200110f2:	00f717b3          	sll	a5,a4,a5
200110f6:	85be                	mv	a1,a5
200110f8:	fec42503          	lw	a0,-20(s0)
200110fc:	9682                	jalr	a3
200110fe:	87aa                	mv	a5,a0
20011100:	a839                	j	2001111e <metal_gpio_set_pin+0x5e>
/home/jubayer/Documents/riscV/EnergyHarvestingDeviceTestbed/FE310/blinky/freedom-metal/metal/gpio.h:130
    } else {
        return gpio->vtable->output_set(gpio, (1 << pin));
20011102:	fec42783          	lw	a5,-20(s0)
20011106:	439c                	lw	a5,0(a5)
20011108:	4f94                	lw	a3,24(a5)
2001110a:	fe842783          	lw	a5,-24(s0)
2001110e:	4705                	li	a4,1
20011110:	00f717b3          	sll	a5,a4,a5
20011114:	85be                	mv	a1,a5
20011116:	fec42503          	lw	a0,-20(s0)
2001111a:	9682                	jalr	a3
2001111c:	87aa                	mv	a5,a0
/home/jubayer/Documents/riscV/EnergyHarvestingDeviceTestbed/FE310/blinky/freedom-metal/metal/gpio.h:132
    }
}
2001111e:	853e                	mv	a0,a5
20011120:	40f2                	lw	ra,28(sp)
20011122:	4462                	lw	s0,24(sp)
20011124:	6105                	addi	sp,sp,32
20011126:	8082                	ret

20011128 <metal_gpio_disable_pinmux>:
metal_gpio_disable_pinmux():
/home/jubayer/Documents/riscV/EnergyHarvestingDeviceTestbed/FE310/blinky/freedom-metal/metal/gpio.h:224
 * @brief Disables the pinmux for a GPIO pin
 * @param gpio The handle for the GPIO interface
 * @param pin The bitmask for the pin to disable pinmux on
 * @return 0 if the pinmux is successfully set
 */
__inline__ int metal_gpio_disable_pinmux(struct metal_gpio *gpio, int pin) {
20011128:	1101                	addi	sp,sp,-32
2001112a:	ce06                	sw	ra,28(sp)
2001112c:	cc22                	sw	s0,24(sp)
2001112e:	1000                	addi	s0,sp,32
20011130:	fea42623          	sw	a0,-20(s0)
20011134:	feb42423          	sw	a1,-24(s0)
/home/jubayer/Documents/riscV/EnergyHarvestingDeviceTestbed/FE310/blinky/freedom-metal/metal/gpio.h:225
    if (!gpio) {
20011138:	fec42783          	lw	a5,-20(s0)
2001113c:	e399                	bnez	a5,20011142 <metal_gpio_disable_pinmux+0x1a>
/home/jubayer/Documents/riscV/EnergyHarvestingDeviceTestbed/FE310/blinky/freedom-metal/metal/gpio.h:226
        return 1;
2001113e:	4785                	li	a5,1
20011140:	a839                	j	2001115e <metal_gpio_disable_pinmux+0x36>
/home/jubayer/Documents/riscV/EnergyHarvestingDeviceTestbed/FE310/blinky/freedom-metal/metal/gpio.h:229
    }

    return gpio->vtable->disable_io(gpio, (1 << pin));
20011142:	fec42783          	lw	a5,-20(s0)
20011146:	439c                	lw	a5,0(a5)
20011148:	5794                	lw	a3,40(a5)
2001114a:	fe842783          	lw	a5,-24(s0)
2001114e:	4705                	li	a4,1
20011150:	00f717b3          	sll	a5,a4,a5
20011154:	85be                	mv	a1,a5
20011156:	fec42503          	lw	a0,-20(s0)
2001115a:	9682                	jalr	a3
2001115c:	87aa                	mv	a5,a0
/home/jubayer/Documents/riscV/EnergyHarvestingDeviceTestbed/FE310/blinky/freedom-metal/metal/gpio.h:230
}
2001115e:	853e                	mv	a0,a5
20011160:	40f2                	lw	ra,28(sp)
20011162:	4462                	lw	s0,24(sp)
20011164:	6105                	addi	sp,sp,32
20011166:	8082                	ret

20011168 <metal_gpio_get_device>:
metal_gpio_get_device():
/home/jubayer/Documents/riscV/EnergyHarvestingDeviceTestbed/FE310/blinky/freedom-metal/src/gpio.c:34
extern __inline__ int metal_gpio_config_interrupt(struct metal_gpio *gpio,
                                                  int pin, int intr_type);
extern __inline__ int metal_gpio_clear_interrupt(struct metal_gpio *gpio,
                                                 int pin, int intr_type);

struct metal_gpio *metal_gpio_get_device(unsigned int device_num) {
20011168:	1101                	addi	sp,sp,-32
2001116a:	ce22                	sw	s0,28(sp)
2001116c:	1000                	addi	s0,sp,32
2001116e:	fea42623          	sw	a0,-20(s0)
/home/jubayer/Documents/riscV/EnergyHarvestingDeviceTestbed/FE310/blinky/freedom-metal/src/gpio.c:35
    if (device_num > __MEE_DT_MAX_GPIOS) {
20011172:	fec42703          	lw	a4,-20(s0)
20011176:	4785                	li	a5,1
20011178:	00e7f463          	bgeu	a5,a4,20011180 <metal_gpio_get_device+0x18>
/home/jubayer/Documents/riscV/EnergyHarvestingDeviceTestbed/FE310/blinky/freedom-metal/src/gpio.c:36
        return NULL;
2001117c:	4781                	li	a5,0
2001117e:	a811                	j	20011192 <metal_gpio_get_device+0x2a>
/home/jubayer/Documents/riscV/EnergyHarvestingDeviceTestbed/FE310/blinky/freedom-metal/src/gpio.c:39
    }

    return (struct metal_gpio *)__metal_gpio_table[device_num];
20011180:	800017b7          	lui	a5,0x80001
20011184:	fec42703          	lw	a4,-20(s0)
20011188:	070a                	slli	a4,a4,0x2
2001118a:	a6878793          	addi	a5,a5,-1432 # 80000a68 <__global_pointer$+0xfffff808>
2001118e:	97ba                	add	a5,a5,a4
20011190:	439c                	lw	a5,0(a5)
/home/jubayer/Documents/riscV/EnergyHarvestingDeviceTestbed/FE310/blinky/freedom-metal/src/gpio.c:40
}
20011192:	853e                	mv	a0,a5
20011194:	4472                	lw	s0,28(sp)
20011196:	6105                	addi	sp,sp,32
20011198:	8082                	ret

2001119a <__metal_driver_sifive_clint0_control_base>:
__metal_driver_sifive_clint0_control_base():
/home/jubayer/Documents/riscV/EnergyHarvestingDeviceTestbed/FE310/blinky/bsp/build/debug/./metal/machine.h:233
/* --------------------- fixed_factor_clock ------------ */


/* --------------------- sifive_clint0 ------------ */
static __inline__ unsigned long __metal_driver_sifive_clint0_control_base(struct metal_interrupt *controller)
{
2001119a:	1101                	addi	sp,sp,-32
2001119c:	ce22                	sw	s0,28(sp)
2001119e:	1000                	addi	s0,sp,32
200111a0:	fea42623          	sw	a0,-20(s0)
/home/jubayer/Documents/riscV/EnergyHarvestingDeviceTestbed/FE310/blinky/bsp/build/debug/./metal/machine.h:234
	if ((uintptr_t)controller == (uintptr_t)&__metal_dt_clint_2000000) {
200111a4:	fec42703          	lw	a4,-20(s0)
200111a8:	800017b7          	lui	a5,0x80001
200111ac:	a6c78793          	addi	a5,a5,-1428 # 80000a6c <__global_pointer$+0xfffff80c>
200111b0:	00f71563          	bne	a4,a5,200111ba <__metal_driver_sifive_clint0_control_base+0x20>
/home/jubayer/Documents/riscV/EnergyHarvestingDeviceTestbed/FE310/blinky/bsp/build/debug/./metal/machine.h:235
		return METAL_RISCV_CLINT0_2000000_BASE_ADDRESS;
200111b4:	020007b7          	lui	a5,0x2000
200111b8:	a011                	j	200111bc <__metal_driver_sifive_clint0_control_base+0x22>
/home/jubayer/Documents/riscV/EnergyHarvestingDeviceTestbed/FE310/blinky/bsp/build/debug/./metal/machine.h:238
	}
	else {
		return 0;
200111ba:	4781                	li	a5,0
/home/jubayer/Documents/riscV/EnergyHarvestingDeviceTestbed/FE310/blinky/bsp/build/debug/./metal/machine.h:240
	}
}
200111bc:	853e                	mv	a0,a5
200111be:	4472                	lw	s0,28(sp)
200111c0:	6105                	addi	sp,sp,32
200111c2:	8082                	ret

200111c4 <__metal_driver_sifive_clint0_num_interrupts>:
__metal_driver_sifive_clint0_num_interrupts():
/home/jubayer/Documents/riscV/EnergyHarvestingDeviceTestbed/FE310/blinky/bsp/build/debug/./metal/machine.h:253
		return 0;
	}
}

static __inline__ int __metal_driver_sifive_clint0_num_interrupts(struct metal_interrupt *controller)
{
200111c4:	1101                	addi	sp,sp,-32
200111c6:	ce22                	sw	s0,28(sp)
200111c8:	1000                	addi	s0,sp,32
200111ca:	fea42623          	sw	a0,-20(s0)
/home/jubayer/Documents/riscV/EnergyHarvestingDeviceTestbed/FE310/blinky/bsp/build/debug/./metal/machine.h:254
	if ((uintptr_t)controller == (uintptr_t)&__metal_dt_clint_2000000) {
200111ce:	fec42703          	lw	a4,-20(s0)
200111d2:	800017b7          	lui	a5,0x80001
200111d6:	a6c78793          	addi	a5,a5,-1428 # 80000a6c <__global_pointer$+0xfffff80c>
200111da:	00f71463          	bne	a4,a5,200111e2 <__metal_driver_sifive_clint0_num_interrupts+0x1e>
/home/jubayer/Documents/riscV/EnergyHarvestingDeviceTestbed/FE310/blinky/bsp/build/debug/./metal/machine.h:255
		return METAL_MAX_CLINT_INTERRUPTS;
200111de:	4789                	li	a5,2
200111e0:	a011                	j	200111e4 <__metal_driver_sifive_clint0_num_interrupts+0x20>
/home/jubayer/Documents/riscV/EnergyHarvestingDeviceTestbed/FE310/blinky/bsp/build/debug/./metal/machine.h:258
	}
	else {
		return 0;
200111e2:	4781                	li	a5,0
/home/jubayer/Documents/riscV/EnergyHarvestingDeviceTestbed/FE310/blinky/bsp/build/debug/./metal/machine.h:260
	}
}
200111e4:	853e                	mv	a0,a5
200111e6:	4472                	lw	s0,28(sp)
200111e8:	6105                	addi	sp,sp,32
200111ea:	8082                	ret

200111ec <__metal_driver_sifive_clint0_interrupt_parents>:
__metal_driver_sifive_clint0_interrupt_parents():
/home/jubayer/Documents/riscV/EnergyHarvestingDeviceTestbed/FE310/blinky/bsp/build/debug/./metal/machine.h:263

static __inline__ struct metal_interrupt * __metal_driver_sifive_clint0_interrupt_parents(struct metal_interrupt *controller, int idx)
{
200111ec:	1101                	addi	sp,sp,-32
200111ee:	ce22                	sw	s0,28(sp)
200111f0:	1000                	addi	s0,sp,32
200111f2:	fea42623          	sw	a0,-20(s0)
200111f6:	feb42423          	sw	a1,-24(s0)
/home/jubayer/Documents/riscV/EnergyHarvestingDeviceTestbed/FE310/blinky/bsp/build/debug/./metal/machine.h:264
	if (idx == 0) {
200111fa:	fe842783          	lw	a5,-24(s0)
200111fe:	e791                	bnez	a5,2001120a <__metal_driver_sifive_clint0_interrupt_parents+0x1e>
/home/jubayer/Documents/riscV/EnergyHarvestingDeviceTestbed/FE310/blinky/bsp/build/debug/./metal/machine.h:265
		return (struct metal_interrupt *)&__metal_dt_cpu_0_interrupt_controller.controller;
20011200:	800007b7          	lui	a5,0x80000
20011204:	09078793          	addi	a5,a5,144 # 80000090 <__global_pointer$+0xffffee30>
20011208:	a821                	j	20011220 <__metal_driver_sifive_clint0_interrupt_parents+0x34>
/home/jubayer/Documents/riscV/EnergyHarvestingDeviceTestbed/FE310/blinky/bsp/build/debug/./metal/machine.h:267
	}
	else if (idx == 1) {
2001120a:	fe842703          	lw	a4,-24(s0)
2001120e:	4785                	li	a5,1
20011210:	00f71763          	bne	a4,a5,2001121e <__metal_driver_sifive_clint0_interrupt_parents+0x32>
/home/jubayer/Documents/riscV/EnergyHarvestingDeviceTestbed/FE310/blinky/bsp/build/debug/./metal/machine.h:268
		return (struct metal_interrupt *)&__metal_dt_cpu_0_interrupt_controller.controller;
20011214:	800007b7          	lui	a5,0x80000
20011218:	09078793          	addi	a5,a5,144 # 80000090 <__global_pointer$+0xffffee30>
2001121c:	a011                	j	20011220 <__metal_driver_sifive_clint0_interrupt_parents+0x34>
/home/jubayer/Documents/riscV/EnergyHarvestingDeviceTestbed/FE310/blinky/bsp/build/debug/./metal/machine.h:271
	}
	else {
		return NULL;
2001121e:	4781                	li	a5,0
/home/jubayer/Documents/riscV/EnergyHarvestingDeviceTestbed/FE310/blinky/bsp/build/debug/./metal/machine.h:273
	}
}
20011220:	853e                	mv	a0,a5
20011222:	4472                	lw	s0,28(sp)
20011224:	6105                	addi	sp,sp,32
20011226:	8082                	ret

20011228 <__metal_driver_sifive_clint0_interrupt_lines>:
__metal_driver_sifive_clint0_interrupt_lines():
/home/jubayer/Documents/riscV/EnergyHarvestingDeviceTestbed/FE310/blinky/bsp/build/debug/./metal/machine.h:276

static __inline__ int __metal_driver_sifive_clint0_interrupt_lines(struct metal_interrupt *controller, int idx)
{
20011228:	1101                	addi	sp,sp,-32
2001122a:	ce22                	sw	s0,28(sp)
2001122c:	1000                	addi	s0,sp,32
2001122e:	fea42623          	sw	a0,-20(s0)
20011232:	feb42423          	sw	a1,-24(s0)
/home/jubayer/Documents/riscV/EnergyHarvestingDeviceTestbed/FE310/blinky/bsp/build/debug/./metal/machine.h:277
	if (idx == 0) {
20011236:	fe842783          	lw	a5,-24(s0)
2001123a:	e399                	bnez	a5,20011240 <__metal_driver_sifive_clint0_interrupt_lines+0x18>
/home/jubayer/Documents/riscV/EnergyHarvestingDeviceTestbed/FE310/blinky/bsp/build/debug/./metal/machine.h:278
		return 3;
2001123c:	478d                	li	a5,3
2001123e:	a809                	j	20011250 <__metal_driver_sifive_clint0_interrupt_lines+0x28>
/home/jubayer/Documents/riscV/EnergyHarvestingDeviceTestbed/FE310/blinky/bsp/build/debug/./metal/machine.h:280
	}
	else if (idx == 1) {
20011240:	fe842703          	lw	a4,-24(s0)
20011244:	4785                	li	a5,1
20011246:	00f71463          	bne	a4,a5,2001124e <__metal_driver_sifive_clint0_interrupt_lines+0x26>
/home/jubayer/Documents/riscV/EnergyHarvestingDeviceTestbed/FE310/blinky/bsp/build/debug/./metal/machine.h:281
		return 7;
2001124a:	479d                	li	a5,7
2001124c:	a011                	j	20011250 <__metal_driver_sifive_clint0_interrupt_lines+0x28>
/home/jubayer/Documents/riscV/EnergyHarvestingDeviceTestbed/FE310/blinky/bsp/build/debug/./metal/machine.h:284
	}
	else {
		return 0;
2001124e:	4781                	li	a5,0
/home/jubayer/Documents/riscV/EnergyHarvestingDeviceTestbed/FE310/blinky/bsp/build/debug/./metal/machine.h:286
	}
}
20011250:	853e                	mv	a0,a5
20011252:	4472                	lw	s0,28(sp)
20011254:	6105                	addi	sp,sp,32
20011256:	8082                	ret

20011258 <__metal_clint0_mtime_get>:
__metal_clint0_mtime_get():
/home/jubayer/Documents/riscV/EnergyHarvestingDeviceTestbed/FE310/blinky/freedom-metal/src/drivers/riscv_clint0.c:14
#include <metal/drivers/riscv_clint0.h>
#include <metal/io.h>
#include <metal/machine.h>

unsigned long long
__metal_clint0_mtime_get(struct __metal_driver_riscv_clint0 *clint) {
20011258:	715d                	addi	sp,sp,-80
2001125a:	c686                	sw	ra,76(sp)
2001125c:	c4a2                	sw	s0,72(sp)
2001125e:	c2ca                	sw	s2,68(sp)
20011260:	c0ce                	sw	s3,64(sp)
20011262:	de52                	sw	s4,60(sp)
20011264:	dc56                	sw	s5,56(sp)
20011266:	da5a                	sw	s6,52(sp)
20011268:	d85e                	sw	s7,48(sp)
2001126a:	d662                	sw	s8,44(sp)
2001126c:	d466                	sw	s9,40(sp)
2001126e:	0880                	addi	s0,sp,80
20011270:	faa42e23          	sw	a0,-68(s0)
/home/jubayer/Documents/riscV/EnergyHarvestingDeviceTestbed/FE310/blinky/freedom-metal/src/drivers/riscv_clint0.c:17
    __metal_io_u32 lo, hi;
    unsigned long control_base =
        __metal_driver_sifive_clint0_control_base(&clint->controller);
20011274:	fbc42783          	lw	a5,-68(s0)
20011278:	853e                	mv	a0,a5
2001127a:	3705                	jal	2001119a <__metal_driver_sifive_clint0_control_base>
2001127c:	fca42623          	sw	a0,-52(s0)
/home/jubayer/Documents/riscV/EnergyHarvestingDeviceTestbed/FE310/blinky/freedom-metal/src/drivers/riscv_clint0.c:21 (discriminator 1)

    /* Guard against rollover when reading */
    do {
        hi = __METAL_ACCESS_ONCE(
20011280:	fcc42703          	lw	a4,-52(s0)
20011284:	67b1                	lui	a5,0xc
20011286:	17f1                	addi	a5,a5,-4
20011288:	97ba                	add	a5,a5,a4
2001128a:	439c                	lw	a5,0(a5)
2001128c:	fcf42423          	sw	a5,-56(s0)
/home/jubayer/Documents/riscV/EnergyHarvestingDeviceTestbed/FE310/blinky/freedom-metal/src/drivers/riscv_clint0.c:23 (discriminator 1)
            (__metal_io_u32 *)(control_base + METAL_RISCV_CLINT0_MTIME + 4));
        lo = __METAL_ACCESS_ONCE(
20011290:	fcc42703          	lw	a4,-52(s0)
20011294:	67b1                	lui	a5,0xc
20011296:	17e1                	addi	a5,a5,-8
20011298:	97ba                	add	a5,a5,a4
2001129a:	439c                	lw	a5,0(a5)
2001129c:	fcf42223          	sw	a5,-60(s0)
/home/jubayer/Documents/riscV/EnergyHarvestingDeviceTestbed/FE310/blinky/freedom-metal/src/drivers/riscv_clint0.c:25 (discriminator 1)
            (__metal_io_u32 *)(control_base + METAL_RISCV_CLINT0_MTIME));
    } while (__METAL_ACCESS_ONCE((__metal_io_u32 *)(control_base +
200112a0:	fcc42703          	lw	a4,-52(s0)
200112a4:	67b1                	lui	a5,0xc
200112a6:	17f1                	addi	a5,a5,-4
200112a8:	97ba                	add	a5,a5,a4
200112aa:	439c                	lw	a5,0(a5)
200112ac:	fc842703          	lw	a4,-56(s0)
200112b0:	fcf718e3          	bne	a4,a5,20011280 <__metal_clint0_mtime_get+0x28>
/home/jubayer/Documents/riscV/EnergyHarvestingDeviceTestbed/FE310/blinky/freedom-metal/src/drivers/riscv_clint0.c:29
                                                    METAL_RISCV_CLINT0_MTIME +
                                                    4)) != hi);

    return (((unsigned long long)hi) << 32) | lo;
200112b4:	fc842783          	lw	a5,-56(s0)
200112b8:	8c3e                	mv	s8,a5
200112ba:	4c81                	li	s9,0
200112bc:	000c1993          	slli	s3,s8,0x0
200112c0:	4901                	li	s2,0
200112c2:	fc442783          	lw	a5,-60(s0)
200112c6:	8a3e                	mv	s4,a5
200112c8:	4a81                	li	s5,0
200112ca:	01496b33          	or	s6,s2,s4
200112ce:	0159ebb3          	or	s7,s3,s5
200112d2:	875a                	mv	a4,s6
200112d4:	87de                	mv	a5,s7
/home/jubayer/Documents/riscV/EnergyHarvestingDeviceTestbed/FE310/blinky/freedom-metal/src/drivers/riscv_clint0.c:30
}
200112d6:	853a                	mv	a0,a4
200112d8:	85be                	mv	a1,a5
200112da:	40b6                	lw	ra,76(sp)
200112dc:	4426                	lw	s0,72(sp)
200112de:	4916                	lw	s2,68(sp)
200112e0:	4986                	lw	s3,64(sp)
200112e2:	5a72                	lw	s4,60(sp)
200112e4:	5ae2                	lw	s5,56(sp)
200112e6:	5b52                	lw	s6,52(sp)
200112e8:	5bc2                	lw	s7,48(sp)
200112ea:	5c32                	lw	s8,44(sp)
200112ec:	5ca2                	lw	s9,40(sp)
200112ee:	6161                	addi	sp,sp,80
200112f0:	8082                	ret

200112f2 <__metal_driver_riscv_clint0_mtimecmp_set>:
__metal_driver_riscv_clint0_mtimecmp_set():
/home/jubayer/Documents/riscV/EnergyHarvestingDeviceTestbed/FE310/blinky/freedom-metal/src/drivers/riscv_clint0.c:34

int __metal_driver_riscv_clint0_mtimecmp_set(struct metal_interrupt *controller,
                                             int hartid,
                                             unsigned long long time) {
200112f2:	7179                	addi	sp,sp,-48
200112f4:	d606                	sw	ra,44(sp)
200112f6:	d422                	sw	s0,40(sp)
200112f8:	d24a                	sw	s2,36(sp)
200112fa:	d04e                	sw	s3,32(sp)
200112fc:	1800                	addi	s0,sp,48
200112fe:	fca42e23          	sw	a0,-36(s0)
20011302:	fcb42c23          	sw	a1,-40(s0)
20011306:	fcc42823          	sw	a2,-48(s0)
2001130a:	fcd42a23          	sw	a3,-44(s0)
/home/jubayer/Documents/riscV/EnergyHarvestingDeviceTestbed/FE310/blinky/freedom-metal/src/drivers/riscv_clint0.c:35
    struct __metal_driver_riscv_clint0 *clint =
2001130e:	fdc42783          	lw	a5,-36(s0)
20011312:	fef42623          	sw	a5,-20(s0)
/home/jubayer/Documents/riscV/EnergyHarvestingDeviceTestbed/FE310/blinky/freedom-metal/src/drivers/riscv_clint0.c:38
        (struct __metal_driver_riscv_clint0 *)(controller);
    unsigned long control_base =
        __metal_driver_sifive_clint0_control_base(&clint->controller);
20011316:	fec42783          	lw	a5,-20(s0)
2001131a:	853e                	mv	a0,a5
2001131c:	3dbd                	jal	2001119a <__metal_driver_sifive_clint0_control_base>
2001131e:	fea42423          	sw	a0,-24(s0)
/home/jubayer/Documents/riscV/EnergyHarvestingDeviceTestbed/FE310/blinky/freedom-metal/src/drivers/riscv_clint0.c:45
     * and are NOT internally latched for multiword transfers.
     * Need to be careful about sequencing to avoid triggering
     * spurious interrupts: For that set the high word to a max
     * value first.
     */
    __METAL_ACCESS_ONCE((__metal_io_u32 *)(control_base + (8 * hartid) +
20011322:	fd842783          	lw	a5,-40(s0)
20011326:	078e                	slli	a5,a5,0x3
20011328:	873e                	mv	a4,a5
2001132a:	fe842783          	lw	a5,-24(s0)
2001132e:	973e                	add	a4,a4,a5
20011330:	6791                	lui	a5,0x4
20011332:	0791                	addi	a5,a5,4
20011334:	97ba                	add	a5,a5,a4
20011336:	873e                	mv	a4,a5
/home/jubayer/Documents/riscV/EnergyHarvestingDeviceTestbed/FE310/blinky/freedom-metal/src/drivers/riscv_clint0.c:47
                                           METAL_RISCV_CLINT0_MTIMECMP_BASE +
                                           4)) = 0xFFFFFFFF;
20011338:	57fd                	li	a5,-1
2001133a:	c31c                	sw	a5,0(a4)
/home/jubayer/Documents/riscV/EnergyHarvestingDeviceTestbed/FE310/blinky/freedom-metal/src/drivers/riscv_clint0.c:48
    __METAL_ACCESS_ONCE((__metal_io_u32 *)(control_base + (8 * hartid) +
2001133c:	fd842783          	lw	a5,-40(s0)
20011340:	078e                	slli	a5,a5,0x3
20011342:	873e                	mv	a4,a5
20011344:	fe842783          	lw	a5,-24(s0)
20011348:	973e                	add	a4,a4,a5
2001134a:	6791                	lui	a5,0x4
2001134c:	97ba                	add	a5,a5,a4
2001134e:	873e                	mv	a4,a5
/home/jubayer/Documents/riscV/EnergyHarvestingDeviceTestbed/FE310/blinky/freedom-metal/src/drivers/riscv_clint0.c:50
                                           METAL_RISCV_CLINT0_MTIMECMP_BASE)) =
        (__metal_io_u32)time;
20011350:	fd042783          	lw	a5,-48(s0)
/home/jubayer/Documents/riscV/EnergyHarvestingDeviceTestbed/FE310/blinky/freedom-metal/src/drivers/riscv_clint0.c:49
                                           METAL_RISCV_CLINT0_MTIMECMP_BASE)) =
20011354:	c31c                	sw	a5,0(a4)
/home/jubayer/Documents/riscV/EnergyHarvestingDeviceTestbed/FE310/blinky/freedom-metal/src/drivers/riscv_clint0.c:53
    __METAL_ACCESS_ONCE((__metal_io_u32 *)(control_base + (8 * hartid) +
                                           METAL_RISCV_CLINT0_MTIMECMP_BASE +
                                           4)) = (__metal_io_u32)(time >> 32);
20011356:	fd442783          	lw	a5,-44(s0)
2001135a:	0007d913          	srli	s2,a5,0x0
2001135e:	4981                	li	s3,0
/home/jubayer/Documents/riscV/EnergyHarvestingDeviceTestbed/FE310/blinky/freedom-metal/src/drivers/riscv_clint0.c:51
    __METAL_ACCESS_ONCE((__metal_io_u32 *)(control_base + (8 * hartid) +
20011360:	fd842783          	lw	a5,-40(s0)
20011364:	078e                	slli	a5,a5,0x3
20011366:	873e                	mv	a4,a5
20011368:	fe842783          	lw	a5,-24(s0)
2001136c:	973e                	add	a4,a4,a5
2001136e:	6791                	lui	a5,0x4
20011370:	0791                	addi	a5,a5,4
20011372:	97ba                	add	a5,a5,a4
/home/jubayer/Documents/riscV/EnergyHarvestingDeviceTestbed/FE310/blinky/freedom-metal/src/drivers/riscv_clint0.c:53
                                           4)) = (__metal_io_u32)(time >> 32);
20011374:	874a                	mv	a4,s2
20011376:	c398                	sw	a4,0(a5)
/home/jubayer/Documents/riscV/EnergyHarvestingDeviceTestbed/FE310/blinky/freedom-metal/src/drivers/riscv_clint0.c:54
    return 0;
20011378:	4781                	li	a5,0
/home/jubayer/Documents/riscV/EnergyHarvestingDeviceTestbed/FE310/blinky/freedom-metal/src/drivers/riscv_clint0.c:55
}
2001137a:	853e                	mv	a0,a5
2001137c:	50b2                	lw	ra,44(sp)
2001137e:	5422                	lw	s0,40(sp)
20011380:	5912                	lw	s2,36(sp)
20011382:	5982                	lw	s3,32(sp)
20011384:	6145                	addi	sp,sp,48
20011386:	8082                	ret

20011388 <_get_cpu_intc>:
_get_cpu_intc():
/home/jubayer/Documents/riscV/EnergyHarvestingDeviceTestbed/FE310/blinky/freedom-metal/src/drivers/riscv_clint0.c:57

static struct metal_interrupt *_get_cpu_intc() {
20011388:	1101                	addi	sp,sp,-32
2001138a:	ce06                	sw	ra,28(sp)
2001138c:	cc22                	sw	s0,24(sp)
2001138e:	1000                	addi	s0,sp,32
/home/jubayer/Documents/riscV/EnergyHarvestingDeviceTestbed/FE310/blinky/freedom-metal/src/drivers/riscv_clint0.c:58
    int hartid = 0;
20011390:	fe042623          	sw	zero,-20(s0)
/home/jubayer/Documents/riscV/EnergyHarvestingDeviceTestbed/FE310/blinky/freedom-metal/src/drivers/riscv_clint0.c:59
    __asm__ volatile("csrr %[hartid], mhartid"
20011394:	f14027f3          	csrr	a5,mhartid
20011398:	fef42623          	sw	a5,-20(s0)
/home/jubayer/Documents/riscV/EnergyHarvestingDeviceTestbed/FE310/blinky/freedom-metal/src/drivers/riscv_clint0.c:62
                     : [hartid] "=r"(hartid)::"memory");

    struct metal_cpu *cpu = metal_cpu_get(hartid);
2001139c:	fec42783          	lw	a5,-20(s0)
200113a0:	853e                	mv	a0,a5
200113a2:	4bb030ef          	jal	ra,2001505c <metal_cpu_get>
200113a6:	fea42423          	sw	a0,-24(s0)
/home/jubayer/Documents/riscV/EnergyHarvestingDeviceTestbed/FE310/blinky/freedom-metal/src/drivers/riscv_clint0.c:64

    return metal_cpu_interrupt_controller(cpu);
200113aa:	fe842503          	lw	a0,-24(s0)
200113ae:	489030ef          	jal	ra,20015036 <metal_cpu_interrupt_controller>
200113b2:	87aa                	mv	a5,a0
/home/jubayer/Documents/riscV/EnergyHarvestingDeviceTestbed/FE310/blinky/freedom-metal/src/drivers/riscv_clint0.c:65
}
200113b4:	853e                	mv	a0,a5
200113b6:	40f2                	lw	ra,28(sp)
200113b8:	4462                	lw	s0,24(sp)
200113ba:	6105                	addi	sp,sp,32
200113bc:	8082                	ret

200113be <__metal_driver_riscv_clint0_init>:
__metal_driver_riscv_clint0_init():
/home/jubayer/Documents/riscV/EnergyHarvestingDeviceTestbed/FE310/blinky/freedom-metal/src/drivers/riscv_clint0.c:67

void __metal_driver_riscv_clint0_init(struct metal_interrupt *controller) {
200113be:	7139                	addi	sp,sp,-64
200113c0:	de06                	sw	ra,60(sp)
200113c2:	dc22                	sw	s0,56(sp)
200113c4:	0080                	addi	s0,sp,64
200113c6:	fca42623          	sw	a0,-52(s0)
/home/jubayer/Documents/riscV/EnergyHarvestingDeviceTestbed/FE310/blinky/freedom-metal/src/drivers/riscv_clint0.c:69
    int num_interrupts =
        __metal_driver_sifive_clint0_num_interrupts(controller);
200113ca:	fcc42503          	lw	a0,-52(s0)
200113ce:	3bdd                	jal	200111c4 <__metal_driver_sifive_clint0_num_interrupts>
200113d0:	fea42423          	sw	a0,-24(s0)
/home/jubayer/Documents/riscV/EnergyHarvestingDeviceTestbed/FE310/blinky/freedom-metal/src/drivers/riscv_clint0.c:70
    struct __metal_driver_riscv_clint0 *clint =
200113d4:	fcc42783          	lw	a5,-52(s0)
200113d8:	fef42223          	sw	a5,-28(s0)
/home/jubayer/Documents/riscV/EnergyHarvestingDeviceTestbed/FE310/blinky/freedom-metal/src/drivers/riscv_clint0.c:73
        (struct __metal_driver_riscv_clint0 *)(controller);

    if (!clint->init_done) {
200113dc:	fe442783          	lw	a5,-28(s0)
200113e0:	43dc                	lw	a5,4(a5)
200113e2:	efa9                	bnez	a5,2001143c <__metal_driver_riscv_clint0_init+0x7e>
/home/jubayer/Documents/riscV/EnergyHarvestingDeviceTestbed/FE310/blinky/freedom-metal/src/drivers/riscv_clint0.c:76
        /* Register its interrupts with with parent controller, aka sw and
         * timerto its default isr */
        for (int i = 0; i < num_interrupts; i++) {
200113e4:	fe042623          	sw	zero,-20(s0)
200113e8:	a081                	j	20011428 <__metal_driver_riscv_clint0_init+0x6a>
/home/jubayer/Documents/riscV/EnergyHarvestingDeviceTestbed/FE310/blinky/freedom-metal/src/drivers/riscv_clint0.c:78 (discriminator 3)
            struct metal_interrupt *intc =
                __metal_driver_sifive_clint0_interrupt_parents(controller, i);
200113ea:	fec42583          	lw	a1,-20(s0)
200113ee:	fcc42503          	lw	a0,-52(s0)
200113f2:	3bed                	jal	200111ec <__metal_driver_sifive_clint0_interrupt_parents>
200113f4:	fea42023          	sw	a0,-32(s0)
/home/jubayer/Documents/riscV/EnergyHarvestingDeviceTestbed/FE310/blinky/freedom-metal/src/drivers/riscv_clint0.c:80 (discriminator 3)
            int line =
                __metal_driver_sifive_clint0_interrupt_lines(controller, i);
200113f8:	fec42583          	lw	a1,-20(s0)
200113fc:	fcc42503          	lw	a0,-52(s0)
20011400:	3525                	jal	20011228 <__metal_driver_sifive_clint0_interrupt_lines>
20011402:	fca42e23          	sw	a0,-36(s0)
/home/jubayer/Documents/riscV/EnergyHarvestingDeviceTestbed/FE310/blinky/freedom-metal/src/drivers/riscv_clint0.c:81 (discriminator 3)
            intc->vtable->interrupt_register(intc, line, NULL, controller);
20011406:	fe042783          	lw	a5,-32(s0)
2001140a:	439c                	lw	a5,0(a5)
2001140c:	4fdc                	lw	a5,28(a5)
2001140e:	fcc42683          	lw	a3,-52(s0)
20011412:	4601                	li	a2,0
20011414:	fdc42583          	lw	a1,-36(s0)
20011418:	fe042503          	lw	a0,-32(s0)
2001141c:	9782                	jalr	a5
/home/jubayer/Documents/riscV/EnergyHarvestingDeviceTestbed/FE310/blinky/freedom-metal/src/drivers/riscv_clint0.c:76 (discriminator 3)
        for (int i = 0; i < num_interrupts; i++) {
2001141e:	fec42783          	lw	a5,-20(s0)
20011422:	0785                	addi	a5,a5,1
20011424:	fef42623          	sw	a5,-20(s0)
/home/jubayer/Documents/riscV/EnergyHarvestingDeviceTestbed/FE310/blinky/freedom-metal/src/drivers/riscv_clint0.c:76 (discriminator 1)
20011428:	fec42703          	lw	a4,-20(s0)
2001142c:	fe842783          	lw	a5,-24(s0)
20011430:	faf74de3          	blt	a4,a5,200113ea <__metal_driver_riscv_clint0_init+0x2c>
/home/jubayer/Documents/riscV/EnergyHarvestingDeviceTestbed/FE310/blinky/freedom-metal/src/drivers/riscv_clint0.c:83
        }
        clint->init_done = 1;
20011434:	fe442783          	lw	a5,-28(s0)
20011438:	4705                	li	a4,1
2001143a:	c3d8                	sw	a4,4(a5)
/home/jubayer/Documents/riscV/EnergyHarvestingDeviceTestbed/FE310/blinky/freedom-metal/src/drivers/riscv_clint0.c:85
    }
}
2001143c:	0001                	nop
2001143e:	50f2                	lw	ra,60(sp)
20011440:	5462                	lw	s0,56(sp)
20011442:	6121                	addi	sp,sp,64
20011444:	8082                	ret

20011446 <__metal_driver_riscv_clint0_register>:
__metal_driver_riscv_clint0_register():
/home/jubayer/Documents/riscV/EnergyHarvestingDeviceTestbed/FE310/blinky/freedom-metal/src/drivers/riscv_clint0.c:89

int __metal_driver_riscv_clint0_register(struct metal_interrupt *controller,
                                         int id, metal_interrupt_handler_t isr,
                                         void *priv) {
20011446:	7139                	addi	sp,sp,-64
20011448:	de06                	sw	ra,60(sp)
2001144a:	dc22                	sw	s0,56(sp)
2001144c:	0080                	addi	s0,sp,64
2001144e:	fca42623          	sw	a0,-52(s0)
20011452:	fcb42423          	sw	a1,-56(s0)
20011456:	fcc42223          	sw	a2,-60(s0)
2001145a:	fcd42023          	sw	a3,-64(s0)
/home/jubayer/Documents/riscV/EnergyHarvestingDeviceTestbed/FE310/blinky/freedom-metal/src/drivers/riscv_clint0.c:90
    int rc = -1;
2001145e:	57fd                	li	a5,-1
20011460:	fef42623          	sw	a5,-20(s0)
/home/jubayer/Documents/riscV/EnergyHarvestingDeviceTestbed/FE310/blinky/freedom-metal/src/drivers/riscv_clint0.c:91
    metal_vector_mode mode = __metal_controller_interrupt_vector_mode();
20011464:	472010ef          	jal	ra,200128d6 <__metal_controller_interrupt_vector_mode>
20011468:	fea42023          	sw	a0,-32(s0)
/home/jubayer/Documents/riscV/EnergyHarvestingDeviceTestbed/FE310/blinky/freedom-metal/src/drivers/riscv_clint0.c:92
    struct metal_interrupt *intc = NULL;
2001146c:	fe042423          	sw	zero,-24(s0)
/home/jubayer/Documents/riscV/EnergyHarvestingDeviceTestbed/FE310/blinky/freedom-metal/src/drivers/riscv_clint0.c:93
    struct metal_interrupt *cpu_intc = _get_cpu_intc();
20011470:	3f21                	jal	20011388 <_get_cpu_intc>
20011472:	fca42e23          	sw	a0,-36(s0)
/home/jubayer/Documents/riscV/EnergyHarvestingDeviceTestbed/FE310/blinky/freedom-metal/src/drivers/riscv_clint0.c:95
    int num_interrupts =
        __metal_driver_sifive_clint0_num_interrupts(controller);
20011476:	fcc42503          	lw	a0,-52(s0)
2001147a:	33a9                	jal	200111c4 <__metal_driver_sifive_clint0_num_interrupts>
2001147c:	fca42c23          	sw	a0,-40(s0)
/home/jubayer/Documents/riscV/EnergyHarvestingDeviceTestbed/FE310/blinky/freedom-metal/src/drivers/riscv_clint0.c:97

    if ((mode != METAL_VECTOR_MODE) && (mode != METAL_DIRECT_MODE)) {
20011480:	fe042703          	lw	a4,-32(s0)
20011484:	4785                	li	a5,1
20011486:	00f70863          	beq	a4,a5,20011496 <__metal_driver_riscv_clint0_register+0x50>
/home/jubayer/Documents/riscV/EnergyHarvestingDeviceTestbed/FE310/blinky/freedom-metal/src/drivers/riscv_clint0.c:97 (discriminator 1)
2001148a:	fe042783          	lw	a5,-32(s0)
2001148e:	c781                	beqz	a5,20011496 <__metal_driver_riscv_clint0_register+0x50>
/home/jubayer/Documents/riscV/EnergyHarvestingDeviceTestbed/FE310/blinky/freedom-metal/src/drivers/riscv_clint0.c:98
        return rc;
20011490:	fec42783          	lw	a5,-20(s0)
20011494:	a049                	j	20011516 <__metal_driver_riscv_clint0_register+0xd0>
/home/jubayer/Documents/riscV/EnergyHarvestingDeviceTestbed/FE310/blinky/freedom-metal/src/drivers/riscv_clint0.c:101
    }

    for (int i = 0; i < num_interrupts; i++) {
20011496:	fe042223          	sw	zero,-28(s0)
2001149a:	a091                	j	200114de <__metal_driver_riscv_clint0_register+0x98>
/home/jubayer/Documents/riscV/EnergyHarvestingDeviceTestbed/FE310/blinky/freedom-metal/src/drivers/riscv_clint0.c:102
        int line = __metal_driver_sifive_clint0_interrupt_lines(controller, i);
2001149c:	fe442583          	lw	a1,-28(s0)
200114a0:	fcc42503          	lw	a0,-52(s0)
200114a4:	3351                	jal	20011228 <__metal_driver_sifive_clint0_interrupt_lines>
200114a6:	fca42a23          	sw	a0,-44(s0)
/home/jubayer/Documents/riscV/EnergyHarvestingDeviceTestbed/FE310/blinky/freedom-metal/src/drivers/riscv_clint0.c:103
        intc = __metal_driver_sifive_clint0_interrupt_parents(controller, i);
200114aa:	fe442583          	lw	a1,-28(s0)
200114ae:	fcc42503          	lw	a0,-52(s0)
200114b2:	3b2d                	jal	200111ec <__metal_driver_sifive_clint0_interrupt_parents>
200114b4:	fea42423          	sw	a0,-24(s0)
/home/jubayer/Documents/riscV/EnergyHarvestingDeviceTestbed/FE310/blinky/freedom-metal/src/drivers/riscv_clint0.c:104
        if (cpu_intc == intc && id == line) {
200114b8:	fdc42703          	lw	a4,-36(s0)
200114bc:	fe842783          	lw	a5,-24(s0)
200114c0:	00f71863          	bne	a4,a5,200114d0 <__metal_driver_riscv_clint0_register+0x8a>
/home/jubayer/Documents/riscV/EnergyHarvestingDeviceTestbed/FE310/blinky/freedom-metal/src/drivers/riscv_clint0.c:104 (discriminator 1)
200114c4:	fc842703          	lw	a4,-56(s0)
200114c8:	fd442783          	lw	a5,-44(s0)
200114cc:	02f70063          	beq	a4,a5,200114ec <__metal_driver_riscv_clint0_register+0xa6>
/home/jubayer/Documents/riscV/EnergyHarvestingDeviceTestbed/FE310/blinky/freedom-metal/src/drivers/riscv_clint0.c:107 (discriminator 2)
            break;
        }
        intc = NULL;
200114d0:	fe042423          	sw	zero,-24(s0)
/home/jubayer/Documents/riscV/EnergyHarvestingDeviceTestbed/FE310/blinky/freedom-metal/src/drivers/riscv_clint0.c:101 (discriminator 2)
    for (int i = 0; i < num_interrupts; i++) {
200114d4:	fe442783          	lw	a5,-28(s0)
200114d8:	0785                	addi	a5,a5,1
200114da:	fef42223          	sw	a5,-28(s0)
/home/jubayer/Documents/riscV/EnergyHarvestingDeviceTestbed/FE310/blinky/freedom-metal/src/drivers/riscv_clint0.c:101 (discriminator 1)
200114de:	fe442703          	lw	a4,-28(s0)
200114e2:	fd842783          	lw	a5,-40(s0)
200114e6:	faf74be3          	blt	a4,a5,2001149c <__metal_driver_riscv_clint0_register+0x56>
200114ea:	a011                	j	200114ee <__metal_driver_riscv_clint0_register+0xa8>
/home/jubayer/Documents/riscV/EnergyHarvestingDeviceTestbed/FE310/blinky/freedom-metal/src/drivers/riscv_clint0.c:105
            break;
200114ec:	0001                	nop
/home/jubayer/Documents/riscV/EnergyHarvestingDeviceTestbed/FE310/blinky/freedom-metal/src/drivers/riscv_clint0.c:111
    }

    /* Register its interrupts with parent controller */
    if (intc) {
200114ee:	fe842783          	lw	a5,-24(s0)
200114f2:	c385                	beqz	a5,20011512 <__metal_driver_riscv_clint0_register+0xcc>
/home/jubayer/Documents/riscV/EnergyHarvestingDeviceTestbed/FE310/blinky/freedom-metal/src/drivers/riscv_clint0.c:112
        rc = intc->vtable->interrupt_register(intc, id, isr, priv);
200114f4:	fe842783          	lw	a5,-24(s0)
200114f8:	439c                	lw	a5,0(a5)
200114fa:	4fdc                	lw	a5,28(a5)
200114fc:	fc042683          	lw	a3,-64(s0)
20011500:	fc442603          	lw	a2,-60(s0)
20011504:	fc842583          	lw	a1,-56(s0)
20011508:	fe842503          	lw	a0,-24(s0)
2001150c:	9782                	jalr	a5
2001150e:	fea42623          	sw	a0,-20(s0)
/home/jubayer/Documents/riscV/EnergyHarvestingDeviceTestbed/FE310/blinky/freedom-metal/src/drivers/riscv_clint0.c:114
    }
    return rc;
20011512:	fec42783          	lw	a5,-20(s0)
/home/jubayer/Documents/riscV/EnergyHarvestingDeviceTestbed/FE310/blinky/freedom-metal/src/drivers/riscv_clint0.c:115
}
20011516:	853e                	mv	a0,a5
20011518:	50f2                	lw	ra,60(sp)
2001151a:	5462                	lw	s0,56(sp)
2001151c:	6121                	addi	sp,sp,64
2001151e:	8082                	ret

20011520 <__metal_driver_riscv_clint0_vector_register>:
__metal_driver_riscv_clint0_vector_register():
/home/jubayer/Documents/riscV/EnergyHarvestingDeviceTestbed/FE310/blinky/freedom-metal/src/drivers/riscv_clint0.c:119

int __metal_driver_riscv_clint0_vector_register(
    struct metal_interrupt *controller, int id,
    metal_interrupt_vector_handler_t isr, void *priv) {
20011520:	7179                	addi	sp,sp,-48
20011522:	d622                	sw	s0,44(sp)
20011524:	1800                	addi	s0,sp,48
20011526:	fca42e23          	sw	a0,-36(s0)
2001152a:	fcb42c23          	sw	a1,-40(s0)
2001152e:	fcc42a23          	sw	a2,-44(s0)
20011532:	fcd42823          	sw	a3,-48(s0)
/home/jubayer/Documents/riscV/EnergyHarvestingDeviceTestbed/FE310/blinky/freedom-metal/src/drivers/riscv_clint0.c:121
    /* Not supported. User can override the 'weak' handler with their own */
    int rc = -1;
20011536:	57fd                	li	a5,-1
20011538:	fef42623          	sw	a5,-20(s0)
/home/jubayer/Documents/riscV/EnergyHarvestingDeviceTestbed/FE310/blinky/freedom-metal/src/drivers/riscv_clint0.c:122
    return rc;
2001153c:	fec42783          	lw	a5,-20(s0)
/home/jubayer/Documents/riscV/EnergyHarvestingDeviceTestbed/FE310/blinky/freedom-metal/src/drivers/riscv_clint0.c:123
}
20011540:	853e                	mv	a0,a5
20011542:	5432                	lw	s0,44(sp)
20011544:	6145                	addi	sp,sp,48
20011546:	8082                	ret

20011548 <__metal_driver_riscv_clint0_get_vector_mode>:
__metal_driver_riscv_clint0_get_vector_mode():
/home/jubayer/Documents/riscV/EnergyHarvestingDeviceTestbed/FE310/blinky/freedom-metal/src/drivers/riscv_clint0.c:126

metal_vector_mode __metal_driver_riscv_clint0_get_vector_mode(
    struct metal_interrupt *controller) {
20011548:	1101                	addi	sp,sp,-32
2001154a:	ce06                	sw	ra,28(sp)
2001154c:	cc22                	sw	s0,24(sp)
2001154e:	1000                	addi	s0,sp,32
20011550:	fea42623          	sw	a0,-20(s0)
/home/jubayer/Documents/riscV/EnergyHarvestingDeviceTestbed/FE310/blinky/freedom-metal/src/drivers/riscv_clint0.c:127
    return __metal_controller_interrupt_vector_mode();
20011554:	382010ef          	jal	ra,200128d6 <__metal_controller_interrupt_vector_mode>
20011558:	87aa                	mv	a5,a0
/home/jubayer/Documents/riscV/EnergyHarvestingDeviceTestbed/FE310/blinky/freedom-metal/src/drivers/riscv_clint0.c:128
}
2001155a:	853e                	mv	a0,a5
2001155c:	40f2                	lw	ra,28(sp)
2001155e:	4462                	lw	s0,24(sp)
20011560:	6105                	addi	sp,sp,32
20011562:	8082                	ret

20011564 <__metal_driver_riscv_clint0_set_vector_mode>:
__metal_driver_riscv_clint0_set_vector_mode():
/home/jubayer/Documents/riscV/EnergyHarvestingDeviceTestbed/FE310/blinky/freedom-metal/src/drivers/riscv_clint0.c:131

int __metal_driver_riscv_clint0_set_vector_mode(
    struct metal_interrupt *controller, metal_vector_mode mode) {
20011564:	7179                	addi	sp,sp,-48
20011566:	d606                	sw	ra,44(sp)
20011568:	d422                	sw	s0,40(sp)
2001156a:	1800                	addi	s0,sp,48
2001156c:	fca42e23          	sw	a0,-36(s0)
20011570:	fcb42c23          	sw	a1,-40(s0)
/home/jubayer/Documents/riscV/EnergyHarvestingDeviceTestbed/FE310/blinky/freedom-metal/src/drivers/riscv_clint0.c:132
    int rc = -1;
20011574:	57fd                	li	a5,-1
20011576:	fef42623          	sw	a5,-20(s0)
/home/jubayer/Documents/riscV/EnergyHarvestingDeviceTestbed/FE310/blinky/freedom-metal/src/drivers/riscv_clint0.c:133
    struct metal_interrupt *intc = _get_cpu_intc();
2001157a:	3539                	jal	20011388 <_get_cpu_intc>
2001157c:	fea42423          	sw	a0,-24(s0)
/home/jubayer/Documents/riscV/EnergyHarvestingDeviceTestbed/FE310/blinky/freedom-metal/src/drivers/riscv_clint0.c:135

    if (intc) {
20011580:	fe842783          	lw	a5,-24(s0)
20011584:	c395                	beqz	a5,200115a8 <__metal_driver_riscv_clint0_set_vector_mode+0x44>
/home/jubayer/Documents/riscV/EnergyHarvestingDeviceTestbed/FE310/blinky/freedom-metal/src/drivers/riscv_clint0.c:138
        /* Valid vector modes are VECTOR and DIRECT, anything else is invalid
         * (-1) */
        switch (mode) {
20011586:	fd842703          	lw	a4,-40(s0)
2001158a:	4785                	li	a5,1
2001158c:	02e7e063          	bltu	a5,a4,200115ac <__metal_driver_riscv_clint0_set_vector_mode+0x48>
/home/jubayer/Documents/riscV/EnergyHarvestingDeviceTestbed/FE310/blinky/freedom-metal/src/drivers/riscv_clint0.c:141
        case METAL_VECTOR_MODE:
        case METAL_DIRECT_MODE:
            rc = intc->vtable->interrupt_set_vector_mode(intc, mode);
20011590:	fe842783          	lw	a5,-24(s0)
20011594:	439c                	lw	a5,0(a5)
20011596:	43dc                	lw	a5,4(a5)
20011598:	fd842583          	lw	a1,-40(s0)
2001159c:	fe842503          	lw	a0,-24(s0)
200115a0:	9782                	jalr	a5
200115a2:	fea42623          	sw	a0,-20(s0)
/home/jubayer/Documents/riscV/EnergyHarvestingDeviceTestbed/FE310/blinky/freedom-metal/src/drivers/riscv_clint0.c:142
            break;
200115a6:	a021                	j	200115ae <__metal_driver_riscv_clint0_set_vector_mode+0x4a>
/home/jubayer/Documents/riscV/EnergyHarvestingDeviceTestbed/FE310/blinky/freedom-metal/src/drivers/riscv_clint0.c:146
        default:
            break;
        }
    }
200115a8:	0001                	nop
200115aa:	a011                	j	200115ae <__metal_driver_riscv_clint0_set_vector_mode+0x4a>
/home/jubayer/Documents/riscV/EnergyHarvestingDeviceTestbed/FE310/blinky/freedom-metal/src/drivers/riscv_clint0.c:144
            break;
200115ac:	0001                	nop
/home/jubayer/Documents/riscV/EnergyHarvestingDeviceTestbed/FE310/blinky/freedom-metal/src/drivers/riscv_clint0.c:147
    return rc;
200115ae:	fec42783          	lw	a5,-20(s0)
/home/jubayer/Documents/riscV/EnergyHarvestingDeviceTestbed/FE310/blinky/freedom-metal/src/drivers/riscv_clint0.c:148
}
200115b2:	853e                	mv	a0,a5
200115b4:	50b2                	lw	ra,44(sp)
200115b6:	5422                	lw	s0,40(sp)
200115b8:	6145                	addi	sp,sp,48
200115ba:	8082                	ret

200115bc <__metal_driver_riscv_clint0_enable>:
__metal_driver_riscv_clint0_enable():
/home/jubayer/Documents/riscV/EnergyHarvestingDeviceTestbed/FE310/blinky/freedom-metal/src/drivers/riscv_clint0.c:151

int __metal_driver_riscv_clint0_enable(struct metal_interrupt *controller,
                                       int id) {
200115bc:	7139                	addi	sp,sp,-64
200115be:	de06                	sw	ra,60(sp)
200115c0:	dc22                	sw	s0,56(sp)
200115c2:	0080                	addi	s0,sp,64
200115c4:	fca42623          	sw	a0,-52(s0)
200115c8:	fcb42423          	sw	a1,-56(s0)
/home/jubayer/Documents/riscV/EnergyHarvestingDeviceTestbed/FE310/blinky/freedom-metal/src/drivers/riscv_clint0.c:152
    int rc = -1;
200115cc:	57fd                	li	a5,-1
200115ce:	fef42623          	sw	a5,-20(s0)
/home/jubayer/Documents/riscV/EnergyHarvestingDeviceTestbed/FE310/blinky/freedom-metal/src/drivers/riscv_clint0.c:154

    if (id) {
200115d2:	fc842783          	lw	a5,-56(s0)
200115d6:	c7c9                	beqz	a5,20011660 <__metal_driver_riscv_clint0_enable+0xa4>
/home/jubayer/Documents/riscV/EnergyHarvestingDeviceTestbed/FE310/blinky/freedom-metal/src/drivers/riscv_clint0.c:155
        struct metal_interrupt *intc = NULL;
200115d8:	fe042423          	sw	zero,-24(s0)
/home/jubayer/Documents/riscV/EnergyHarvestingDeviceTestbed/FE310/blinky/freedom-metal/src/drivers/riscv_clint0.c:156
        struct metal_interrupt *cpu_intc = _get_cpu_intc();
200115dc:	3375                	jal	20011388 <_get_cpu_intc>
200115de:	fea42023          	sw	a0,-32(s0)
/home/jubayer/Documents/riscV/EnergyHarvestingDeviceTestbed/FE310/blinky/freedom-metal/src/drivers/riscv_clint0.c:158
        int num_interrupts =
            __metal_driver_sifive_clint0_num_interrupts(controller);
200115e2:	fcc42503          	lw	a0,-52(s0)
200115e6:	3ef9                	jal	200111c4 <__metal_driver_sifive_clint0_num_interrupts>
200115e8:	fca42e23          	sw	a0,-36(s0)
/home/jubayer/Documents/riscV/EnergyHarvestingDeviceTestbed/FE310/blinky/freedom-metal/src/drivers/riscv_clint0.c:160

        for (int i = 0; i < num_interrupts; i++) {
200115ec:	fe042223          	sw	zero,-28(s0)
200115f0:	a091                	j	20011634 <__metal_driver_riscv_clint0_enable+0x78>
/home/jubayer/Documents/riscV/EnergyHarvestingDeviceTestbed/FE310/blinky/freedom-metal/src/drivers/riscv_clint0.c:162
            int line =
                __metal_driver_sifive_clint0_interrupt_lines(controller, i);
200115f2:	fe442583          	lw	a1,-28(s0)
200115f6:	fcc42503          	lw	a0,-52(s0)
200115fa:	313d                	jal	20011228 <__metal_driver_sifive_clint0_interrupt_lines>
200115fc:	fca42c23          	sw	a0,-40(s0)
/home/jubayer/Documents/riscV/EnergyHarvestingDeviceTestbed/FE310/blinky/freedom-metal/src/drivers/riscv_clint0.c:164
            intc =
                __metal_driver_sifive_clint0_interrupt_parents(controller, i);
20011600:	fe442583          	lw	a1,-28(s0)
20011604:	fcc42503          	lw	a0,-52(s0)
20011608:	36d5                	jal	200111ec <__metal_driver_sifive_clint0_interrupt_parents>
2001160a:	fea42423          	sw	a0,-24(s0)
/home/jubayer/Documents/riscV/EnergyHarvestingDeviceTestbed/FE310/blinky/freedom-metal/src/drivers/riscv_clint0.c:165
            if (cpu_intc == intc && id == line) {
2001160e:	fe042703          	lw	a4,-32(s0)
20011612:	fe842783          	lw	a5,-24(s0)
20011616:	00f71863          	bne	a4,a5,20011626 <__metal_driver_riscv_clint0_enable+0x6a>
/home/jubayer/Documents/riscV/EnergyHarvestingDeviceTestbed/FE310/blinky/freedom-metal/src/drivers/riscv_clint0.c:165 (discriminator 1)
2001161a:	fc842703          	lw	a4,-56(s0)
2001161e:	fd842783          	lw	a5,-40(s0)
20011622:	02f70063          	beq	a4,a5,20011642 <__metal_driver_riscv_clint0_enable+0x86>
/home/jubayer/Documents/riscV/EnergyHarvestingDeviceTestbed/FE310/blinky/freedom-metal/src/drivers/riscv_clint0.c:168 (discriminator 2)
                break;
            }
            intc = NULL;
20011626:	fe042423          	sw	zero,-24(s0)
/home/jubayer/Documents/riscV/EnergyHarvestingDeviceTestbed/FE310/blinky/freedom-metal/src/drivers/riscv_clint0.c:160 (discriminator 2)
        for (int i = 0; i < num_interrupts; i++) {
2001162a:	fe442783          	lw	a5,-28(s0)
2001162e:	0785                	addi	a5,a5,1
20011630:	fef42223          	sw	a5,-28(s0)
/home/jubayer/Documents/riscV/EnergyHarvestingDeviceTestbed/FE310/blinky/freedom-metal/src/drivers/riscv_clint0.c:160 (discriminator 1)
20011634:	fe442703          	lw	a4,-28(s0)
20011638:	fdc42783          	lw	a5,-36(s0)
2001163c:	faf74be3          	blt	a4,a5,200115f2 <__metal_driver_riscv_clint0_enable+0x36>
20011640:	a011                	j	20011644 <__metal_driver_riscv_clint0_enable+0x88>
/home/jubayer/Documents/riscV/EnergyHarvestingDeviceTestbed/FE310/blinky/freedom-metal/src/drivers/riscv_clint0.c:166
                break;
20011642:	0001                	nop
/home/jubayer/Documents/riscV/EnergyHarvestingDeviceTestbed/FE310/blinky/freedom-metal/src/drivers/riscv_clint0.c:172
        }

        /* Enable its interrupts with parent controller */
        if (intc) {
20011644:	fe842783          	lw	a5,-24(s0)
20011648:	cf81                	beqz	a5,20011660 <__metal_driver_riscv_clint0_enable+0xa4>
/home/jubayer/Documents/riscV/EnergyHarvestingDeviceTestbed/FE310/blinky/freedom-metal/src/drivers/riscv_clint0.c:173
            rc = intc->vtable->interrupt_enable(intc, id);
2001164a:	fe842783          	lw	a5,-24(s0)
2001164e:	439c                	lw	a5,0(a5)
20011650:	53dc                	lw	a5,36(a5)
20011652:	fc842583          	lw	a1,-56(s0)
20011656:	fe842503          	lw	a0,-24(s0)
2001165a:	9782                	jalr	a5
2001165c:	fea42623          	sw	a0,-20(s0)
/home/jubayer/Documents/riscV/EnergyHarvestingDeviceTestbed/FE310/blinky/freedom-metal/src/drivers/riscv_clint0.c:177
        }
    }

    return rc;
20011660:	fec42783          	lw	a5,-20(s0)
/home/jubayer/Documents/riscV/EnergyHarvestingDeviceTestbed/FE310/blinky/freedom-metal/src/drivers/riscv_clint0.c:178
}
20011664:	853e                	mv	a0,a5
20011666:	50f2                	lw	ra,60(sp)
20011668:	5462                	lw	s0,56(sp)
2001166a:	6121                	addi	sp,sp,64
2001166c:	8082                	ret

2001166e <__metal_driver_riscv_clint0_disable>:
__metal_driver_riscv_clint0_disable():
/home/jubayer/Documents/riscV/EnergyHarvestingDeviceTestbed/FE310/blinky/freedom-metal/src/drivers/riscv_clint0.c:181

int __metal_driver_riscv_clint0_disable(struct metal_interrupt *controller,
                                        int id) {
2001166e:	7139                	addi	sp,sp,-64
20011670:	de06                	sw	ra,60(sp)
20011672:	dc22                	sw	s0,56(sp)
20011674:	0080                	addi	s0,sp,64
20011676:	fca42623          	sw	a0,-52(s0)
2001167a:	fcb42423          	sw	a1,-56(s0)
/home/jubayer/Documents/riscV/EnergyHarvestingDeviceTestbed/FE310/blinky/freedom-metal/src/drivers/riscv_clint0.c:182
    int rc = -1;
2001167e:	57fd                	li	a5,-1
20011680:	fef42623          	sw	a5,-20(s0)
/home/jubayer/Documents/riscV/EnergyHarvestingDeviceTestbed/FE310/blinky/freedom-metal/src/drivers/riscv_clint0.c:184

    if (id) {
20011684:	fc842783          	lw	a5,-56(s0)
20011688:	c7c9                	beqz	a5,20011712 <__metal_driver_riscv_clint0_disable+0xa4>
/home/jubayer/Documents/riscV/EnergyHarvestingDeviceTestbed/FE310/blinky/freedom-metal/src/drivers/riscv_clint0.c:185
        struct metal_interrupt *intc = NULL;
2001168a:	fe042423          	sw	zero,-24(s0)
/home/jubayer/Documents/riscV/EnergyHarvestingDeviceTestbed/FE310/blinky/freedom-metal/src/drivers/riscv_clint0.c:186
        struct metal_interrupt *cpu_intc = _get_cpu_intc();
2001168e:	39ed                	jal	20011388 <_get_cpu_intc>
20011690:	fea42023          	sw	a0,-32(s0)
/home/jubayer/Documents/riscV/EnergyHarvestingDeviceTestbed/FE310/blinky/freedom-metal/src/drivers/riscv_clint0.c:188
        int num_interrupts =
            __metal_driver_sifive_clint0_num_interrupts(controller);
20011694:	fcc42503          	lw	a0,-52(s0)
20011698:	3635                	jal	200111c4 <__metal_driver_sifive_clint0_num_interrupts>
2001169a:	fca42e23          	sw	a0,-36(s0)
/home/jubayer/Documents/riscV/EnergyHarvestingDeviceTestbed/FE310/blinky/freedom-metal/src/drivers/riscv_clint0.c:190

        for (int i = 0; i < num_interrupts; i++) {
2001169e:	fe042223          	sw	zero,-28(s0)
200116a2:	a091                	j	200116e6 <__metal_driver_riscv_clint0_disable+0x78>
/home/jubayer/Documents/riscV/EnergyHarvestingDeviceTestbed/FE310/blinky/freedom-metal/src/drivers/riscv_clint0.c:192
            int line =
                __metal_driver_sifive_clint0_interrupt_lines(controller, i);
200116a4:	fe442583          	lw	a1,-28(s0)
200116a8:	fcc42503          	lw	a0,-52(s0)
200116ac:	3eb5                	jal	20011228 <__metal_driver_sifive_clint0_interrupt_lines>
200116ae:	fca42c23          	sw	a0,-40(s0)
/home/jubayer/Documents/riscV/EnergyHarvestingDeviceTestbed/FE310/blinky/freedom-metal/src/drivers/riscv_clint0.c:194
            intc =
                __metal_driver_sifive_clint0_interrupt_parents(controller, i);
200116b2:	fe442583          	lw	a1,-28(s0)
200116b6:	fcc42503          	lw	a0,-52(s0)
200116ba:	3e0d                	jal	200111ec <__metal_driver_sifive_clint0_interrupt_parents>
200116bc:	fea42423          	sw	a0,-24(s0)
/home/jubayer/Documents/riscV/EnergyHarvestingDeviceTestbed/FE310/blinky/freedom-metal/src/drivers/riscv_clint0.c:195
            if (cpu_intc == intc && id == line) {
200116c0:	fe042703          	lw	a4,-32(s0)
200116c4:	fe842783          	lw	a5,-24(s0)
200116c8:	00f71863          	bne	a4,a5,200116d8 <__metal_driver_riscv_clint0_disable+0x6a>
/home/jubayer/Documents/riscV/EnergyHarvestingDeviceTestbed/FE310/blinky/freedom-metal/src/drivers/riscv_clint0.c:195 (discriminator 1)
200116cc:	fc842703          	lw	a4,-56(s0)
200116d0:	fd842783          	lw	a5,-40(s0)
200116d4:	02f70063          	beq	a4,a5,200116f4 <__metal_driver_riscv_clint0_disable+0x86>
/home/jubayer/Documents/riscV/EnergyHarvestingDeviceTestbed/FE310/blinky/freedom-metal/src/drivers/riscv_clint0.c:198 (discriminator 2)
                break;
            }
            intc = NULL;
200116d8:	fe042423          	sw	zero,-24(s0)
/home/jubayer/Documents/riscV/EnergyHarvestingDeviceTestbed/FE310/blinky/freedom-metal/src/drivers/riscv_clint0.c:190 (discriminator 2)
        for (int i = 0; i < num_interrupts; i++) {
200116dc:	fe442783          	lw	a5,-28(s0)
200116e0:	0785                	addi	a5,a5,1
200116e2:	fef42223          	sw	a5,-28(s0)
/home/jubayer/Documents/riscV/EnergyHarvestingDeviceTestbed/FE310/blinky/freedom-metal/src/drivers/riscv_clint0.c:190 (discriminator 1)
200116e6:	fe442703          	lw	a4,-28(s0)
200116ea:	fdc42783          	lw	a5,-36(s0)
200116ee:	faf74be3          	blt	a4,a5,200116a4 <__metal_driver_riscv_clint0_disable+0x36>
200116f2:	a011                	j	200116f6 <__metal_driver_riscv_clint0_disable+0x88>
/home/jubayer/Documents/riscV/EnergyHarvestingDeviceTestbed/FE310/blinky/freedom-metal/src/drivers/riscv_clint0.c:196
                break;
200116f4:	0001                	nop
/home/jubayer/Documents/riscV/EnergyHarvestingDeviceTestbed/FE310/blinky/freedom-metal/src/drivers/riscv_clint0.c:202
        }

        /* Disable its interrupts with parent controller */
        if (intc) {
200116f6:	fe842783          	lw	a5,-24(s0)
200116fa:	cf81                	beqz	a5,20011712 <__metal_driver_riscv_clint0_disable+0xa4>
/home/jubayer/Documents/riscV/EnergyHarvestingDeviceTestbed/FE310/blinky/freedom-metal/src/drivers/riscv_clint0.c:203
            rc = intc->vtable->interrupt_disable(intc, id);
200116fc:	fe842783          	lw	a5,-24(s0)
20011700:	439c                	lw	a5,0(a5)
20011702:	579c                	lw	a5,40(a5)
20011704:	fc842583          	lw	a1,-56(s0)
20011708:	fe842503          	lw	a0,-24(s0)
2001170c:	9782                	jalr	a5
2001170e:	fea42623          	sw	a0,-20(s0)
/home/jubayer/Documents/riscV/EnergyHarvestingDeviceTestbed/FE310/blinky/freedom-metal/src/drivers/riscv_clint0.c:207
        }
    }

    return rc;
20011712:	fec42783          	lw	a5,-20(s0)
/home/jubayer/Documents/riscV/EnergyHarvestingDeviceTestbed/FE310/blinky/freedom-metal/src/drivers/riscv_clint0.c:208
}
20011716:	853e                	mv	a0,a5
20011718:	50f2                	lw	ra,60(sp)
2001171a:	5462                	lw	s0,56(sp)
2001171c:	6121                	addi	sp,sp,64
2001171e:	8082                	ret

20011720 <__metal_driver_riscv_clint0_command_request>:
__metal_driver_riscv_clint0_command_request():
/home/jubayer/Documents/riscV/EnergyHarvestingDeviceTestbed/FE310/blinky/freedom-metal/src/drivers/riscv_clint0.c:211

int __metal_driver_riscv_clint0_command_request(
    struct metal_interrupt *controller, int command, void *data) {
20011720:	7179                	addi	sp,sp,-48
20011722:	d606                	sw	ra,44(sp)
20011724:	d422                	sw	s0,40(sp)
20011726:	1800                	addi	s0,sp,48
20011728:	fca42e23          	sw	a0,-36(s0)
2001172c:	fcb42c23          	sw	a1,-40(s0)
20011730:	fcc42a23          	sw	a2,-44(s0)
/home/jubayer/Documents/riscV/EnergyHarvestingDeviceTestbed/FE310/blinky/freedom-metal/src/drivers/riscv_clint0.c:213
    int hartid;
    int rc = -1;
20011734:	57fd                	li	a5,-1
20011736:	fef42623          	sw	a5,-20(s0)
/home/jubayer/Documents/riscV/EnergyHarvestingDeviceTestbed/FE310/blinky/freedom-metal/src/drivers/riscv_clint0.c:214
    struct __metal_driver_riscv_clint0 *clint =
2001173a:	fdc42783          	lw	a5,-36(s0)
2001173e:	fef42423          	sw	a5,-24(s0)
/home/jubayer/Documents/riscV/EnergyHarvestingDeviceTestbed/FE310/blinky/freedom-metal/src/drivers/riscv_clint0.c:217
        (struct __metal_driver_riscv_clint0 *)(controller);
    unsigned long control_base =
        __metal_driver_sifive_clint0_control_base(controller);
20011742:	fdc42503          	lw	a0,-36(s0)
20011746:	3c91                	jal	2001119a <__metal_driver_sifive_clint0_control_base>
20011748:	fea42223          	sw	a0,-28(s0)
/home/jubayer/Documents/riscV/EnergyHarvestingDeviceTestbed/FE310/blinky/freedom-metal/src/drivers/riscv_clint0.c:219

    switch (command) {
2001174c:	fd842703          	lw	a4,-40(s0)
20011750:	4791                	li	a5,4
20011752:	0cf70063          	beq	a4,a5,20011812 <__metal_driver_riscv_clint0_command_request+0xf2>
20011756:	fd842703          	lw	a4,-40(s0)
2001175a:	4791                	li	a5,4
2001175c:	0ee7c063          	blt	a5,a4,2001183c <__metal_driver_riscv_clint0_command_request+0x11c>
20011760:	fd842703          	lw	a4,-40(s0)
20011764:	478d                	li	a5,3
20011766:	06f70563          	beq	a4,a5,200117d0 <__metal_driver_riscv_clint0_command_request+0xb0>
2001176a:	fd842703          	lw	a4,-40(s0)
2001176e:	478d                	li	a5,3
20011770:	0ce7c663          	blt	a5,a4,2001183c <__metal_driver_riscv_clint0_command_request+0x11c>
20011774:	fd842703          	lw	a4,-40(s0)
20011778:	4785                	li	a5,1
2001177a:	00f70863          	beq	a4,a5,2001178a <__metal_driver_riscv_clint0_command_request+0x6a>
2001177e:	fd842703          	lw	a4,-40(s0)
20011782:	4789                	li	a5,2
20011784:	02f70263          	beq	a4,a5,200117a8 <__metal_driver_riscv_clint0_command_request+0x88>
/home/jubayer/Documents/riscV/EnergyHarvestingDeviceTestbed/FE310/blinky/freedom-metal/src/drivers/riscv_clint0.c:263
            rc = __METAL_ACCESS_ONCE(
                (__metal_io_u32 *)(control_base + (hartid * 4)));
        }
        break;
    default:
        break;
20011788:	a855                	j	2001183c <__metal_driver_riscv_clint0_command_request+0x11c>
/home/jubayer/Documents/riscV/EnergyHarvestingDeviceTestbed/FE310/blinky/freedom-metal/src/drivers/riscv_clint0.c:221
        if (data) {
2001178a:	fd442783          	lw	a5,-44(s0)
2001178e:	cbcd                	beqz	a5,20011840 <__metal_driver_riscv_clint0_command_request+0x120>
/home/jubayer/Documents/riscV/EnergyHarvestingDeviceTestbed/FE310/blinky/freedom-metal/src/drivers/riscv_clint0.c:222
            *(unsigned long long *)data = __metal_clint0_mtime_get(clint);
20011790:	fe842503          	lw	a0,-24(s0)
20011794:	34d1                	jal	20011258 <__metal_clint0_mtime_get>
20011796:	872a                	mv	a4,a0
20011798:	87ae                	mv	a5,a1
2001179a:	fd442683          	lw	a3,-44(s0)
2001179e:	c298                	sw	a4,0(a3)
200117a0:	c2dc                	sw	a5,4(a3)
/home/jubayer/Documents/riscV/EnergyHarvestingDeviceTestbed/FE310/blinky/freedom-metal/src/drivers/riscv_clint0.c:223
            rc = 0;
200117a2:	fe042623          	sw	zero,-20(s0)
/home/jubayer/Documents/riscV/EnergyHarvestingDeviceTestbed/FE310/blinky/freedom-metal/src/drivers/riscv_clint0.c:225
        break;
200117a6:	a869                	j	20011840 <__metal_driver_riscv_clint0_command_request+0x120>
/home/jubayer/Documents/riscV/EnergyHarvestingDeviceTestbed/FE310/blinky/freedom-metal/src/drivers/riscv_clint0.c:227
        if (data) {
200117a8:	fd442783          	lw	a5,-44(s0)
200117ac:	cfc1                	beqz	a5,20011844 <__metal_driver_riscv_clint0_command_request+0x124>
/home/jubayer/Documents/riscV/EnergyHarvestingDeviceTestbed/FE310/blinky/freedom-metal/src/drivers/riscv_clint0.c:228
            hartid = *(int *)data;
200117ae:	fd442783          	lw	a5,-44(s0)
200117b2:	439c                	lw	a5,0(a5)
200117b4:	fef42023          	sw	a5,-32(s0)
/home/jubayer/Documents/riscV/EnergyHarvestingDeviceTestbed/FE310/blinky/freedom-metal/src/drivers/riscv_clint0.c:229
            __METAL_ACCESS_ONCE((
200117b8:	fe042783          	lw	a5,-32(s0)
200117bc:	078a                	slli	a5,a5,0x2
200117be:	873e                	mv	a4,a5
200117c0:	fe442783          	lw	a5,-28(s0)
200117c4:	97ba                	add	a5,a5,a4
/home/jubayer/Documents/riscV/EnergyHarvestingDeviceTestbed/FE310/blinky/freedom-metal/src/drivers/riscv_clint0.c:230
                __metal_io_u32 *)(control_base + (hartid * 4))) = METAL_DISABLE;
200117c6:	0007a023          	sw	zero,0(a5) # 4000 <__heap_size+0x3800>
/home/jubayer/Documents/riscV/EnergyHarvestingDeviceTestbed/FE310/blinky/freedom-metal/src/drivers/riscv_clint0.c:231
            rc = 0;
200117ca:	fe042623          	sw	zero,-20(s0)
/home/jubayer/Documents/riscV/EnergyHarvestingDeviceTestbed/FE310/blinky/freedom-metal/src/drivers/riscv_clint0.c:233
        break;
200117ce:	a89d                	j	20011844 <__metal_driver_riscv_clint0_command_request+0x124>
/home/jubayer/Documents/riscV/EnergyHarvestingDeviceTestbed/FE310/blinky/freedom-metal/src/drivers/riscv_clint0.c:235
        if (data) {
200117d0:	fd442783          	lw	a5,-44(s0)
200117d4:	cbb5                	beqz	a5,20011848 <__metal_driver_riscv_clint0_command_request+0x128>
/home/jubayer/Documents/riscV/EnergyHarvestingDeviceTestbed/FE310/blinky/freedom-metal/src/drivers/riscv_clint0.c:236
            hartid = *(int *)data;
200117d6:	fd442783          	lw	a5,-44(s0)
200117da:	439c                	lw	a5,0(a5)
200117dc:	fef42023          	sw	a5,-32(s0)
/home/jubayer/Documents/riscV/EnergyHarvestingDeviceTestbed/FE310/blinky/freedom-metal/src/drivers/riscv_clint0.c:237
            __METAL_ACCESS_ONCE(
200117e0:	fe042783          	lw	a5,-32(s0)
200117e4:	078a                	slli	a5,a5,0x2
200117e6:	873e                	mv	a4,a5
200117e8:	fe442783          	lw	a5,-28(s0)
200117ec:	97ba                	add	a5,a5,a4
200117ee:	873e                	mv	a4,a5
/home/jubayer/Documents/riscV/EnergyHarvestingDeviceTestbed/FE310/blinky/freedom-metal/src/drivers/riscv_clint0.c:238
                (__metal_io_u32 *)(control_base + (hartid * 4))) = METAL_ENABLE;
200117f0:	4785                	li	a5,1
200117f2:	c31c                	sw	a5,0(a4)
/home/jubayer/Documents/riscV/EnergyHarvestingDeviceTestbed/FE310/blinky/freedom-metal/src/drivers/riscv_clint0.c:248
            __METAL_IO_FENCE(o, i);
200117f4:	0480000f          	fence	o,i
/home/jubayer/Documents/riscV/EnergyHarvestingDeviceTestbed/FE310/blinky/freedom-metal/src/drivers/riscv_clint0.c:249
            rc = __METAL_ACCESS_ONCE(
200117f8:	fe042783          	lw	a5,-32(s0)
200117fc:	078a                	slli	a5,a5,0x2
200117fe:	873e                	mv	a4,a5
20011800:	fe442783          	lw	a5,-28(s0)
20011804:	97ba                	add	a5,a5,a4
20011806:	439c                	lw	a5,0(a5)
20011808:	fef42623          	sw	a5,-20(s0)
/home/jubayer/Documents/riscV/EnergyHarvestingDeviceTestbed/FE310/blinky/freedom-metal/src/drivers/riscv_clint0.c:251
            rc = 0;
2001180c:	fe042623          	sw	zero,-20(s0)
/home/jubayer/Documents/riscV/EnergyHarvestingDeviceTestbed/FE310/blinky/freedom-metal/src/drivers/riscv_clint0.c:253
        break;
20011810:	a825                	j	20011848 <__metal_driver_riscv_clint0_command_request+0x128>
/home/jubayer/Documents/riscV/EnergyHarvestingDeviceTestbed/FE310/blinky/freedom-metal/src/drivers/riscv_clint0.c:255
        rc = 0;
20011812:	fe042623          	sw	zero,-20(s0)
/home/jubayer/Documents/riscV/EnergyHarvestingDeviceTestbed/FE310/blinky/freedom-metal/src/drivers/riscv_clint0.c:256
        if (data) {
20011816:	fd442783          	lw	a5,-44(s0)
2001181a:	cb8d                	beqz	a5,2001184c <__metal_driver_riscv_clint0_command_request+0x12c>
/home/jubayer/Documents/riscV/EnergyHarvestingDeviceTestbed/FE310/blinky/freedom-metal/src/drivers/riscv_clint0.c:257
            hartid = *(int *)data;
2001181c:	fd442783          	lw	a5,-44(s0)
20011820:	439c                	lw	a5,0(a5)
20011822:	fef42023          	sw	a5,-32(s0)
/home/jubayer/Documents/riscV/EnergyHarvestingDeviceTestbed/FE310/blinky/freedom-metal/src/drivers/riscv_clint0.c:258
            rc = __METAL_ACCESS_ONCE(
20011826:	fe042783          	lw	a5,-32(s0)
2001182a:	078a                	slli	a5,a5,0x2
2001182c:	873e                	mv	a4,a5
2001182e:	fe442783          	lw	a5,-28(s0)
20011832:	97ba                	add	a5,a5,a4
20011834:	439c                	lw	a5,0(a5)
20011836:	fef42623          	sw	a5,-20(s0)
/home/jubayer/Documents/riscV/EnergyHarvestingDeviceTestbed/FE310/blinky/freedom-metal/src/drivers/riscv_clint0.c:261
        break;
2001183a:	a809                	j	2001184c <__metal_driver_riscv_clint0_command_request+0x12c>
/home/jubayer/Documents/riscV/EnergyHarvestingDeviceTestbed/FE310/blinky/freedom-metal/src/drivers/riscv_clint0.c:263
        break;
2001183c:	0001                	nop
2001183e:	a801                	j	2001184e <__metal_driver_riscv_clint0_command_request+0x12e>
/home/jubayer/Documents/riscV/EnergyHarvestingDeviceTestbed/FE310/blinky/freedom-metal/src/drivers/riscv_clint0.c:225
        break;
20011840:	0001                	nop
20011842:	a031                	j	2001184e <__metal_driver_riscv_clint0_command_request+0x12e>
/home/jubayer/Documents/riscV/EnergyHarvestingDeviceTestbed/FE310/blinky/freedom-metal/src/drivers/riscv_clint0.c:233
        break;
20011844:	0001                	nop
20011846:	a021                	j	2001184e <__metal_driver_riscv_clint0_command_request+0x12e>
/home/jubayer/Documents/riscV/EnergyHarvestingDeviceTestbed/FE310/blinky/freedom-metal/src/drivers/riscv_clint0.c:253
        break;
20011848:	0001                	nop
2001184a:	a011                	j	2001184e <__metal_driver_riscv_clint0_command_request+0x12e>
/home/jubayer/Documents/riscV/EnergyHarvestingDeviceTestbed/FE310/blinky/freedom-metal/src/drivers/riscv_clint0.c:261
        break;
2001184c:	0001                	nop
/home/jubayer/Documents/riscV/EnergyHarvestingDeviceTestbed/FE310/blinky/freedom-metal/src/drivers/riscv_clint0.c:266
    }

    return rc;
2001184e:	fec42783          	lw	a5,-20(s0)
/home/jubayer/Documents/riscV/EnergyHarvestingDeviceTestbed/FE310/blinky/freedom-metal/src/drivers/riscv_clint0.c:267
}
20011852:	853e                	mv	a0,a5
20011854:	50b2                	lw	ra,44(sp)
20011856:	5422                	lw	s0,40(sp)
20011858:	6145                	addi	sp,sp,48
2001185a:	8082                	ret

2001185c <__metal_driver_riscv_clint0_clear_interrupt>:
__metal_driver_riscv_clint0_clear_interrupt():
/home/jubayer/Documents/riscV/EnergyHarvestingDeviceTestbed/FE310/blinky/freedom-metal/src/drivers/riscv_clint0.c:270

int __metal_driver_riscv_clint0_clear_interrupt(
    struct metal_interrupt *controller, int id) {
2001185c:	7179                	addi	sp,sp,-48
2001185e:	d606                	sw	ra,44(sp)
20011860:	d422                	sw	s0,40(sp)
20011862:	1800                	addi	s0,sp,48
20011864:	fca42e23          	sw	a0,-36(s0)
20011868:	fcb42c23          	sw	a1,-40(s0)
/home/jubayer/Documents/riscV/EnergyHarvestingDeviceTestbed/FE310/blinky/freedom-metal/src/drivers/riscv_clint0.c:271
    int hartid = metal_cpu_get_current_hartid();
2001186c:	01f030ef          	jal	ra,2001508a <metal_cpu_get_current_hartid>
20011870:	87aa                	mv	a5,a0
20011872:	fef42623          	sw	a5,-20(s0)
/home/jubayer/Documents/riscV/EnergyHarvestingDeviceTestbed/FE310/blinky/freedom-metal/src/drivers/riscv_clint0.c:272
    return __metal_driver_riscv_clint0_command_request(
20011876:	fec40793          	addi	a5,s0,-20
2001187a:	863e                	mv	a2,a5
2001187c:	4589                	li	a1,2
2001187e:	fdc42503          	lw	a0,-36(s0)
20011882:	3d79                	jal	20011720 <__metal_driver_riscv_clint0_command_request>
20011884:	87aa                	mv	a5,a0
/home/jubayer/Documents/riscV/EnergyHarvestingDeviceTestbed/FE310/blinky/freedom-metal/src/drivers/riscv_clint0.c:274
        controller, METAL_SOFTWARE_IPI_CLEAR, &hartid);
}
20011886:	853e                	mv	a0,a5
20011888:	50b2                	lw	ra,44(sp)
2001188a:	5422                	lw	s0,40(sp)
2001188c:	6145                	addi	sp,sp,48
2001188e:	8082                	ret

20011890 <__metal_driver_riscv_clint0_set_interrupt>:
__metal_driver_riscv_clint0_set_interrupt():
/home/jubayer/Documents/riscV/EnergyHarvestingDeviceTestbed/FE310/blinky/freedom-metal/src/drivers/riscv_clint0.c:277

int __metal_driver_riscv_clint0_set_interrupt(
    struct metal_interrupt *controller, int id) {
20011890:	7179                	addi	sp,sp,-48
20011892:	d606                	sw	ra,44(sp)
20011894:	d422                	sw	s0,40(sp)
20011896:	1800                	addi	s0,sp,48
20011898:	fca42e23          	sw	a0,-36(s0)
2001189c:	fcb42c23          	sw	a1,-40(s0)
/home/jubayer/Documents/riscV/EnergyHarvestingDeviceTestbed/FE310/blinky/freedom-metal/src/drivers/riscv_clint0.c:278
    int hartid = metal_cpu_get_current_hartid();
200118a0:	7ea030ef          	jal	ra,2001508a <metal_cpu_get_current_hartid>
200118a4:	87aa                	mv	a5,a0
200118a6:	fef42623          	sw	a5,-20(s0)
/home/jubayer/Documents/riscV/EnergyHarvestingDeviceTestbed/FE310/blinky/freedom-metal/src/drivers/riscv_clint0.c:279
    return __metal_driver_riscv_clint0_command_request(
200118aa:	fec40793          	addi	a5,s0,-20
200118ae:	863e                	mv	a2,a5
200118b0:	458d                	li	a1,3
200118b2:	fdc42503          	lw	a0,-36(s0)
200118b6:	35ad                	jal	20011720 <__metal_driver_riscv_clint0_command_request>
200118b8:	87aa                	mv	a5,a0
/home/jubayer/Documents/riscV/EnergyHarvestingDeviceTestbed/FE310/blinky/freedom-metal/src/drivers/riscv_clint0.c:281
        controller, METAL_SOFTWARE_IPI_SET, &hartid);
}
200118ba:	853e                	mv	a0,a5
200118bc:	50b2                	lw	ra,44(sp)
200118be:	5422                	lw	s0,40(sp)
200118c0:	6145                	addi	sp,sp,48
200118c2:	8082                	ret

200118c4 <__metal_driver_cpu_hartid>:
__metal_driver_cpu_hartid():
/home/jubayer/Documents/riscV/EnergyHarvestingDeviceTestbed/FE310/blinky/bsp/build/debug/./metal/machine.h:292



/* --------------------- cpu ------------ */
static __inline__ int __metal_driver_cpu_hartid(struct metal_cpu *cpu)
{
200118c4:	1101                	addi	sp,sp,-32
200118c6:	ce22                	sw	s0,28(sp)
200118c8:	1000                	addi	s0,sp,32
200118ca:	fea42623          	sw	a0,-20(s0)
/home/jubayer/Documents/riscV/EnergyHarvestingDeviceTestbed/FE310/blinky/bsp/build/debug/./metal/machine.h:293
	if ((uintptr_t)cpu == (uintptr_t)&__metal_dt_cpu_0) {
200118ce:	fec42703          	lw	a4,-20(s0)
200118d2:	81418793          	addi	a5,gp,-2028 # 80000a74 <__metal_dt_cpu_0>
200118d6:	00f71463          	bne	a4,a5,200118de <__metal_driver_cpu_hartid+0x1a>
/home/jubayer/Documents/riscV/EnergyHarvestingDeviceTestbed/FE310/blinky/bsp/build/debug/./metal/machine.h:294
		return 0;
200118da:	4781                	li	a5,0
200118dc:	a011                	j	200118e0 <__metal_driver_cpu_hartid+0x1c>
/home/jubayer/Documents/riscV/EnergyHarvestingDeviceTestbed/FE310/blinky/bsp/build/debug/./metal/machine.h:297
	}
	else {
		return -1;
200118de:	57fd                	li	a5,-1
/home/jubayer/Documents/riscV/EnergyHarvestingDeviceTestbed/FE310/blinky/bsp/build/debug/./metal/machine.h:299
	}
}
200118e0:	853e                	mv	a0,a5
200118e2:	4472                	lw	s0,28(sp)
200118e4:	6105                	addi	sp,sp,32
200118e6:	8082                	ret

200118e8 <__metal_driver_cpu_timebase>:
__metal_driver_cpu_timebase():
/home/jubayer/Documents/riscV/EnergyHarvestingDeviceTestbed/FE310/blinky/bsp/build/debug/./metal/machine.h:302

static __inline__ int __metal_driver_cpu_timebase(struct metal_cpu *cpu)
{
200118e8:	1101                	addi	sp,sp,-32
200118ea:	ce22                	sw	s0,28(sp)
200118ec:	1000                	addi	s0,sp,32
200118ee:	fea42623          	sw	a0,-20(s0)
/home/jubayer/Documents/riscV/EnergyHarvestingDeviceTestbed/FE310/blinky/bsp/build/debug/./metal/machine.h:303
	if ((uintptr_t)cpu == (uintptr_t)&__metal_dt_cpu_0) {
200118f2:	fec42703          	lw	a4,-20(s0)
200118f6:	81418793          	addi	a5,gp,-2028 # 80000a74 <__metal_dt_cpu_0>
200118fa:	00f71763          	bne	a4,a5,20011908 <__metal_driver_cpu_timebase+0x20>
/home/jubayer/Documents/riscV/EnergyHarvestingDeviceTestbed/FE310/blinky/bsp/build/debug/./metal/machine.h:304
		return 16000000;
200118fe:	00f427b7          	lui	a5,0xf42
20011902:	40078793          	addi	a5,a5,1024 # f42400 <__heap_size+0xf41c00>
20011906:	a011                	j	2001190a <__metal_driver_cpu_timebase+0x22>
/home/jubayer/Documents/riscV/EnergyHarvestingDeviceTestbed/FE310/blinky/bsp/build/debug/./metal/machine.h:307
	}
	else {
		return 0;
20011908:	4781                	li	a5,0
/home/jubayer/Documents/riscV/EnergyHarvestingDeviceTestbed/FE310/blinky/bsp/build/debug/./metal/machine.h:309
	}
}
2001190a:	853e                	mv	a0,a5
2001190c:	4472                	lw	s0,28(sp)
2001190e:	6105                	addi	sp,sp,32
20011910:	8082                	ret

20011912 <__metal_driver_cpu_interrupt_controller>:
__metal_driver_cpu_interrupt_controller():
/home/jubayer/Documents/riscV/EnergyHarvestingDeviceTestbed/FE310/blinky/bsp/build/debug/./metal/machine.h:312

static __inline__ struct metal_interrupt * __metal_driver_cpu_interrupt_controller(struct metal_cpu *cpu)
{
20011912:	1101                	addi	sp,sp,-32
20011914:	ce22                	sw	s0,28(sp)
20011916:	1000                	addi	s0,sp,32
20011918:	fea42623          	sw	a0,-20(s0)
/home/jubayer/Documents/riscV/EnergyHarvestingDeviceTestbed/FE310/blinky/bsp/build/debug/./metal/machine.h:313
	if ((uintptr_t)cpu == (uintptr_t)&__metal_dt_cpu_0) {
2001191c:	fec42703          	lw	a4,-20(s0)
20011920:	81418793          	addi	a5,gp,-2028 # 80000a74 <__metal_dt_cpu_0>
20011924:	00f71763          	bne	a4,a5,20011932 <__metal_driver_cpu_interrupt_controller+0x20>
/home/jubayer/Documents/riscV/EnergyHarvestingDeviceTestbed/FE310/blinky/bsp/build/debug/./metal/machine.h:314
		return &__metal_dt_cpu_0_interrupt_controller.controller;
20011928:	800007b7          	lui	a5,0x80000
2001192c:	09078793          	addi	a5,a5,144 # 80000090 <__global_pointer$+0xffffee30>
20011930:	a011                	j	20011934 <__metal_driver_cpu_interrupt_controller+0x22>
/home/jubayer/Documents/riscV/EnergyHarvestingDeviceTestbed/FE310/blinky/bsp/build/debug/./metal/machine.h:317
	}
	else {
		return NULL;
20011932:	4781                	li	a5,0
/home/jubayer/Documents/riscV/EnergyHarvestingDeviceTestbed/FE310/blinky/bsp/build/debug/./metal/machine.h:319
	}
}
20011934:	853e                	mv	a0,a5
20011936:	4472                	lw	s0,28(sp)
20011938:	6105                	addi	sp,sp,32
2001193a:	8082                	ret

2001193c <__metal_driver_cpu_buserror>:
__metal_driver_cpu_buserror():
/home/jubayer/Documents/riscV/EnergyHarvestingDeviceTestbed/FE310/blinky/bsp/build/debug/./metal/machine.h:332
		return 0;
	}
}

static __inline__ struct metal_buserror * __metal_driver_cpu_buserror(struct metal_cpu *cpu)
{
2001193c:	1101                	addi	sp,sp,-32
2001193e:	ce22                	sw	s0,28(sp)
20011940:	1000                	addi	s0,sp,32
20011942:	fea42623          	sw	a0,-20(s0)
/home/jubayer/Documents/riscV/EnergyHarvestingDeviceTestbed/FE310/blinky/bsp/build/debug/./metal/machine.h:333
	if ((uintptr_t)cpu == (uintptr_t)&__metal_dt_cpu_0) {
20011946:	fec42703          	lw	a4,-20(s0)
2001194a:	81418793          	addi	a5,gp,-2028 # 80000a74 <__metal_dt_cpu_0>
2001194e:	00f71463          	bne	a4,a5,20011956 <__metal_driver_cpu_buserror+0x1a>
/home/jubayer/Documents/riscV/EnergyHarvestingDeviceTestbed/FE310/blinky/bsp/build/debug/./metal/machine.h:334
		return NULL;
20011952:	4781                	li	a5,0
20011954:	a011                	j	20011958 <__metal_driver_cpu_buserror+0x1c>
/home/jubayer/Documents/riscV/EnergyHarvestingDeviceTestbed/FE310/blinky/bsp/build/debug/./metal/machine.h:337
	}
	else {
		return NULL;
20011956:	4781                	li	a5,0
/home/jubayer/Documents/riscV/EnergyHarvestingDeviceTestbed/FE310/blinky/bsp/build/debug/./metal/machine.h:339
	}
}
20011958:	853e                	mv	a0,a5
2001195a:	4472                	lw	s0,28(sp)
2001195c:	6105                	addi	sp,sp,32
2001195e:	8082                	ret

20011960 <__metal_driver_cpu_get>:
__metal_driver_cpu_get():
/home/jubayer/Documents/riscV/EnergyHarvestingDeviceTestbed/FE310/blinky/freedom-metal/src/drivers/riscv_cpu.c:25
extern void __metal_vector_table();
unsigned long long __metal_driver_cpu_mtime_get(struct metal_cpu *cpu);
int __metal_driver_cpu_mtimecmp_set(struct metal_cpu *cpu,
                                    unsigned long long time);

struct metal_cpu *__metal_driver_cpu_get(int hartid) {
20011960:	1101                	addi	sp,sp,-32
20011962:	ce22                	sw	s0,28(sp)
20011964:	1000                	addi	s0,sp,32
20011966:	fea42623          	sw	a0,-20(s0)
/home/jubayer/Documents/riscV/EnergyHarvestingDeviceTestbed/FE310/blinky/freedom-metal/src/drivers/riscv_cpu.c:26
    if (hartid < __METAL_DT_MAX_HARTS) {
2001196a:	fec42783          	lw	a5,-20(s0)
2001196e:	00f04c63          	bgtz	a5,20011986 <__metal_driver_cpu_get+0x26>
/home/jubayer/Documents/riscV/EnergyHarvestingDeviceTestbed/FE310/blinky/freedom-metal/src/drivers/riscv_cpu.c:27
        return &(__metal_cpu_table[hartid]->cpu);
20011972:	800017b7          	lui	a5,0x80001
20011976:	fec42703          	lw	a4,-20(s0)
2001197a:	070a                	slli	a4,a4,0x2
2001197c:	a6478793          	addi	a5,a5,-1436 # 80000a64 <__global_pointer$+0xfffff804>
20011980:	97ba                	add	a5,a5,a4
20011982:	439c                	lw	a5,0(a5)
20011984:	a011                	j	20011988 <__metal_driver_cpu_get+0x28>
/home/jubayer/Documents/riscV/EnergyHarvestingDeviceTestbed/FE310/blinky/freedom-metal/src/drivers/riscv_cpu.c:29
    }
    return (struct metal_cpu *)NULL;
20011986:	4781                	li	a5,0
/home/jubayer/Documents/riscV/EnergyHarvestingDeviceTestbed/FE310/blinky/freedom-metal/src/drivers/riscv_cpu.c:30
}
20011988:	853e                	mv	a0,a5
2001198a:	4472                	lw	s0,28(sp)
2001198c:	6105                	addi	sp,sp,32
2001198e:	8082                	ret

20011990 <__metal_myhart_id>:
__metal_myhart_id():
/home/jubayer/Documents/riscV/EnergyHarvestingDeviceTestbed/FE310/blinky/freedom-metal/src/drivers/riscv_cpu.c:32

uintptr_t __metal_myhart_id(void) {
20011990:	1101                	addi	sp,sp,-32
20011992:	ce22                	sw	s0,28(sp)
20011994:	1000                	addi	s0,sp,32
/home/jubayer/Documents/riscV/EnergyHarvestingDeviceTestbed/FE310/blinky/freedom-metal/src/drivers/riscv_cpu.c:34
    uintptr_t myhart;
    __asm__ volatile("csrr %0, mhartid" : "=r"(myhart));
20011996:	f14027f3          	csrr	a5,mhartid
2001199a:	fef42623          	sw	a5,-20(s0)
/home/jubayer/Documents/riscV/EnergyHarvestingDeviceTestbed/FE310/blinky/freedom-metal/src/drivers/riscv_cpu.c:35
    return myhart;
2001199e:	fec42783          	lw	a5,-20(s0)
/home/jubayer/Documents/riscV/EnergyHarvestingDeviceTestbed/FE310/blinky/freedom-metal/src/drivers/riscv_cpu.c:36
}
200119a2:	853e                	mv	a0,a5
200119a4:	4472                	lw	s0,28(sp)
200119a6:	6105                	addi	sp,sp,32
200119a8:	8082                	ret

200119aa <__metal_interrupt_global_enable>:
__metal_interrupt_global_enable():
/home/jubayer/Documents/riscV/EnergyHarvestingDeviceTestbed/FE310/blinky/freedom-metal/src/drivers/riscv_cpu.c:45
    for (ptr = base; ptr < (base + size); ptr++) {
        *ptr = 0;
    }
}

void __metal_interrupt_global_enable(void) {
200119aa:	1101                	addi	sp,sp,-32
200119ac:	ce22                	sw	s0,28(sp)
200119ae:	1000                	addi	s0,sp,32
/home/jubayer/Documents/riscV/EnergyHarvestingDeviceTestbed/FE310/blinky/freedom-metal/src/drivers/riscv_cpu.c:47
    uintptr_t m;
    __asm__ volatile("csrrs %0, mstatus, %1"
200119b0:	47a1                	li	a5,8
200119b2:	3007a7f3          	csrrs	a5,mstatus,a5
200119b6:	fef42623          	sw	a5,-20(s0)
/home/jubayer/Documents/riscV/EnergyHarvestingDeviceTestbed/FE310/blinky/freedom-metal/src/drivers/riscv_cpu.c:50
                     : "=r"(m)
                     : "r"(METAL_MIE_INTERRUPT));
}
200119ba:	0001                	nop
200119bc:	4472                	lw	s0,28(sp)
200119be:	6105                	addi	sp,sp,32
200119c0:	8082                	ret

200119c2 <__metal_interrupt_global_disable>:
__metal_interrupt_global_disable():
/home/jubayer/Documents/riscV/EnergyHarvestingDeviceTestbed/FE310/blinky/freedom-metal/src/drivers/riscv_cpu.c:52

void __metal_interrupt_global_disable(void) {
200119c2:	1101                	addi	sp,sp,-32
200119c4:	ce22                	sw	s0,28(sp)
200119c6:	1000                	addi	s0,sp,32
/home/jubayer/Documents/riscV/EnergyHarvestingDeviceTestbed/FE310/blinky/freedom-metal/src/drivers/riscv_cpu.c:54
    uintptr_t m;
    __asm__ volatile("csrrc %0, mstatus, %1"
200119c8:	47a1                	li	a5,8
200119ca:	3007b7f3          	csrrc	a5,mstatus,a5
200119ce:	fef42623          	sw	a5,-20(s0)
/home/jubayer/Documents/riscV/EnergyHarvestingDeviceTestbed/FE310/blinky/freedom-metal/src/drivers/riscv_cpu.c:57
                     : "=r"(m)
                     : "r"(METAL_MIE_INTERRUPT));
}
200119d2:	0001                	nop
200119d4:	4472                	lw	s0,28(sp)
200119d6:	6105                	addi	sp,sp,32
200119d8:	8082                	ret

200119da <__metal_interrupt_software_enable>:
__metal_interrupt_software_enable():
/home/jubayer/Documents/riscV/EnergyHarvestingDeviceTestbed/FE310/blinky/freedom-metal/src/drivers/riscv_cpu.c:59

void __metal_interrupt_software_enable(void) {
200119da:	1101                	addi	sp,sp,-32
200119dc:	ce22                	sw	s0,28(sp)
200119de:	1000                	addi	s0,sp,32
/home/jubayer/Documents/riscV/EnergyHarvestingDeviceTestbed/FE310/blinky/freedom-metal/src/drivers/riscv_cpu.c:61
    uintptr_t m;
    __asm__ volatile("csrrs %0, mie, %1"
200119e0:	47a1                	li	a5,8
200119e2:	3047a7f3          	csrrs	a5,mie,a5
200119e6:	fef42623          	sw	a5,-20(s0)
/home/jubayer/Documents/riscV/EnergyHarvestingDeviceTestbed/FE310/blinky/freedom-metal/src/drivers/riscv_cpu.c:64
                     : "=r"(m)
                     : "r"(METAL_LOCAL_INTERRUPT_SW));
}
200119ea:	0001                	nop
200119ec:	4472                	lw	s0,28(sp)
200119ee:	6105                	addi	sp,sp,32
200119f0:	8082                	ret

200119f2 <__metal_interrupt_software_disable>:
__metal_interrupt_software_disable():
/home/jubayer/Documents/riscV/EnergyHarvestingDeviceTestbed/FE310/blinky/freedom-metal/src/drivers/riscv_cpu.c:66

void __metal_interrupt_software_disable(void) {
200119f2:	1101                	addi	sp,sp,-32
200119f4:	ce22                	sw	s0,28(sp)
200119f6:	1000                	addi	s0,sp,32
/home/jubayer/Documents/riscV/EnergyHarvestingDeviceTestbed/FE310/blinky/freedom-metal/src/drivers/riscv_cpu.c:68
    uintptr_t m;
    __asm__ volatile("csrrc %0, mie, %1"
200119f8:	47a1                	li	a5,8
200119fa:	3047b7f3          	csrrc	a5,mie,a5
200119fe:	fef42623          	sw	a5,-20(s0)
/home/jubayer/Documents/riscV/EnergyHarvestingDeviceTestbed/FE310/blinky/freedom-metal/src/drivers/riscv_cpu.c:71
                     : "=r"(m)
                     : "r"(METAL_LOCAL_INTERRUPT_SW));
}
20011a02:	0001                	nop
20011a04:	4472                	lw	s0,28(sp)
20011a06:	6105                	addi	sp,sp,32
20011a08:	8082                	ret

20011a0a <__metal_interrupt_timer_enable>:
__metal_interrupt_timer_enable():
/home/jubayer/Documents/riscV/EnergyHarvestingDeviceTestbed/FE310/blinky/freedom-metal/src/drivers/riscv_cpu.c:73

void __metal_interrupt_timer_enable(void) {
20011a0a:	1101                	addi	sp,sp,-32
20011a0c:	ce22                	sw	s0,28(sp)
20011a0e:	1000                	addi	s0,sp,32
/home/jubayer/Documents/riscV/EnergyHarvestingDeviceTestbed/FE310/blinky/freedom-metal/src/drivers/riscv_cpu.c:75
    uintptr_t m;
    __asm__ volatile("csrrs %0, mie, %1"
20011a10:	08000793          	li	a5,128
20011a14:	3047a7f3          	csrrs	a5,mie,a5
20011a18:	fef42623          	sw	a5,-20(s0)
/home/jubayer/Documents/riscV/EnergyHarvestingDeviceTestbed/FE310/blinky/freedom-metal/src/drivers/riscv_cpu.c:78
                     : "=r"(m)
                     : "r"(METAL_LOCAL_INTERRUPT_TMR));
}
20011a1c:	0001                	nop
20011a1e:	4472                	lw	s0,28(sp)
20011a20:	6105                	addi	sp,sp,32
20011a22:	8082                	ret

20011a24 <__metal_interrupt_timer_disable>:
__metal_interrupt_timer_disable():
/home/jubayer/Documents/riscV/EnergyHarvestingDeviceTestbed/FE310/blinky/freedom-metal/src/drivers/riscv_cpu.c:80

void __metal_interrupt_timer_disable(void) {
20011a24:	1101                	addi	sp,sp,-32
20011a26:	ce22                	sw	s0,28(sp)
20011a28:	1000                	addi	s0,sp,32
/home/jubayer/Documents/riscV/EnergyHarvestingDeviceTestbed/FE310/blinky/freedom-metal/src/drivers/riscv_cpu.c:82
    uintptr_t m;
    __asm__ volatile("csrrc %0, mie, %1"
20011a2a:	08000793          	li	a5,128
20011a2e:	3047b7f3          	csrrc	a5,mie,a5
20011a32:	fef42623          	sw	a5,-20(s0)
/home/jubayer/Documents/riscV/EnergyHarvestingDeviceTestbed/FE310/blinky/freedom-metal/src/drivers/riscv_cpu.c:85
                     : "=r"(m)
                     : "r"(METAL_LOCAL_INTERRUPT_TMR));
}
20011a36:	0001                	nop
20011a38:	4472                	lw	s0,28(sp)
20011a3a:	6105                	addi	sp,sp,32
20011a3c:	8082                	ret

20011a3e <__metal_interrupt_external_enable>:
__metal_interrupt_external_enable():
/home/jubayer/Documents/riscV/EnergyHarvestingDeviceTestbed/FE310/blinky/freedom-metal/src/drivers/riscv_cpu.c:87

void __metal_interrupt_external_enable(void) {
20011a3e:	1101                	addi	sp,sp,-32
20011a40:	ce22                	sw	s0,28(sp)
20011a42:	1000                	addi	s0,sp,32
/home/jubayer/Documents/riscV/EnergyHarvestingDeviceTestbed/FE310/blinky/freedom-metal/src/drivers/riscv_cpu.c:89
    uintptr_t m;
    __asm__ volatile("csrrs %0, mie, %1"
20011a44:	6785                	lui	a5,0x1
20011a46:	80078793          	addi	a5,a5,-2048 # 800 <__heap_size>
20011a4a:	3047a7f3          	csrrs	a5,mie,a5
20011a4e:	fef42623          	sw	a5,-20(s0)
/home/jubayer/Documents/riscV/EnergyHarvestingDeviceTestbed/FE310/blinky/freedom-metal/src/drivers/riscv_cpu.c:92
                     : "=r"(m)
                     : "r"(METAL_LOCAL_INTERRUPT_EXT));
}
20011a52:	0001                	nop
20011a54:	4472                	lw	s0,28(sp)
20011a56:	6105                	addi	sp,sp,32
20011a58:	8082                	ret

20011a5a <__metal_interrupt_external_disable>:
__metal_interrupt_external_disable():
/home/jubayer/Documents/riscV/EnergyHarvestingDeviceTestbed/FE310/blinky/freedom-metal/src/drivers/riscv_cpu.c:94

void __metal_interrupt_external_disable(void) {
20011a5a:	1101                	addi	sp,sp,-32
20011a5c:	ce22                	sw	s0,28(sp)
20011a5e:	1000                	addi	s0,sp,32
/home/jubayer/Documents/riscV/EnergyHarvestingDeviceTestbed/FE310/blinky/freedom-metal/src/drivers/riscv_cpu.c:96
    unsigned long m;
    __asm__ volatile("csrrc %0, mie, %1"
20011a60:	6785                	lui	a5,0x1
20011a62:	80078793          	addi	a5,a5,-2048 # 800 <__heap_size>
20011a66:	3047b7f3          	csrrc	a5,mie,a5
20011a6a:	fef42623          	sw	a5,-20(s0)
/home/jubayer/Documents/riscV/EnergyHarvestingDeviceTestbed/FE310/blinky/freedom-metal/src/drivers/riscv_cpu.c:99
                     : "=r"(m)
                     : "r"(METAL_LOCAL_INTERRUPT_EXT));
}
20011a6e:	0001                	nop
20011a70:	4472                	lw	s0,28(sp)
20011a72:	6105                	addi	sp,sp,32
20011a74:	8082                	ret

20011a76 <__metal_interrupt_local_enable>:
__metal_interrupt_local_enable():
/home/jubayer/Documents/riscV/EnergyHarvestingDeviceTestbed/FE310/blinky/freedom-metal/src/drivers/riscv_cpu.c:101

void __metal_interrupt_local_enable(int id) {
20011a76:	7179                	addi	sp,sp,-48
20011a78:	d622                	sw	s0,44(sp)
20011a7a:	1800                	addi	s0,sp,48
20011a7c:	fca42e23          	sw	a0,-36(s0)
/home/jubayer/Documents/riscV/EnergyHarvestingDeviceTestbed/FE310/blinky/freedom-metal/src/drivers/riscv_cpu.c:102
    uintptr_t b = 1 << id;
20011a80:	fdc42783          	lw	a5,-36(s0)
20011a84:	4705                	li	a4,1
20011a86:	00f717b3          	sll	a5,a4,a5
20011a8a:	fef42623          	sw	a5,-20(s0)
/home/jubayer/Documents/riscV/EnergyHarvestingDeviceTestbed/FE310/blinky/freedom-metal/src/drivers/riscv_cpu.c:104
    uintptr_t m;
    __asm__ volatile("csrrs %0, mie, %1" : "=r"(m) : "r"(b));
20011a8e:	fec42783          	lw	a5,-20(s0)
20011a92:	3047a7f3          	csrrs	a5,mie,a5
20011a96:	fef42423          	sw	a5,-24(s0)
/home/jubayer/Documents/riscV/EnergyHarvestingDeviceTestbed/FE310/blinky/freedom-metal/src/drivers/riscv_cpu.c:105
}
20011a9a:	0001                	nop
20011a9c:	5432                	lw	s0,44(sp)
20011a9e:	6145                	addi	sp,sp,48
20011aa0:	8082                	ret

20011aa2 <__metal_interrupt_local_disable>:
__metal_interrupt_local_disable():
/home/jubayer/Documents/riscV/EnergyHarvestingDeviceTestbed/FE310/blinky/freedom-metal/src/drivers/riscv_cpu.c:107

void __metal_interrupt_local_disable(int id) {
20011aa2:	7179                	addi	sp,sp,-48
20011aa4:	d622                	sw	s0,44(sp)
20011aa6:	1800                	addi	s0,sp,48
20011aa8:	fca42e23          	sw	a0,-36(s0)
/home/jubayer/Documents/riscV/EnergyHarvestingDeviceTestbed/FE310/blinky/freedom-metal/src/drivers/riscv_cpu.c:108
    uintptr_t b = 1 << id;
20011aac:	fdc42783          	lw	a5,-36(s0)
20011ab0:	4705                	li	a4,1
20011ab2:	00f717b3          	sll	a5,a4,a5
20011ab6:	fef42623          	sw	a5,-20(s0)
/home/jubayer/Documents/riscV/EnergyHarvestingDeviceTestbed/FE310/blinky/freedom-metal/src/drivers/riscv_cpu.c:110
    uintptr_t m;
    __asm__ volatile("csrrc %0, mie, %1" : "=r"(m) : "r"(b));
20011aba:	fec42783          	lw	a5,-20(s0)
20011abe:	3047b7f3          	csrrc	a5,mie,a5
20011ac2:	fef42423          	sw	a5,-24(s0)
/home/jubayer/Documents/riscV/EnergyHarvestingDeviceTestbed/FE310/blinky/freedom-metal/src/drivers/riscv_cpu.c:111
}
20011ac6:	0001                	nop
20011ac8:	5432                	lw	s0,44(sp)
20011aca:	6145                	addi	sp,sp,48
20011acc:	8082                	ret

20011ace <__metal_default_exception_handler>:
__metal_default_exception_handler():
/home/jubayer/Documents/riscV/EnergyHarvestingDeviceTestbed/FE310/blinky/freedom-metal/src/drivers/riscv_cpu.c:113

void __metal_default_exception_handler(struct metal_cpu *cpu, int ecode) {
20011ace:	1101                	addi	sp,sp,-32
20011ad0:	ce06                	sw	ra,28(sp)
20011ad2:	cc22                	sw	s0,24(sp)
20011ad4:	1000                	addi	s0,sp,32
20011ad6:	fea42623          	sw	a0,-20(s0)
20011ada:	feb42423          	sw	a1,-24(s0)
/home/jubayer/Documents/riscV/EnergyHarvestingDeviceTestbed/FE310/blinky/freedom-metal/src/drivers/riscv_cpu.c:114
    metal_shutdown(100);
20011ade:	06400513          	li	a0,100
20011ae2:	5c2030ef          	jal	ra,200150a4 <metal_shutdown>

20011ae6 <__metal_default_interrupt_handler>:
__metal_default_interrupt_handler():
/home/jubayer/Documents/riscV/EnergyHarvestingDeviceTestbed/FE310/blinky/freedom-metal/src/drivers/riscv_cpu.c:117
}

void __metal_default_interrupt_handler(int id, void *priv) {
20011ae6:	1101                	addi	sp,sp,-32
20011ae8:	ce06                	sw	ra,28(sp)
20011aea:	cc22                	sw	s0,24(sp)
20011aec:	1000                	addi	s0,sp,32
20011aee:	fea42623          	sw	a0,-20(s0)
20011af2:	feb42423          	sw	a1,-24(s0)
/home/jubayer/Documents/riscV/EnergyHarvestingDeviceTestbed/FE310/blinky/freedom-metal/src/drivers/riscv_cpu.c:118
    metal_shutdown(200);
20011af6:	0c800513          	li	a0,200
20011afa:	5aa030ef          	jal	ra,200150a4 <metal_shutdown>

20011afe <metal_interrupt_vector_handler>:
metal_interrupt_vector_handler():
/home/jubayer/Documents/riscV/EnergyHarvestingDeviceTestbed/FE310/blinky/freedom-metal/src/drivers/riscv_cpu.c:122
}

/* The metal_interrupt_vector_handler() function can be redefined. */
void __attribute__((weak, interrupt)) metal_interrupt_vector_handler(void) {
20011afe:	715d                	addi	sp,sp,-80
20011b00:	c686                	sw	ra,76(sp)
20011b02:	c496                	sw	t0,72(sp)
20011b04:	c29a                	sw	t1,68(sp)
20011b06:	c09e                	sw	t2,64(sp)
20011b08:	de22                	sw	s0,60(sp)
20011b0a:	dc2a                	sw	a0,56(sp)
20011b0c:	da2e                	sw	a1,52(sp)
20011b0e:	d832                	sw	a2,48(sp)
20011b10:	d636                	sw	a3,44(sp)
20011b12:	d43a                	sw	a4,40(sp)
20011b14:	d23e                	sw	a5,36(sp)
20011b16:	d042                	sw	a6,32(sp)
20011b18:	ce46                	sw	a7,28(sp)
20011b1a:	cc72                	sw	t3,24(sp)
20011b1c:	ca76                	sw	t4,20(sp)
20011b1e:	c87a                	sw	t5,16(sp)
20011b20:	c67e                	sw	t6,12(sp)
20011b22:	0880                	addi	s0,sp,80
/home/jubayer/Documents/riscV/EnergyHarvestingDeviceTestbed/FE310/blinky/freedom-metal/src/drivers/riscv_cpu.c:123
    metal_shutdown(300);
20011b24:	12c00513          	li	a0,300
20011b28:	57c030ef          	jal	ra,200150a4 <metal_shutdown>

20011b2c <metal_software_interrupt_vector_handler>:
metal_software_interrupt_vector_handler():
/home/jubayer/Documents/riscV/EnergyHarvestingDeviceTestbed/FE310/blinky/freedom-metal/src/drivers/riscv_cpu.c:128
}

/* The metal_software_interrupt_vector_handler() function can be redefined. */
void __attribute__((weak, interrupt))
metal_software_interrupt_vector_handler(void) {
20011b2c:	711d                	addi	sp,sp,-96
20011b2e:	ce86                	sw	ra,92(sp)
20011b30:	cc96                	sw	t0,88(sp)
20011b32:	ca9a                	sw	t1,84(sp)
20011b34:	c89e                	sw	t2,80(sp)
20011b36:	c6a2                	sw	s0,76(sp)
20011b38:	c4aa                	sw	a0,72(sp)
20011b3a:	c2ae                	sw	a1,68(sp)
20011b3c:	c0b2                	sw	a2,64(sp)
20011b3e:	de36                	sw	a3,60(sp)
20011b40:	dc3a                	sw	a4,56(sp)
20011b42:	da3e                	sw	a5,52(sp)
20011b44:	d842                	sw	a6,48(sp)
20011b46:	d646                	sw	a7,44(sp)
20011b48:	d472                	sw	t3,40(sp)
20011b4a:	d276                	sw	t4,36(sp)
20011b4c:	d07a                	sw	t5,32(sp)
20011b4e:	ce7e                	sw	t6,28(sp)
20011b50:	1080                	addi	s0,sp,96
/home/jubayer/Documents/riscV/EnergyHarvestingDeviceTestbed/FE310/blinky/freedom-metal/src/drivers/riscv_cpu.c:129
    __METAL_IRQ_VECTOR_HANDLER(METAL_INTERRUPT_ID_SW);
20011b52:	3d3d                	jal	20011990 <__metal_myhart_id>
20011b54:	872a                	mv	a4,a0
20011b56:	800017b7          	lui	a5,0x80001
20011b5a:	070a                	slli	a4,a4,0x2
20011b5c:	a6478793          	addi	a5,a5,-1436 # 80000a64 <__global_pointer$+0xfffff804>
20011b60:	97ba                	add	a5,a5,a4
20011b62:	439c                	lw	a5,0(a5)
20011b64:	faf42623          	sw	a5,-84(s0)
20011b68:	fac42783          	lw	a5,-84(s0)
20011b6c:	c785                	beqz	a5,20011b94 <metal_software_interrupt_vector_handler+0x68>
/home/jubayer/Documents/riscV/EnergyHarvestingDeviceTestbed/FE310/blinky/freedom-metal/src/drivers/riscv_cpu.c:129 (discriminator 1)
20011b6e:	fac42503          	lw	a0,-84(s0)
20011b72:	3345                	jal	20011912 <__metal_driver_cpu_interrupt_controller>
20011b74:	faa42423          	sw	a0,-88(s0)
20011b78:	fa842783          	lw	a5,-88(s0)
20011b7c:	0e07a783          	lw	a5,224(a5)
20011b80:	faf42223          	sw	a5,-92(s0)
20011b84:	fa842783          	lw	a5,-88(s0)
20011b88:	0d87a783          	lw	a5,216(a5)
20011b8c:	fa442583          	lw	a1,-92(s0)
20011b90:	450d                	li	a0,3
20011b92:	9782                	jalr	a5
/home/jubayer/Documents/riscV/EnergyHarvestingDeviceTestbed/FE310/blinky/freedom-metal/src/drivers/riscv_cpu.c:130
}
20011b94:	0001                	nop
20011b96:	40f6                	lw	ra,92(sp)
20011b98:	42e6                	lw	t0,88(sp)
20011b9a:	4356                	lw	t1,84(sp)
20011b9c:	43c6                	lw	t2,80(sp)
20011b9e:	4436                	lw	s0,76(sp)
20011ba0:	4526                	lw	a0,72(sp)
20011ba2:	4596                	lw	a1,68(sp)
20011ba4:	4606                	lw	a2,64(sp)
20011ba6:	56f2                	lw	a3,60(sp)
20011ba8:	5762                	lw	a4,56(sp)
20011baa:	57d2                	lw	a5,52(sp)
20011bac:	5842                	lw	a6,48(sp)
20011bae:	58b2                	lw	a7,44(sp)
20011bb0:	5e22                	lw	t3,40(sp)
20011bb2:	5e92                	lw	t4,36(sp)
20011bb4:	5f02                	lw	t5,32(sp)
20011bb6:	4ff2                	lw	t6,28(sp)
20011bb8:	6125                	addi	sp,sp,96
20011bba:	30200073          	mret

20011bbe <__metal_default_sw_handler>:
__metal_default_sw_handler():
/home/jubayer/Documents/riscV/EnergyHarvestingDeviceTestbed/FE310/blinky/freedom-metal/src/drivers/riscv_cpu.c:132

void __metal_default_sw_handler(int id, void *priv) {
20011bbe:	7179                	addi	sp,sp,-48
20011bc0:	d606                	sw	ra,44(sp)
20011bc2:	d422                	sw	s0,40(sp)
20011bc4:	1800                	addi	s0,sp,48
20011bc6:	fca42e23          	sw	a0,-36(s0)
20011bca:	fcb42c23          	sw	a1,-40(s0)
/home/jubayer/Documents/riscV/EnergyHarvestingDeviceTestbed/FE310/blinky/freedom-metal/src/drivers/riscv_cpu.c:135
    uintptr_t mcause;
    struct __metal_driver_riscv_cpu_intc *intc;
    struct __metal_driver_cpu *cpu = __metal_cpu_table[__metal_myhart_id()];
20011bce:	33c9                	jal	20011990 <__metal_myhart_id>
20011bd0:	872a                	mv	a4,a0
20011bd2:	800017b7          	lui	a5,0x80001
20011bd6:	070a                	slli	a4,a4,0x2
20011bd8:	a6478793          	addi	a5,a5,-1436 # 80000a64 <__global_pointer$+0xfffff804>
20011bdc:	97ba                	add	a5,a5,a4
20011bde:	439c                	lw	a5,0(a5)
20011be0:	fef42623          	sw	a5,-20(s0)
/home/jubayer/Documents/riscV/EnergyHarvestingDeviceTestbed/FE310/blinky/freedom-metal/src/drivers/riscv_cpu.c:137

    __asm__ volatile("csrr %0, mcause" : "=r"(mcause));
20011be4:	342027f3          	csrr	a5,mcause
20011be8:	fef42423          	sw	a5,-24(s0)
/home/jubayer/Documents/riscV/EnergyHarvestingDeviceTestbed/FE310/blinky/freedom-metal/src/drivers/riscv_cpu.c:138
    if (cpu) {
20011bec:	fec42783          	lw	a5,-20(s0)
20011bf0:	c795                	beqz	a5,20011c1c <__metal_default_sw_handler+0x5e>
/home/jubayer/Documents/riscV/EnergyHarvestingDeviceTestbed/FE310/blinky/freedom-metal/src/drivers/riscv_cpu.c:140
        intc = (struct __metal_driver_riscv_cpu_intc *)
            __metal_driver_cpu_interrupt_controller((struct metal_cpu *)cpu);
20011bf2:	fec42503          	lw	a0,-20(s0)
20011bf6:	3b31                	jal	20011912 <__metal_driver_cpu_interrupt_controller>
20011bf8:	fea42223          	sw	a0,-28(s0)
/home/jubayer/Documents/riscV/EnergyHarvestingDeviceTestbed/FE310/blinky/freedom-metal/src/drivers/riscv_cpu.c:141
        intc->metal_exception_table[mcause & METAL_MCAUSE_CAUSE](
20011bfc:	fe842783          	lw	a5,-24(s0)
20011c00:	3ff7f793          	andi	a5,a5,1023
20011c04:	fe442703          	lw	a4,-28(s0)
20011c08:	0e878793          	addi	a5,a5,232
20011c0c:	078a                	slli	a5,a5,0x2
20011c0e:	97ba                	add	a5,a5,a4
20011c10:	439c                	lw	a5,0(a5)
20011c12:	fdc42583          	lw	a1,-36(s0)
20011c16:	fec42503          	lw	a0,-20(s0)
20011c1a:	9782                	jalr	a5
/home/jubayer/Documents/riscV/EnergyHarvestingDeviceTestbed/FE310/blinky/freedom-metal/src/drivers/riscv_cpu.c:144
            (struct metal_cpu *)cpu, id);
    }
}
20011c1c:	0001                	nop
20011c1e:	50b2                	lw	ra,44(sp)
20011c20:	5422                	lw	s0,40(sp)
20011c22:	6145                	addi	sp,sp,48
20011c24:	8082                	ret

20011c26 <metal_timer_interrupt_vector_handler>:
metal_timer_interrupt_vector_handler():
/home/jubayer/Documents/riscV/EnergyHarvestingDeviceTestbed/FE310/blinky/freedom-metal/src/drivers/riscv_cpu.c:148

/* The metal_timer_interrupt_vector_handler() function can be redefined. */
void __attribute__((weak, interrupt))
metal_timer_interrupt_vector_handler(void) {
20011c26:	711d                	addi	sp,sp,-96
20011c28:	ce86                	sw	ra,92(sp)
20011c2a:	cc96                	sw	t0,88(sp)
20011c2c:	ca9a                	sw	t1,84(sp)
20011c2e:	c89e                	sw	t2,80(sp)
20011c30:	c6a2                	sw	s0,76(sp)
20011c32:	c4aa                	sw	a0,72(sp)
20011c34:	c2ae                	sw	a1,68(sp)
20011c36:	c0b2                	sw	a2,64(sp)
20011c38:	de36                	sw	a3,60(sp)
20011c3a:	dc3a                	sw	a4,56(sp)
20011c3c:	da3e                	sw	a5,52(sp)
20011c3e:	d842                	sw	a6,48(sp)
20011c40:	d646                	sw	a7,44(sp)
20011c42:	d472                	sw	t3,40(sp)
20011c44:	d276                	sw	t4,36(sp)
20011c46:	d07a                	sw	t5,32(sp)
20011c48:	ce7e                	sw	t6,28(sp)
20011c4a:	1080                	addi	s0,sp,96
/home/jubayer/Documents/riscV/EnergyHarvestingDeviceTestbed/FE310/blinky/freedom-metal/src/drivers/riscv_cpu.c:149
    __METAL_IRQ_VECTOR_HANDLER(METAL_INTERRUPT_ID_TMR);
20011c4c:	3391                	jal	20011990 <__metal_myhart_id>
20011c4e:	872a                	mv	a4,a0
20011c50:	800017b7          	lui	a5,0x80001
20011c54:	070a                	slli	a4,a4,0x2
20011c56:	a6478793          	addi	a5,a5,-1436 # 80000a64 <__global_pointer$+0xfffff804>
20011c5a:	97ba                	add	a5,a5,a4
20011c5c:	439c                	lw	a5,0(a5)
20011c5e:	faf42623          	sw	a5,-84(s0)
20011c62:	fac42783          	lw	a5,-84(s0)
20011c66:	c785                	beqz	a5,20011c8e <metal_timer_interrupt_vector_handler+0x68>
/home/jubayer/Documents/riscV/EnergyHarvestingDeviceTestbed/FE310/blinky/freedom-metal/src/drivers/riscv_cpu.c:149 (discriminator 1)
20011c68:	fac42503          	lw	a0,-84(s0)
20011c6c:	315d                	jal	20011912 <__metal_driver_cpu_interrupt_controller>
20011c6e:	faa42423          	sw	a0,-88(s0)
20011c72:	fa842783          	lw	a5,-88(s0)
20011c76:	1407a783          	lw	a5,320(a5)
20011c7a:	faf42223          	sw	a5,-92(s0)
20011c7e:	fa842783          	lw	a5,-88(s0)
20011c82:	1387a783          	lw	a5,312(a5)
20011c86:	fa442583          	lw	a1,-92(s0)
20011c8a:	451d                	li	a0,7
20011c8c:	9782                	jalr	a5
/home/jubayer/Documents/riscV/EnergyHarvestingDeviceTestbed/FE310/blinky/freedom-metal/src/drivers/riscv_cpu.c:150
}
20011c8e:	0001                	nop
20011c90:	40f6                	lw	ra,92(sp)
20011c92:	42e6                	lw	t0,88(sp)
20011c94:	4356                	lw	t1,84(sp)
20011c96:	43c6                	lw	t2,80(sp)
20011c98:	4436                	lw	s0,76(sp)
20011c9a:	4526                	lw	a0,72(sp)
20011c9c:	4596                	lw	a1,68(sp)
20011c9e:	4606                	lw	a2,64(sp)
20011ca0:	56f2                	lw	a3,60(sp)
20011ca2:	5762                	lw	a4,56(sp)
20011ca4:	57d2                	lw	a5,52(sp)
20011ca6:	5842                	lw	a6,48(sp)
20011ca8:	58b2                	lw	a7,44(sp)
20011caa:	5e22                	lw	t3,40(sp)
20011cac:	5e92                	lw	t4,36(sp)
20011cae:	5f02                	lw	t5,32(sp)
20011cb0:	4ff2                	lw	t6,28(sp)
20011cb2:	6125                	addi	sp,sp,96
20011cb4:	30200073          	mret

20011cb8 <__metal_default_beu_handler>:
__metal_default_beu_handler():
/home/jubayer/Documents/riscV/EnergyHarvestingDeviceTestbed/FE310/blinky/freedom-metal/src/drivers/riscv_cpu.c:152

void __metal_default_beu_handler(int id, void *priv) {}
20011cb8:	1101                	addi	sp,sp,-32
20011cba:	ce22                	sw	s0,28(sp)
20011cbc:	1000                	addi	s0,sp,32
20011cbe:	fea42623          	sw	a0,-20(s0)
20011cc2:	feb42423          	sw	a1,-24(s0)
20011cc6:	0001                	nop
20011cc8:	4472                	lw	s0,28(sp)
20011cca:	6105                	addi	sp,sp,32
20011ccc:	8082                	ret

20011cce <__metal_default_timer_handler>:
__metal_default_timer_handler():
/home/jubayer/Documents/riscV/EnergyHarvestingDeviceTestbed/FE310/blinky/freedom-metal/src/drivers/riscv_cpu.c:154

void __metal_default_timer_handler(int id, void *priv) {
20011cce:	7179                	addi	sp,sp,-48
20011cd0:	d606                	sw	ra,44(sp)
20011cd2:	d422                	sw	s0,40(sp)
20011cd4:	1800                	addi	s0,sp,48
20011cd6:	fca42e23          	sw	a0,-36(s0)
20011cda:	fcb42c23          	sw	a1,-40(s0)
/home/jubayer/Documents/riscV/EnergyHarvestingDeviceTestbed/FE310/blinky/freedom-metal/src/drivers/riscv_cpu.c:155
    struct metal_cpu *cpu = __metal_driver_cpu_get(__metal_myhart_id());
20011cde:	394d                	jal	20011990 <__metal_myhart_id>
20011ce0:	87aa                	mv	a5,a0
20011ce2:	853e                	mv	a0,a5
20011ce4:	39b5                	jal	20011960 <__metal_driver_cpu_get>
20011ce6:	fea42623          	sw	a0,-20(s0)
/home/jubayer/Documents/riscV/EnergyHarvestingDeviceTestbed/FE310/blinky/freedom-metal/src/drivers/riscv_cpu.c:156
    unsigned long long time = __metal_driver_cpu_mtime_get(cpu);
20011cea:	fec42503          	lw	a0,-20(s0)
20011cee:	2a6010ef          	jal	ra,20012f94 <__metal_driver_cpu_mtime_get>
20011cf2:	fea42023          	sw	a0,-32(s0)
20011cf6:	feb42223          	sw	a1,-28(s0)
/home/jubayer/Documents/riscV/EnergyHarvestingDeviceTestbed/FE310/blinky/freedom-metal/src/drivers/riscv_cpu.c:159

    /* Set a 10 cycle timer */
    __metal_driver_cpu_mtimecmp_set(cpu, time + 10);
20011cfa:	fe042703          	lw	a4,-32(s0)
20011cfe:	fe442783          	lw	a5,-28(s0)
20011d02:	4529                	li	a0,10
20011d04:	4581                	li	a1,0
20011d06:	00a70633          	add	a2,a4,a0
20011d0a:	8832                	mv	a6,a2
20011d0c:	00e83833          	sltu	a6,a6,a4
20011d10:	00b786b3          	add	a3,a5,a1
20011d14:	00d807b3          	add	a5,a6,a3
20011d18:	86be                	mv	a3,a5
20011d1a:	8732                	mv	a4,a2
20011d1c:	87b6                	mv	a5,a3
20011d1e:	85ba                	mv	a1,a4
20011d20:	863e                	mv	a2,a5
20011d22:	fec42503          	lw	a0,-20(s0)
20011d26:	2d4010ef          	jal	ra,20012ffa <__metal_driver_cpu_mtimecmp_set>
/home/jubayer/Documents/riscV/EnergyHarvestingDeviceTestbed/FE310/blinky/freedom-metal/src/drivers/riscv_cpu.c:160
}
20011d2a:	0001                	nop
20011d2c:	50b2                	lw	ra,44(sp)
20011d2e:	5422                	lw	s0,40(sp)
20011d30:	6145                	addi	sp,sp,48
20011d32:	8082                	ret
	...

20011d80 <__metal_exception_handler>:
__metal_exception_handler():
/home/jubayer/Documents/riscV/EnergyHarvestingDeviceTestbed/FE310/blinky/freedom-metal/src/drivers/riscv_cpu.c:169
metal_external_interrupt_vector_handler(void) {
    __METAL_IRQ_VECTOR_HANDLER(METAL_INTERRUPT_ID_EXT);
}

void __metal_exception_handler(void) __attribute__((interrupt, aligned(128)));
void __metal_exception_handler(void) {
20011d80:	7119                	addi	sp,sp,-128
20011d82:	de86                	sw	ra,124(sp)
20011d84:	dc96                	sw	t0,120(sp)
20011d86:	da9a                	sw	t1,116(sp)
20011d88:	d89e                	sw	t2,112(sp)
20011d8a:	d6a2                	sw	s0,108(sp)
20011d8c:	d4aa                	sw	a0,104(sp)
20011d8e:	d2ae                	sw	a1,100(sp)
20011d90:	d0b2                	sw	a2,96(sp)
20011d92:	ceb6                	sw	a3,92(sp)
20011d94:	ccba                	sw	a4,88(sp)
20011d96:	cabe                	sw	a5,84(sp)
20011d98:	c8c2                	sw	a6,80(sp)
20011d9a:	c6c6                	sw	a7,76(sp)
20011d9c:	c4f2                	sw	t3,72(sp)
20011d9e:	c2f6                	sw	t4,68(sp)
20011da0:	c0fa                	sw	t5,64(sp)
20011da2:	de7e                	sw	t6,60(sp)
20011da4:	0100                	addi	s0,sp,128
/home/jubayer/Documents/riscV/EnergyHarvestingDeviceTestbed/FE310/blinky/freedom-metal/src/drivers/riscv_cpu.c:174
    int id;
    void *priv;
    uintptr_t mcause, mepc, mtval, mtvec;
    struct __metal_driver_riscv_cpu_intc *intc;
    struct __metal_driver_cpu *cpu = __metal_cpu_table[__metal_myhart_id()];
20011da6:	36ed                	jal	20011990 <__metal_myhart_id>
20011da8:	872a                	mv	a4,a0
20011daa:	800017b7          	lui	a5,0x80001
20011dae:	070a                	slli	a4,a4,0x2
20011db0:	a6478793          	addi	a5,a5,-1436 # 80000a64 <__global_pointer$+0xfffff804>
20011db4:	97ba                	add	a5,a5,a4
20011db6:	439c                	lw	a5,0(a5)
20011db8:	faf42623          	sw	a5,-84(s0)
/home/jubayer/Documents/riscV/EnergyHarvestingDeviceTestbed/FE310/blinky/freedom-metal/src/drivers/riscv_cpu.c:176

    __asm__ volatile("csrr %0, mcause" : "=r"(mcause));
20011dbc:	342027f3          	csrr	a5,mcause
20011dc0:	faf42423          	sw	a5,-88(s0)
/home/jubayer/Documents/riscV/EnergyHarvestingDeviceTestbed/FE310/blinky/freedom-metal/src/drivers/riscv_cpu.c:177
    __asm__ volatile("csrr %0, mepc" : "=r"(mepc));
20011dc4:	341027f3          	csrr	a5,mepc
20011dc8:	faf42223          	sw	a5,-92(s0)
/home/jubayer/Documents/riscV/EnergyHarvestingDeviceTestbed/FE310/blinky/freedom-metal/src/drivers/riscv_cpu.c:178
    __asm__ volatile("csrr %0, mtval" : "=r"(mtval));
20011dcc:	343027f3          	csrr	a5,mtval
20011dd0:	faf42023          	sw	a5,-96(s0)
/home/jubayer/Documents/riscV/EnergyHarvestingDeviceTestbed/FE310/blinky/freedom-metal/src/drivers/riscv_cpu.c:179
    __asm__ volatile("csrr %0, mtvec" : "=r"(mtvec));
20011dd4:	305027f3          	csrr	a5,mtvec
20011dd8:	f8f42e23          	sw	a5,-100(s0)
/home/jubayer/Documents/riscV/EnergyHarvestingDeviceTestbed/FE310/blinky/freedom-metal/src/drivers/riscv_cpu.c:181

    if (cpu) {
20011ddc:	fac42783          	lw	a5,-84(s0)
20011de0:	cbf5                	beqz	a5,20011ed4 <__metal_exception_handler+0x154>
/home/jubayer/Documents/riscV/EnergyHarvestingDeviceTestbed/FE310/blinky/freedom-metal/src/drivers/riscv_cpu.c:183
        intc = (struct __metal_driver_riscv_cpu_intc *)
            __metal_driver_cpu_interrupt_controller((struct metal_cpu *)cpu);
20011de2:	fac42503          	lw	a0,-84(s0)
20011de6:	3635                	jal	20011912 <__metal_driver_cpu_interrupt_controller>
20011de8:	f8a42c23          	sw	a0,-104(s0)
/home/jubayer/Documents/riscV/EnergyHarvestingDeviceTestbed/FE310/blinky/freedom-metal/src/drivers/riscv_cpu.c:184
        id = mcause & METAL_MCAUSE_CAUSE;
20011dec:	fa842783          	lw	a5,-88(s0)
20011df0:	3ff7f793          	andi	a5,a5,1023
20011df4:	f8f42a23          	sw	a5,-108(s0)
/home/jubayer/Documents/riscV/EnergyHarvestingDeviceTestbed/FE310/blinky/freedom-metal/src/drivers/riscv_cpu.c:185
        if (mcause & METAL_MCAUSE_INTR) {
20011df8:	fa842783          	lw	a5,-88(s0)
20011dfc:	0a07de63          	bgez	a5,20011eb8 <__metal_exception_handler+0x138>
/home/jubayer/Documents/riscV/EnergyHarvestingDeviceTestbed/FE310/blinky/freedom-metal/src/drivers/riscv_cpu.c:186
            if (id == METAL_INTERRUPT_ID_BEU) {
20011e00:	f9442703          	lw	a4,-108(s0)
20011e04:	08000793          	li	a5,128
20011e08:	02f71263          	bne	a4,a5,20011e2c <__metal_exception_handler+0xac>
/home/jubayer/Documents/riscV/EnergyHarvestingDeviceTestbed/FE310/blinky/freedom-metal/src/drivers/riscv_cpu.c:187
                priv = intc->metal_int_beu.exint_data;
20011e0c:	f9842783          	lw	a5,-104(s0)
20011e10:	3987a783          	lw	a5,920(a5)
20011e14:	f8f42623          	sw	a5,-116(s0)
/home/jubayer/Documents/riscV/EnergyHarvestingDeviceTestbed/FE310/blinky/freedom-metal/src/drivers/riscv_cpu.c:188
                intc->metal_int_beu.handler(id, priv);
20011e18:	f9842783          	lw	a5,-104(s0)
20011e1c:	3907a783          	lw	a5,912(a5)
20011e20:	f8c42583          	lw	a1,-116(s0)
20011e24:	f9442503          	lw	a0,-108(s0)
20011e28:	9782                	jalr	a5
/home/jubayer/Documents/riscV/EnergyHarvestingDeviceTestbed/FE310/blinky/freedom-metal/src/drivers/riscv_cpu.c:189
                return;
20011e2a:	a06d                	j	20011ed4 <__metal_exception_handler+0x154>
/home/jubayer/Documents/riscV/EnergyHarvestingDeviceTestbed/FE310/blinky/freedom-metal/src/drivers/riscv_cpu.c:191
            }
            if ((id < METAL_INTERRUPT_ID_CSW) ||
20011e2c:	f9442703          	lw	a4,-108(s0)
20011e30:	47ad                	li	a5,11
20011e32:	00e7d763          	bge	a5,a4,20011e40 <__metal_exception_handler+0xc0>
/home/jubayer/Documents/riscV/EnergyHarvestingDeviceTestbed/FE310/blinky/freedom-metal/src/drivers/riscv_cpu.c:192 (discriminator 1)
                ((mtvec & METAL_MTVEC_MASK) == METAL_MTVEC_DIRECT)) {
20011e36:	f9c42783          	lw	a5,-100(s0)
20011e3a:	03f7f793          	andi	a5,a5,63
/home/jubayer/Documents/riscV/EnergyHarvestingDeviceTestbed/FE310/blinky/freedom-metal/src/drivers/riscv_cpu.c:191 (discriminator 1)
            if ((id < METAL_INTERRUPT_ID_CSW) ||
20011e3e:	ef9d                	bnez	a5,20011e7c <__metal_exception_handler+0xfc>
/home/jubayer/Documents/riscV/EnergyHarvestingDeviceTestbed/FE310/blinky/freedom-metal/src/drivers/riscv_cpu.c:193
                priv = intc->metal_int_table[id].exint_data;
20011e40:	f9842683          	lw	a3,-104(s0)
20011e44:	f9442703          	lw	a4,-108(s0)
20011e48:	87ba                	mv	a5,a4
20011e4a:	0786                	slli	a5,a5,0x1
20011e4c:	97ba                	add	a5,a5,a4
20011e4e:	078e                	slli	a5,a5,0x3
20011e50:	97b6                	add	a5,a5,a3
20011e52:	0987a783          	lw	a5,152(a5)
20011e56:	f8f42623          	sw	a5,-116(s0)
/home/jubayer/Documents/riscV/EnergyHarvestingDeviceTestbed/FE310/blinky/freedom-metal/src/drivers/riscv_cpu.c:194
                intc->metal_int_table[id].handler(id, priv);
20011e5a:	f9842683          	lw	a3,-104(s0)
20011e5e:	f9442703          	lw	a4,-108(s0)
20011e62:	87ba                	mv	a5,a4
20011e64:	0786                	slli	a5,a5,0x1
20011e66:	97ba                	add	a5,a5,a4
20011e68:	078e                	slli	a5,a5,0x3
20011e6a:	97b6                	add	a5,a5,a3
20011e6c:	0907a783          	lw	a5,144(a5)
20011e70:	f8c42583          	lw	a1,-116(s0)
20011e74:	f9442503          	lw	a0,-108(s0)
20011e78:	9782                	jalr	a5
/home/jubayer/Documents/riscV/EnergyHarvestingDeviceTestbed/FE310/blinky/freedom-metal/src/drivers/riscv_cpu.c:195
                return;
20011e7a:	a8a9                	j	20011ed4 <__metal_exception_handler+0x154>
/home/jubayer/Documents/riscV/EnergyHarvestingDeviceTestbed/FE310/blinky/freedom-metal/src/drivers/riscv_cpu.c:197
            }
            if ((mtvec & METAL_MTVEC_MASK) == METAL_MTVEC_CLIC) {
20011e7c:	f9c42783          	lw	a5,-100(s0)
20011e80:	03f7f713          	andi	a4,a5,63
20011e84:	4789                	li	a5,2
20011e86:	04f71763          	bne	a4,a5,20011ed4 <__metal_exception_handler+0x154>
/home/jubayer/Documents/riscV/EnergyHarvestingDeviceTestbed/FE310/blinky/freedom-metal/src/drivers/riscv_cpu.c:201
                uintptr_t mtvt;
                metal_interrupt_handler_t mtvt_handler;

                __asm__ volatile("csrr %0, 0x307" : "=r"(mtvt));
20011e8a:	307027f3          	csrr	a5,mtvt
20011e8e:	f8f42823          	sw	a5,-112(s0)
/home/jubayer/Documents/riscV/EnergyHarvestingDeviceTestbed/FE310/blinky/freedom-metal/src/drivers/riscv_cpu.c:202
                priv = intc->metal_int_table[METAL_INTERRUPT_ID_SW].sub_int;
20011e92:	f9842783          	lw	a5,-104(s0)
20011e96:	0dc7a783          	lw	a5,220(a5)
20011e9a:	f8f42623          	sw	a5,-116(s0)
/home/jubayer/Documents/riscV/EnergyHarvestingDeviceTestbed/FE310/blinky/freedom-metal/src/drivers/riscv_cpu.c:203
                mtvt_handler = (metal_interrupt_handler_t) * (uintptr_t *)mtvt;
20011e9e:	f9042783          	lw	a5,-112(s0)
20011ea2:	439c                	lw	a5,0(a5)
20011ea4:	f8f42423          	sw	a5,-120(s0)
/home/jubayer/Documents/riscV/EnergyHarvestingDeviceTestbed/FE310/blinky/freedom-metal/src/drivers/riscv_cpu.c:204
                mtvt_handler(id, priv);
20011ea8:	f8842783          	lw	a5,-120(s0)
20011eac:	f8c42583          	lw	a1,-116(s0)
20011eb0:	f9442503          	lw	a0,-108(s0)
20011eb4:	9782                	jalr	a5
/home/jubayer/Documents/riscV/EnergyHarvestingDeviceTestbed/FE310/blinky/freedom-metal/src/drivers/riscv_cpu.c:205
                return;
20011eb6:	a839                	j	20011ed4 <__metal_exception_handler+0x154>
/home/jubayer/Documents/riscV/EnergyHarvestingDeviceTestbed/FE310/blinky/freedom-metal/src/drivers/riscv_cpu.c:208
            }
        } else {
            intc->metal_exception_table[id]((struct metal_cpu *)cpu, id);
20011eb8:	f9842703          	lw	a4,-104(s0)
20011ebc:	f9442783          	lw	a5,-108(s0)
20011ec0:	0e878793          	addi	a5,a5,232
20011ec4:	078a                	slli	a5,a5,0x2
20011ec6:	97ba                	add	a5,a5,a4
20011ec8:	439c                	lw	a5,0(a5)
20011eca:	f9442583          	lw	a1,-108(s0)
20011ece:	fac42503          	lw	a0,-84(s0)
20011ed2:	9782                	jalr	a5
/home/jubayer/Documents/riscV/EnergyHarvestingDeviceTestbed/FE310/blinky/freedom-metal/src/drivers/riscv_cpu.c:211
        }
    }
}
20011ed4:	50f6                	lw	ra,124(sp)
20011ed6:	52e6                	lw	t0,120(sp)
20011ed8:	5356                	lw	t1,116(sp)
20011eda:	53c6                	lw	t2,112(sp)
20011edc:	5436                	lw	s0,108(sp)
20011ede:	5526                	lw	a0,104(sp)
20011ee0:	5596                	lw	a1,100(sp)
20011ee2:	5606                	lw	a2,96(sp)
20011ee4:	46f6                	lw	a3,92(sp)
20011ee6:	4766                	lw	a4,88(sp)
20011ee8:	47d6                	lw	a5,84(sp)
20011eea:	4846                	lw	a6,80(sp)
20011eec:	48b6                	lw	a7,76(sp)
20011eee:	4e26                	lw	t3,72(sp)
20011ef0:	4e96                	lw	t4,68(sp)
20011ef2:	4f06                	lw	t5,64(sp)
20011ef4:	5ff2                	lw	t6,60(sp)
20011ef6:	6109                	addi	sp,sp,128
20011ef8:	30200073          	mret
	...

20011f76 <metal_lc0_interrupt_vector_handler>:
metal_lc0_interrupt_vector_handler():
/home/jubayer/Documents/riscV/EnergyHarvestingDeviceTestbed/FE310/blinky/freedom-metal/src/drivers/riscv_cpu.c:214

/* The metal_lc0_interrupt_vector_handler() function can be redefined. */
void __attribute__((weak, interrupt)) metal_lc0_interrupt_vector_handler(void) {
20011f76:	711d                	addi	sp,sp,-96
20011f78:	ce86                	sw	ra,92(sp)
20011f7a:	cc96                	sw	t0,88(sp)
20011f7c:	ca9a                	sw	t1,84(sp)
20011f7e:	c89e                	sw	t2,80(sp)
20011f80:	c6a2                	sw	s0,76(sp)
20011f82:	c4aa                	sw	a0,72(sp)
20011f84:	c2ae                	sw	a1,68(sp)
20011f86:	c0b2                	sw	a2,64(sp)
20011f88:	de36                	sw	a3,60(sp)
20011f8a:	dc3a                	sw	a4,56(sp)
20011f8c:	da3e                	sw	a5,52(sp)
20011f8e:	d842                	sw	a6,48(sp)
20011f90:	d646                	sw	a7,44(sp)
20011f92:	d472                	sw	t3,40(sp)
20011f94:	d276                	sw	t4,36(sp)
20011f96:	d07a                	sw	t5,32(sp)
20011f98:	ce7e                	sw	t6,28(sp)
20011f9a:	1080                	addi	s0,sp,96
/home/jubayer/Documents/riscV/EnergyHarvestingDeviceTestbed/FE310/blinky/freedom-metal/src/drivers/riscv_cpu.c:215
    __METAL_IRQ_VECTOR_HANDLER(METAL_INTERRUPT_ID_LC0);
20011f9c:	9f5ff0ef          	jal	ra,20011990 <__metal_myhart_id>
20011fa0:	872a                	mv	a4,a0
20011fa2:	800017b7          	lui	a5,0x80001
20011fa6:	070a                	slli	a4,a4,0x2
20011fa8:	a6478793          	addi	a5,a5,-1436 # 80000a64 <__global_pointer$+0xfffff804>
20011fac:	97ba                	add	a5,a5,a4
20011fae:	439c                	lw	a5,0(a5)
20011fb0:	faf42623          	sw	a5,-84(s0)
20011fb4:	fac42783          	lw	a5,-84(s0)
20011fb8:	c78d                	beqz	a5,20011fe2 <metal_lc0_interrupt_vector_handler+0x6c>
/home/jubayer/Documents/riscV/EnergyHarvestingDeviceTestbed/FE310/blinky/freedom-metal/src/drivers/riscv_cpu.c:215 (discriminator 1)
20011fba:	fac42503          	lw	a0,-84(s0)
20011fbe:	955ff0ef          	jal	ra,20011912 <__metal_driver_cpu_interrupt_controller>
20011fc2:	faa42423          	sw	a0,-88(s0)
20011fc6:	fa842783          	lw	a5,-88(s0)
20011fca:	2187a783          	lw	a5,536(a5)
20011fce:	faf42223          	sw	a5,-92(s0)
20011fd2:	fa842783          	lw	a5,-88(s0)
20011fd6:	2107a783          	lw	a5,528(a5)
20011fda:	fa442583          	lw	a1,-92(s0)
20011fde:	4541                	li	a0,16
20011fe0:	9782                	jalr	a5
/home/jubayer/Documents/riscV/EnergyHarvestingDeviceTestbed/FE310/blinky/freedom-metal/src/drivers/riscv_cpu.c:216
}
20011fe2:	0001                	nop
20011fe4:	40f6                	lw	ra,92(sp)
20011fe6:	42e6                	lw	t0,88(sp)
20011fe8:	4356                	lw	t1,84(sp)
20011fea:	43c6                	lw	t2,80(sp)
20011fec:	4436                	lw	s0,76(sp)
20011fee:	4526                	lw	a0,72(sp)
20011ff0:	4596                	lw	a1,68(sp)
20011ff2:	4606                	lw	a2,64(sp)
20011ff4:	56f2                	lw	a3,60(sp)
20011ff6:	5762                	lw	a4,56(sp)
20011ff8:	57d2                	lw	a5,52(sp)
20011ffa:	5842                	lw	a6,48(sp)
20011ffc:	58b2                	lw	a7,44(sp)
20011ffe:	5e22                	lw	t3,40(sp)
20012000:	5e92                	lw	t4,36(sp)
20012002:	5f02                	lw	t5,32(sp)
20012004:	4ff2                	lw	t6,28(sp)
20012006:	6125                	addi	sp,sp,96
20012008:	30200073          	mret

2001200c <metal_lc1_interrupt_vector_handler>:
metal_lc1_interrupt_vector_handler():
/home/jubayer/Documents/riscV/EnergyHarvestingDeviceTestbed/FE310/blinky/freedom-metal/src/drivers/riscv_cpu.c:219

/* The metal_lc1_interrupt_vector_handler() function can be redefined. */
void __attribute__((weak, interrupt)) metal_lc1_interrupt_vector_handler(void) {
2001200c:	711d                	addi	sp,sp,-96
2001200e:	ce86                	sw	ra,92(sp)
20012010:	cc96                	sw	t0,88(sp)
20012012:	ca9a                	sw	t1,84(sp)
20012014:	c89e                	sw	t2,80(sp)
20012016:	c6a2                	sw	s0,76(sp)
20012018:	c4aa                	sw	a0,72(sp)
2001201a:	c2ae                	sw	a1,68(sp)
2001201c:	c0b2                	sw	a2,64(sp)
2001201e:	de36                	sw	a3,60(sp)
20012020:	dc3a                	sw	a4,56(sp)
20012022:	da3e                	sw	a5,52(sp)
20012024:	d842                	sw	a6,48(sp)
20012026:	d646                	sw	a7,44(sp)
20012028:	d472                	sw	t3,40(sp)
2001202a:	d276                	sw	t4,36(sp)
2001202c:	d07a                	sw	t5,32(sp)
2001202e:	ce7e                	sw	t6,28(sp)
20012030:	1080                	addi	s0,sp,96
/home/jubayer/Documents/riscV/EnergyHarvestingDeviceTestbed/FE310/blinky/freedom-metal/src/drivers/riscv_cpu.c:220
    __METAL_IRQ_VECTOR_HANDLER(METAL_INTERRUPT_ID_LC1);
20012032:	95fff0ef          	jal	ra,20011990 <__metal_myhart_id>
20012036:	872a                	mv	a4,a0
20012038:	800017b7          	lui	a5,0x80001
2001203c:	070a                	slli	a4,a4,0x2
2001203e:	a6478793          	addi	a5,a5,-1436 # 80000a64 <__global_pointer$+0xfffff804>
20012042:	97ba                	add	a5,a5,a4
20012044:	439c                	lw	a5,0(a5)
20012046:	faf42623          	sw	a5,-84(s0)
2001204a:	fac42783          	lw	a5,-84(s0)
2001204e:	c78d                	beqz	a5,20012078 <metal_lc1_interrupt_vector_handler+0x6c>
/home/jubayer/Documents/riscV/EnergyHarvestingDeviceTestbed/FE310/blinky/freedom-metal/src/drivers/riscv_cpu.c:220 (discriminator 1)
20012050:	fac42503          	lw	a0,-84(s0)
20012054:	8bfff0ef          	jal	ra,20011912 <__metal_driver_cpu_interrupt_controller>
20012058:	faa42423          	sw	a0,-88(s0)
2001205c:	fa842783          	lw	a5,-88(s0)
20012060:	2307a783          	lw	a5,560(a5)
20012064:	faf42223          	sw	a5,-92(s0)
20012068:	fa842783          	lw	a5,-88(s0)
2001206c:	2287a783          	lw	a5,552(a5)
20012070:	fa442583          	lw	a1,-92(s0)
20012074:	4545                	li	a0,17
20012076:	9782                	jalr	a5
/home/jubayer/Documents/riscV/EnergyHarvestingDeviceTestbed/FE310/blinky/freedom-metal/src/drivers/riscv_cpu.c:221
}
20012078:	0001                	nop
2001207a:	40f6                	lw	ra,92(sp)
2001207c:	42e6                	lw	t0,88(sp)
2001207e:	4356                	lw	t1,84(sp)
20012080:	43c6                	lw	t2,80(sp)
20012082:	4436                	lw	s0,76(sp)
20012084:	4526                	lw	a0,72(sp)
20012086:	4596                	lw	a1,68(sp)
20012088:	4606                	lw	a2,64(sp)
2001208a:	56f2                	lw	a3,60(sp)
2001208c:	5762                	lw	a4,56(sp)
2001208e:	57d2                	lw	a5,52(sp)
20012090:	5842                	lw	a6,48(sp)
20012092:	58b2                	lw	a7,44(sp)
20012094:	5e22                	lw	t3,40(sp)
20012096:	5e92                	lw	t4,36(sp)
20012098:	5f02                	lw	t5,32(sp)
2001209a:	4ff2                	lw	t6,28(sp)
2001209c:	6125                	addi	sp,sp,96
2001209e:	30200073          	mret

200120a2 <metal_lc2_interrupt_vector_handler>:
metal_lc2_interrupt_vector_handler():
/home/jubayer/Documents/riscV/EnergyHarvestingDeviceTestbed/FE310/blinky/freedom-metal/src/drivers/riscv_cpu.c:224

/* The metal_lc2_interrupt_vector_handler() function can be redefined. */
void __attribute__((weak, interrupt)) metal_lc2_interrupt_vector_handler(void) {
200120a2:	711d                	addi	sp,sp,-96
200120a4:	ce86                	sw	ra,92(sp)
200120a6:	cc96                	sw	t0,88(sp)
200120a8:	ca9a                	sw	t1,84(sp)
200120aa:	c89e                	sw	t2,80(sp)
200120ac:	c6a2                	sw	s0,76(sp)
200120ae:	c4aa                	sw	a0,72(sp)
200120b0:	c2ae                	sw	a1,68(sp)
200120b2:	c0b2                	sw	a2,64(sp)
200120b4:	de36                	sw	a3,60(sp)
200120b6:	dc3a                	sw	a4,56(sp)
200120b8:	da3e                	sw	a5,52(sp)
200120ba:	d842                	sw	a6,48(sp)
200120bc:	d646                	sw	a7,44(sp)
200120be:	d472                	sw	t3,40(sp)
200120c0:	d276                	sw	t4,36(sp)
200120c2:	d07a                	sw	t5,32(sp)
200120c4:	ce7e                	sw	t6,28(sp)
200120c6:	1080                	addi	s0,sp,96
/home/jubayer/Documents/riscV/EnergyHarvestingDeviceTestbed/FE310/blinky/freedom-metal/src/drivers/riscv_cpu.c:225
    __METAL_IRQ_VECTOR_HANDLER(METAL_INTERRUPT_ID_LC2);
200120c8:	8c9ff0ef          	jal	ra,20011990 <__metal_myhart_id>
200120cc:	872a                	mv	a4,a0
200120ce:	800017b7          	lui	a5,0x80001
200120d2:	070a                	slli	a4,a4,0x2
200120d4:	a6478793          	addi	a5,a5,-1436 # 80000a64 <__global_pointer$+0xfffff804>
200120d8:	97ba                	add	a5,a5,a4
200120da:	439c                	lw	a5,0(a5)
200120dc:	faf42623          	sw	a5,-84(s0)
200120e0:	fac42783          	lw	a5,-84(s0)
200120e4:	c78d                	beqz	a5,2001210e <metal_lc2_interrupt_vector_handler+0x6c>
/home/jubayer/Documents/riscV/EnergyHarvestingDeviceTestbed/FE310/blinky/freedom-metal/src/drivers/riscv_cpu.c:225 (discriminator 1)
200120e6:	fac42503          	lw	a0,-84(s0)
200120ea:	829ff0ef          	jal	ra,20011912 <__metal_driver_cpu_interrupt_controller>
200120ee:	faa42423          	sw	a0,-88(s0)
200120f2:	fa842783          	lw	a5,-88(s0)
200120f6:	2487a783          	lw	a5,584(a5)
200120fa:	faf42223          	sw	a5,-92(s0)
200120fe:	fa842783          	lw	a5,-88(s0)
20012102:	2407a783          	lw	a5,576(a5)
20012106:	fa442583          	lw	a1,-92(s0)
2001210a:	4549                	li	a0,18
2001210c:	9782                	jalr	a5
/home/jubayer/Documents/riscV/EnergyHarvestingDeviceTestbed/FE310/blinky/freedom-metal/src/drivers/riscv_cpu.c:226
}
2001210e:	0001                	nop
20012110:	40f6                	lw	ra,92(sp)
20012112:	42e6                	lw	t0,88(sp)
20012114:	4356                	lw	t1,84(sp)
20012116:	43c6                	lw	t2,80(sp)
20012118:	4436                	lw	s0,76(sp)
2001211a:	4526                	lw	a0,72(sp)
2001211c:	4596                	lw	a1,68(sp)
2001211e:	4606                	lw	a2,64(sp)
20012120:	56f2                	lw	a3,60(sp)
20012122:	5762                	lw	a4,56(sp)
20012124:	57d2                	lw	a5,52(sp)
20012126:	5842                	lw	a6,48(sp)
20012128:	58b2                	lw	a7,44(sp)
2001212a:	5e22                	lw	t3,40(sp)
2001212c:	5e92                	lw	t4,36(sp)
2001212e:	5f02                	lw	t5,32(sp)
20012130:	4ff2                	lw	t6,28(sp)
20012132:	6125                	addi	sp,sp,96
20012134:	30200073          	mret

20012138 <metal_lc3_interrupt_vector_handler>:
metal_lc3_interrupt_vector_handler():
/home/jubayer/Documents/riscV/EnergyHarvestingDeviceTestbed/FE310/blinky/freedom-metal/src/drivers/riscv_cpu.c:229

/* The metal_lc3_interrupt_vector_handler() function can be redefined. */
void __attribute__((weak, interrupt)) metal_lc3_interrupt_vector_handler(void) {
20012138:	711d                	addi	sp,sp,-96
2001213a:	ce86                	sw	ra,92(sp)
2001213c:	cc96                	sw	t0,88(sp)
2001213e:	ca9a                	sw	t1,84(sp)
20012140:	c89e                	sw	t2,80(sp)
20012142:	c6a2                	sw	s0,76(sp)
20012144:	c4aa                	sw	a0,72(sp)
20012146:	c2ae                	sw	a1,68(sp)
20012148:	c0b2                	sw	a2,64(sp)
2001214a:	de36                	sw	a3,60(sp)
2001214c:	dc3a                	sw	a4,56(sp)
2001214e:	da3e                	sw	a5,52(sp)
20012150:	d842                	sw	a6,48(sp)
20012152:	d646                	sw	a7,44(sp)
20012154:	d472                	sw	t3,40(sp)
20012156:	d276                	sw	t4,36(sp)
20012158:	d07a                	sw	t5,32(sp)
2001215a:	ce7e                	sw	t6,28(sp)
2001215c:	1080                	addi	s0,sp,96
/home/jubayer/Documents/riscV/EnergyHarvestingDeviceTestbed/FE310/blinky/freedom-metal/src/drivers/riscv_cpu.c:230
    __METAL_IRQ_VECTOR_HANDLER(METAL_INTERRUPT_ID_LC3);
2001215e:	833ff0ef          	jal	ra,20011990 <__metal_myhart_id>
20012162:	872a                	mv	a4,a0
20012164:	800017b7          	lui	a5,0x80001
20012168:	070a                	slli	a4,a4,0x2
2001216a:	a6478793          	addi	a5,a5,-1436 # 80000a64 <__global_pointer$+0xfffff804>
2001216e:	97ba                	add	a5,a5,a4
20012170:	439c                	lw	a5,0(a5)
20012172:	faf42623          	sw	a5,-84(s0)
20012176:	fac42783          	lw	a5,-84(s0)
2001217a:	c78d                	beqz	a5,200121a4 <metal_lc3_interrupt_vector_handler+0x6c>
/home/jubayer/Documents/riscV/EnergyHarvestingDeviceTestbed/FE310/blinky/freedom-metal/src/drivers/riscv_cpu.c:230 (discriminator 1)
2001217c:	fac42503          	lw	a0,-84(s0)
20012180:	f92ff0ef          	jal	ra,20011912 <__metal_driver_cpu_interrupt_controller>
20012184:	faa42423          	sw	a0,-88(s0)
20012188:	fa842783          	lw	a5,-88(s0)
2001218c:	2607a783          	lw	a5,608(a5)
20012190:	faf42223          	sw	a5,-92(s0)
20012194:	fa842783          	lw	a5,-88(s0)
20012198:	2587a783          	lw	a5,600(a5)
2001219c:	fa442583          	lw	a1,-92(s0)
200121a0:	454d                	li	a0,19
200121a2:	9782                	jalr	a5
/home/jubayer/Documents/riscV/EnergyHarvestingDeviceTestbed/FE310/blinky/freedom-metal/src/drivers/riscv_cpu.c:231
}
200121a4:	0001                	nop
200121a6:	40f6                	lw	ra,92(sp)
200121a8:	42e6                	lw	t0,88(sp)
200121aa:	4356                	lw	t1,84(sp)
200121ac:	43c6                	lw	t2,80(sp)
200121ae:	4436                	lw	s0,76(sp)
200121b0:	4526                	lw	a0,72(sp)
200121b2:	4596                	lw	a1,68(sp)
200121b4:	4606                	lw	a2,64(sp)
200121b6:	56f2                	lw	a3,60(sp)
200121b8:	5762                	lw	a4,56(sp)
200121ba:	57d2                	lw	a5,52(sp)
200121bc:	5842                	lw	a6,48(sp)
200121be:	58b2                	lw	a7,44(sp)
200121c0:	5e22                	lw	t3,40(sp)
200121c2:	5e92                	lw	t4,36(sp)
200121c4:	5f02                	lw	t5,32(sp)
200121c6:	4ff2                	lw	t6,28(sp)
200121c8:	6125                	addi	sp,sp,96
200121ca:	30200073          	mret

200121ce <metal_lc4_interrupt_vector_handler>:
metal_lc4_interrupt_vector_handler():
/home/jubayer/Documents/riscV/EnergyHarvestingDeviceTestbed/FE310/blinky/freedom-metal/src/drivers/riscv_cpu.c:234

/* The metal_lc4_interrupt_vector_handler() function can be redefined. */
void __attribute__((weak, interrupt)) metal_lc4_interrupt_vector_handler(void) {
200121ce:	711d                	addi	sp,sp,-96
200121d0:	ce86                	sw	ra,92(sp)
200121d2:	cc96                	sw	t0,88(sp)
200121d4:	ca9a                	sw	t1,84(sp)
200121d6:	c89e                	sw	t2,80(sp)
200121d8:	c6a2                	sw	s0,76(sp)
200121da:	c4aa                	sw	a0,72(sp)
200121dc:	c2ae                	sw	a1,68(sp)
200121de:	c0b2                	sw	a2,64(sp)
200121e0:	de36                	sw	a3,60(sp)
200121e2:	dc3a                	sw	a4,56(sp)
200121e4:	da3e                	sw	a5,52(sp)
200121e6:	d842                	sw	a6,48(sp)
200121e8:	d646                	sw	a7,44(sp)
200121ea:	d472                	sw	t3,40(sp)
200121ec:	d276                	sw	t4,36(sp)
200121ee:	d07a                	sw	t5,32(sp)
200121f0:	ce7e                	sw	t6,28(sp)
200121f2:	1080                	addi	s0,sp,96
/home/jubayer/Documents/riscV/EnergyHarvestingDeviceTestbed/FE310/blinky/freedom-metal/src/drivers/riscv_cpu.c:235
    __METAL_IRQ_VECTOR_HANDLER(METAL_INTERRUPT_ID_LC4);
200121f4:	f9cff0ef          	jal	ra,20011990 <__metal_myhart_id>
200121f8:	872a                	mv	a4,a0
200121fa:	800017b7          	lui	a5,0x80001
200121fe:	070a                	slli	a4,a4,0x2
20012200:	a6478793          	addi	a5,a5,-1436 # 80000a64 <__global_pointer$+0xfffff804>
20012204:	97ba                	add	a5,a5,a4
20012206:	439c                	lw	a5,0(a5)
20012208:	faf42623          	sw	a5,-84(s0)
2001220c:	fac42783          	lw	a5,-84(s0)
20012210:	c78d                	beqz	a5,2001223a <metal_lc4_interrupt_vector_handler+0x6c>
/home/jubayer/Documents/riscV/EnergyHarvestingDeviceTestbed/FE310/blinky/freedom-metal/src/drivers/riscv_cpu.c:235 (discriminator 1)
20012212:	fac42503          	lw	a0,-84(s0)
20012216:	efcff0ef          	jal	ra,20011912 <__metal_driver_cpu_interrupt_controller>
2001221a:	faa42423          	sw	a0,-88(s0)
2001221e:	fa842783          	lw	a5,-88(s0)
20012222:	2787a783          	lw	a5,632(a5)
20012226:	faf42223          	sw	a5,-92(s0)
2001222a:	fa842783          	lw	a5,-88(s0)
2001222e:	2707a783          	lw	a5,624(a5)
20012232:	fa442583          	lw	a1,-92(s0)
20012236:	4551                	li	a0,20
20012238:	9782                	jalr	a5
/home/jubayer/Documents/riscV/EnergyHarvestingDeviceTestbed/FE310/blinky/freedom-metal/src/drivers/riscv_cpu.c:236
}
2001223a:	0001                	nop
2001223c:	40f6                	lw	ra,92(sp)
2001223e:	42e6                	lw	t0,88(sp)
20012240:	4356                	lw	t1,84(sp)
20012242:	43c6                	lw	t2,80(sp)
20012244:	4436                	lw	s0,76(sp)
20012246:	4526                	lw	a0,72(sp)
20012248:	4596                	lw	a1,68(sp)
2001224a:	4606                	lw	a2,64(sp)
2001224c:	56f2                	lw	a3,60(sp)
2001224e:	5762                	lw	a4,56(sp)
20012250:	57d2                	lw	a5,52(sp)
20012252:	5842                	lw	a6,48(sp)
20012254:	58b2                	lw	a7,44(sp)
20012256:	5e22                	lw	t3,40(sp)
20012258:	5e92                	lw	t4,36(sp)
2001225a:	5f02                	lw	t5,32(sp)
2001225c:	4ff2                	lw	t6,28(sp)
2001225e:	6125                	addi	sp,sp,96
20012260:	30200073          	mret

20012264 <metal_lc5_interrupt_vector_handler>:
metal_lc5_interrupt_vector_handler():
/home/jubayer/Documents/riscV/EnergyHarvestingDeviceTestbed/FE310/blinky/freedom-metal/src/drivers/riscv_cpu.c:239

/* The metal_lc5_interrupt_vector_handler() function can be redefined. */
void __attribute__((weak, interrupt)) metal_lc5_interrupt_vector_handler(void) {
20012264:	711d                	addi	sp,sp,-96
20012266:	ce86                	sw	ra,92(sp)
20012268:	cc96                	sw	t0,88(sp)
2001226a:	ca9a                	sw	t1,84(sp)
2001226c:	c89e                	sw	t2,80(sp)
2001226e:	c6a2                	sw	s0,76(sp)
20012270:	c4aa                	sw	a0,72(sp)
20012272:	c2ae                	sw	a1,68(sp)
20012274:	c0b2                	sw	a2,64(sp)
20012276:	de36                	sw	a3,60(sp)
20012278:	dc3a                	sw	a4,56(sp)
2001227a:	da3e                	sw	a5,52(sp)
2001227c:	d842                	sw	a6,48(sp)
2001227e:	d646                	sw	a7,44(sp)
20012280:	d472                	sw	t3,40(sp)
20012282:	d276                	sw	t4,36(sp)
20012284:	d07a                	sw	t5,32(sp)
20012286:	ce7e                	sw	t6,28(sp)
20012288:	1080                	addi	s0,sp,96
/home/jubayer/Documents/riscV/EnergyHarvestingDeviceTestbed/FE310/blinky/freedom-metal/src/drivers/riscv_cpu.c:240
    __METAL_IRQ_VECTOR_HANDLER(METAL_INTERRUPT_ID_LC5);
2001228a:	f06ff0ef          	jal	ra,20011990 <__metal_myhart_id>
2001228e:	872a                	mv	a4,a0
20012290:	800017b7          	lui	a5,0x80001
20012294:	070a                	slli	a4,a4,0x2
20012296:	a6478793          	addi	a5,a5,-1436 # 80000a64 <__global_pointer$+0xfffff804>
2001229a:	97ba                	add	a5,a5,a4
2001229c:	439c                	lw	a5,0(a5)
2001229e:	faf42623          	sw	a5,-84(s0)
200122a2:	fac42783          	lw	a5,-84(s0)
200122a6:	c78d                	beqz	a5,200122d0 <metal_lc5_interrupt_vector_handler+0x6c>
/home/jubayer/Documents/riscV/EnergyHarvestingDeviceTestbed/FE310/blinky/freedom-metal/src/drivers/riscv_cpu.c:240 (discriminator 1)
200122a8:	fac42503          	lw	a0,-84(s0)
200122ac:	e66ff0ef          	jal	ra,20011912 <__metal_driver_cpu_interrupt_controller>
200122b0:	faa42423          	sw	a0,-88(s0)
200122b4:	fa842783          	lw	a5,-88(s0)
200122b8:	2907a783          	lw	a5,656(a5)
200122bc:	faf42223          	sw	a5,-92(s0)
200122c0:	fa842783          	lw	a5,-88(s0)
200122c4:	2887a783          	lw	a5,648(a5)
200122c8:	fa442583          	lw	a1,-92(s0)
200122cc:	4555                	li	a0,21
200122ce:	9782                	jalr	a5
/home/jubayer/Documents/riscV/EnergyHarvestingDeviceTestbed/FE310/blinky/freedom-metal/src/drivers/riscv_cpu.c:241
}
200122d0:	0001                	nop
200122d2:	40f6                	lw	ra,92(sp)
200122d4:	42e6                	lw	t0,88(sp)
200122d6:	4356                	lw	t1,84(sp)
200122d8:	43c6                	lw	t2,80(sp)
200122da:	4436                	lw	s0,76(sp)
200122dc:	4526                	lw	a0,72(sp)
200122de:	4596                	lw	a1,68(sp)
200122e0:	4606                	lw	a2,64(sp)
200122e2:	56f2                	lw	a3,60(sp)
200122e4:	5762                	lw	a4,56(sp)
200122e6:	57d2                	lw	a5,52(sp)
200122e8:	5842                	lw	a6,48(sp)
200122ea:	58b2                	lw	a7,44(sp)
200122ec:	5e22                	lw	t3,40(sp)
200122ee:	5e92                	lw	t4,36(sp)
200122f0:	5f02                	lw	t5,32(sp)
200122f2:	4ff2                	lw	t6,28(sp)
200122f4:	6125                	addi	sp,sp,96
200122f6:	30200073          	mret

200122fa <metal_lc6_interrupt_vector_handler>:
metal_lc6_interrupt_vector_handler():
/home/jubayer/Documents/riscV/EnergyHarvestingDeviceTestbed/FE310/blinky/freedom-metal/src/drivers/riscv_cpu.c:244

/* The metal_lc6_interrupt_vector_handler() function can be redefined. */
void __attribute__((weak, interrupt)) metal_lc6_interrupt_vector_handler(void) {
200122fa:	711d                	addi	sp,sp,-96
200122fc:	ce86                	sw	ra,92(sp)
200122fe:	cc96                	sw	t0,88(sp)
20012300:	ca9a                	sw	t1,84(sp)
20012302:	c89e                	sw	t2,80(sp)
20012304:	c6a2                	sw	s0,76(sp)
20012306:	c4aa                	sw	a0,72(sp)
20012308:	c2ae                	sw	a1,68(sp)
2001230a:	c0b2                	sw	a2,64(sp)
2001230c:	de36                	sw	a3,60(sp)
2001230e:	dc3a                	sw	a4,56(sp)
20012310:	da3e                	sw	a5,52(sp)
20012312:	d842                	sw	a6,48(sp)
20012314:	d646                	sw	a7,44(sp)
20012316:	d472                	sw	t3,40(sp)
20012318:	d276                	sw	t4,36(sp)
2001231a:	d07a                	sw	t5,32(sp)
2001231c:	ce7e                	sw	t6,28(sp)
2001231e:	1080                	addi	s0,sp,96
/home/jubayer/Documents/riscV/EnergyHarvestingDeviceTestbed/FE310/blinky/freedom-metal/src/drivers/riscv_cpu.c:245
    __METAL_IRQ_VECTOR_HANDLER(METAL_INTERRUPT_ID_LC6);
20012320:	e70ff0ef          	jal	ra,20011990 <__metal_myhart_id>
20012324:	872a                	mv	a4,a0
20012326:	800017b7          	lui	a5,0x80001
2001232a:	070a                	slli	a4,a4,0x2
2001232c:	a6478793          	addi	a5,a5,-1436 # 80000a64 <__global_pointer$+0xfffff804>
20012330:	97ba                	add	a5,a5,a4
20012332:	439c                	lw	a5,0(a5)
20012334:	faf42623          	sw	a5,-84(s0)
20012338:	fac42783          	lw	a5,-84(s0)
2001233c:	c78d                	beqz	a5,20012366 <metal_lc6_interrupt_vector_handler+0x6c>
/home/jubayer/Documents/riscV/EnergyHarvestingDeviceTestbed/FE310/blinky/freedom-metal/src/drivers/riscv_cpu.c:245 (discriminator 1)
2001233e:	fac42503          	lw	a0,-84(s0)
20012342:	dd0ff0ef          	jal	ra,20011912 <__metal_driver_cpu_interrupt_controller>
20012346:	faa42423          	sw	a0,-88(s0)
2001234a:	fa842783          	lw	a5,-88(s0)
2001234e:	2a87a783          	lw	a5,680(a5)
20012352:	faf42223          	sw	a5,-92(s0)
20012356:	fa842783          	lw	a5,-88(s0)
2001235a:	2a07a783          	lw	a5,672(a5)
2001235e:	fa442583          	lw	a1,-92(s0)
20012362:	4559                	li	a0,22
20012364:	9782                	jalr	a5
/home/jubayer/Documents/riscV/EnergyHarvestingDeviceTestbed/FE310/blinky/freedom-metal/src/drivers/riscv_cpu.c:246
}
20012366:	0001                	nop
20012368:	40f6                	lw	ra,92(sp)
2001236a:	42e6                	lw	t0,88(sp)
2001236c:	4356                	lw	t1,84(sp)
2001236e:	43c6                	lw	t2,80(sp)
20012370:	4436                	lw	s0,76(sp)
20012372:	4526                	lw	a0,72(sp)
20012374:	4596                	lw	a1,68(sp)
20012376:	4606                	lw	a2,64(sp)
20012378:	56f2                	lw	a3,60(sp)
2001237a:	5762                	lw	a4,56(sp)
2001237c:	57d2                	lw	a5,52(sp)
2001237e:	5842                	lw	a6,48(sp)
20012380:	58b2                	lw	a7,44(sp)
20012382:	5e22                	lw	t3,40(sp)
20012384:	5e92                	lw	t4,36(sp)
20012386:	5f02                	lw	t5,32(sp)
20012388:	4ff2                	lw	t6,28(sp)
2001238a:	6125                	addi	sp,sp,96
2001238c:	30200073          	mret

20012390 <metal_lc7_interrupt_vector_handler>:
metal_lc7_interrupt_vector_handler():
/home/jubayer/Documents/riscV/EnergyHarvestingDeviceTestbed/FE310/blinky/freedom-metal/src/drivers/riscv_cpu.c:249

/* The metal_lc7_interrupt_vector_handler() function can be redefined. */
void __attribute__((weak, interrupt)) metal_lc7_interrupt_vector_handler(void) {
20012390:	711d                	addi	sp,sp,-96
20012392:	ce86                	sw	ra,92(sp)
20012394:	cc96                	sw	t0,88(sp)
20012396:	ca9a                	sw	t1,84(sp)
20012398:	c89e                	sw	t2,80(sp)
2001239a:	c6a2                	sw	s0,76(sp)
2001239c:	c4aa                	sw	a0,72(sp)
2001239e:	c2ae                	sw	a1,68(sp)
200123a0:	c0b2                	sw	a2,64(sp)
200123a2:	de36                	sw	a3,60(sp)
200123a4:	dc3a                	sw	a4,56(sp)
200123a6:	da3e                	sw	a5,52(sp)
200123a8:	d842                	sw	a6,48(sp)
200123aa:	d646                	sw	a7,44(sp)
200123ac:	d472                	sw	t3,40(sp)
200123ae:	d276                	sw	t4,36(sp)
200123b0:	d07a                	sw	t5,32(sp)
200123b2:	ce7e                	sw	t6,28(sp)
200123b4:	1080                	addi	s0,sp,96
/home/jubayer/Documents/riscV/EnergyHarvestingDeviceTestbed/FE310/blinky/freedom-metal/src/drivers/riscv_cpu.c:250
    __METAL_IRQ_VECTOR_HANDLER(METAL_INTERRUPT_ID_LC7);
200123b6:	ddaff0ef          	jal	ra,20011990 <__metal_myhart_id>
200123ba:	872a                	mv	a4,a0
200123bc:	800017b7          	lui	a5,0x80001
200123c0:	070a                	slli	a4,a4,0x2
200123c2:	a6478793          	addi	a5,a5,-1436 # 80000a64 <__global_pointer$+0xfffff804>
200123c6:	97ba                	add	a5,a5,a4
200123c8:	439c                	lw	a5,0(a5)
200123ca:	faf42623          	sw	a5,-84(s0)
200123ce:	fac42783          	lw	a5,-84(s0)
200123d2:	c78d                	beqz	a5,200123fc <metal_lc7_interrupt_vector_handler+0x6c>
/home/jubayer/Documents/riscV/EnergyHarvestingDeviceTestbed/FE310/blinky/freedom-metal/src/drivers/riscv_cpu.c:250 (discriminator 1)
200123d4:	fac42503          	lw	a0,-84(s0)
200123d8:	d3aff0ef          	jal	ra,20011912 <__metal_driver_cpu_interrupt_controller>
200123dc:	faa42423          	sw	a0,-88(s0)
200123e0:	fa842783          	lw	a5,-88(s0)
200123e4:	2c07a783          	lw	a5,704(a5)
200123e8:	faf42223          	sw	a5,-92(s0)
200123ec:	fa842783          	lw	a5,-88(s0)
200123f0:	2b87a783          	lw	a5,696(a5)
200123f4:	fa442583          	lw	a1,-92(s0)
200123f8:	455d                	li	a0,23
200123fa:	9782                	jalr	a5
/home/jubayer/Documents/riscV/EnergyHarvestingDeviceTestbed/FE310/blinky/freedom-metal/src/drivers/riscv_cpu.c:251
}
200123fc:	0001                	nop
200123fe:	40f6                	lw	ra,92(sp)
20012400:	42e6                	lw	t0,88(sp)
20012402:	4356                	lw	t1,84(sp)
20012404:	43c6                	lw	t2,80(sp)
20012406:	4436                	lw	s0,76(sp)
20012408:	4526                	lw	a0,72(sp)
2001240a:	4596                	lw	a1,68(sp)
2001240c:	4606                	lw	a2,64(sp)
2001240e:	56f2                	lw	a3,60(sp)
20012410:	5762                	lw	a4,56(sp)
20012412:	57d2                	lw	a5,52(sp)
20012414:	5842                	lw	a6,48(sp)
20012416:	58b2                	lw	a7,44(sp)
20012418:	5e22                	lw	t3,40(sp)
2001241a:	5e92                	lw	t4,36(sp)
2001241c:	5f02                	lw	t5,32(sp)
2001241e:	4ff2                	lw	t6,28(sp)
20012420:	6125                	addi	sp,sp,96
20012422:	30200073          	mret

20012426 <metal_lc8_interrupt_vector_handler>:
metal_lc8_interrupt_vector_handler():
/home/jubayer/Documents/riscV/EnergyHarvestingDeviceTestbed/FE310/blinky/freedom-metal/src/drivers/riscv_cpu.c:254

/* The metal_lc8_interrupt_vector_handler() function can be redefined. */
void __attribute__((weak, interrupt)) metal_lc8_interrupt_vector_handler(void) {
20012426:	711d                	addi	sp,sp,-96
20012428:	ce86                	sw	ra,92(sp)
2001242a:	cc96                	sw	t0,88(sp)
2001242c:	ca9a                	sw	t1,84(sp)
2001242e:	c89e                	sw	t2,80(sp)
20012430:	c6a2                	sw	s0,76(sp)
20012432:	c4aa                	sw	a0,72(sp)
20012434:	c2ae                	sw	a1,68(sp)
20012436:	c0b2                	sw	a2,64(sp)
20012438:	de36                	sw	a3,60(sp)
2001243a:	dc3a                	sw	a4,56(sp)
2001243c:	da3e                	sw	a5,52(sp)
2001243e:	d842                	sw	a6,48(sp)
20012440:	d646                	sw	a7,44(sp)
20012442:	d472                	sw	t3,40(sp)
20012444:	d276                	sw	t4,36(sp)
20012446:	d07a                	sw	t5,32(sp)
20012448:	ce7e                	sw	t6,28(sp)
2001244a:	1080                	addi	s0,sp,96
/home/jubayer/Documents/riscV/EnergyHarvestingDeviceTestbed/FE310/blinky/freedom-metal/src/drivers/riscv_cpu.c:255
    __METAL_IRQ_VECTOR_HANDLER(METAL_INTERRUPT_ID_LC8);
2001244c:	d44ff0ef          	jal	ra,20011990 <__metal_myhart_id>
20012450:	872a                	mv	a4,a0
20012452:	800017b7          	lui	a5,0x80001
20012456:	070a                	slli	a4,a4,0x2
20012458:	a6478793          	addi	a5,a5,-1436 # 80000a64 <__global_pointer$+0xfffff804>
2001245c:	97ba                	add	a5,a5,a4
2001245e:	439c                	lw	a5,0(a5)
20012460:	faf42623          	sw	a5,-84(s0)
20012464:	fac42783          	lw	a5,-84(s0)
20012468:	c78d                	beqz	a5,20012492 <metal_lc8_interrupt_vector_handler+0x6c>
/home/jubayer/Documents/riscV/EnergyHarvestingDeviceTestbed/FE310/blinky/freedom-metal/src/drivers/riscv_cpu.c:255 (discriminator 1)
2001246a:	fac42503          	lw	a0,-84(s0)
2001246e:	ca4ff0ef          	jal	ra,20011912 <__metal_driver_cpu_interrupt_controller>
20012472:	faa42423          	sw	a0,-88(s0)
20012476:	fa842783          	lw	a5,-88(s0)
2001247a:	2d87a783          	lw	a5,728(a5)
2001247e:	faf42223          	sw	a5,-92(s0)
20012482:	fa842783          	lw	a5,-88(s0)
20012486:	2d07a783          	lw	a5,720(a5)
2001248a:	fa442583          	lw	a1,-92(s0)
2001248e:	4561                	li	a0,24
20012490:	9782                	jalr	a5
/home/jubayer/Documents/riscV/EnergyHarvestingDeviceTestbed/FE310/blinky/freedom-metal/src/drivers/riscv_cpu.c:256
}
20012492:	0001                	nop
20012494:	40f6                	lw	ra,92(sp)
20012496:	42e6                	lw	t0,88(sp)
20012498:	4356                	lw	t1,84(sp)
2001249a:	43c6                	lw	t2,80(sp)
2001249c:	4436                	lw	s0,76(sp)
2001249e:	4526                	lw	a0,72(sp)
200124a0:	4596                	lw	a1,68(sp)
200124a2:	4606                	lw	a2,64(sp)
200124a4:	56f2                	lw	a3,60(sp)
200124a6:	5762                	lw	a4,56(sp)
200124a8:	57d2                	lw	a5,52(sp)
200124aa:	5842                	lw	a6,48(sp)
200124ac:	58b2                	lw	a7,44(sp)
200124ae:	5e22                	lw	t3,40(sp)
200124b0:	5e92                	lw	t4,36(sp)
200124b2:	5f02                	lw	t5,32(sp)
200124b4:	4ff2                	lw	t6,28(sp)
200124b6:	6125                	addi	sp,sp,96
200124b8:	30200073          	mret

200124bc <metal_lc9_interrupt_vector_handler>:
metal_lc9_interrupt_vector_handler():
/home/jubayer/Documents/riscV/EnergyHarvestingDeviceTestbed/FE310/blinky/freedom-metal/src/drivers/riscv_cpu.c:259

/* The metal_lc9_interrupt_vector_handler() function can be redefined. */
void __attribute__((weak, interrupt)) metal_lc9_interrupt_vector_handler(void) {
200124bc:	711d                	addi	sp,sp,-96
200124be:	ce86                	sw	ra,92(sp)
200124c0:	cc96                	sw	t0,88(sp)
200124c2:	ca9a                	sw	t1,84(sp)
200124c4:	c89e                	sw	t2,80(sp)
200124c6:	c6a2                	sw	s0,76(sp)
200124c8:	c4aa                	sw	a0,72(sp)
200124ca:	c2ae                	sw	a1,68(sp)
200124cc:	c0b2                	sw	a2,64(sp)
200124ce:	de36                	sw	a3,60(sp)
200124d0:	dc3a                	sw	a4,56(sp)
200124d2:	da3e                	sw	a5,52(sp)
200124d4:	d842                	sw	a6,48(sp)
200124d6:	d646                	sw	a7,44(sp)
200124d8:	d472                	sw	t3,40(sp)
200124da:	d276                	sw	t4,36(sp)
200124dc:	d07a                	sw	t5,32(sp)
200124de:	ce7e                	sw	t6,28(sp)
200124e0:	1080                	addi	s0,sp,96
/home/jubayer/Documents/riscV/EnergyHarvestingDeviceTestbed/FE310/blinky/freedom-metal/src/drivers/riscv_cpu.c:260
    __METAL_IRQ_VECTOR_HANDLER(METAL_INTERRUPT_ID_LC9);
200124e2:	caeff0ef          	jal	ra,20011990 <__metal_myhart_id>
200124e6:	872a                	mv	a4,a0
200124e8:	800017b7          	lui	a5,0x80001
200124ec:	070a                	slli	a4,a4,0x2
200124ee:	a6478793          	addi	a5,a5,-1436 # 80000a64 <__global_pointer$+0xfffff804>
200124f2:	97ba                	add	a5,a5,a4
200124f4:	439c                	lw	a5,0(a5)
200124f6:	faf42623          	sw	a5,-84(s0)
200124fa:	fac42783          	lw	a5,-84(s0)
200124fe:	c78d                	beqz	a5,20012528 <metal_lc9_interrupt_vector_handler+0x6c>
/home/jubayer/Documents/riscV/EnergyHarvestingDeviceTestbed/FE310/blinky/freedom-metal/src/drivers/riscv_cpu.c:260 (discriminator 1)
20012500:	fac42503          	lw	a0,-84(s0)
20012504:	c0eff0ef          	jal	ra,20011912 <__metal_driver_cpu_interrupt_controller>
20012508:	faa42423          	sw	a0,-88(s0)
2001250c:	fa842783          	lw	a5,-88(s0)
20012510:	2f07a783          	lw	a5,752(a5)
20012514:	faf42223          	sw	a5,-92(s0)
20012518:	fa842783          	lw	a5,-88(s0)
2001251c:	2e87a783          	lw	a5,744(a5)
20012520:	fa442583          	lw	a1,-92(s0)
20012524:	4565                	li	a0,25
20012526:	9782                	jalr	a5
/home/jubayer/Documents/riscV/EnergyHarvestingDeviceTestbed/FE310/blinky/freedom-metal/src/drivers/riscv_cpu.c:261
}
20012528:	0001                	nop
2001252a:	40f6                	lw	ra,92(sp)
2001252c:	42e6                	lw	t0,88(sp)
2001252e:	4356                	lw	t1,84(sp)
20012530:	43c6                	lw	t2,80(sp)
20012532:	4436                	lw	s0,76(sp)
20012534:	4526                	lw	a0,72(sp)
20012536:	4596                	lw	a1,68(sp)
20012538:	4606                	lw	a2,64(sp)
2001253a:	56f2                	lw	a3,60(sp)
2001253c:	5762                	lw	a4,56(sp)
2001253e:	57d2                	lw	a5,52(sp)
20012540:	5842                	lw	a6,48(sp)
20012542:	58b2                	lw	a7,44(sp)
20012544:	5e22                	lw	t3,40(sp)
20012546:	5e92                	lw	t4,36(sp)
20012548:	5f02                	lw	t5,32(sp)
2001254a:	4ff2                	lw	t6,28(sp)
2001254c:	6125                	addi	sp,sp,96
2001254e:	30200073          	mret

20012552 <metal_lc10_interrupt_vector_handler>:
metal_lc10_interrupt_vector_handler():
/home/jubayer/Documents/riscV/EnergyHarvestingDeviceTestbed/FE310/blinky/freedom-metal/src/drivers/riscv_cpu.c:265

/* The metal_lc10_interrupt_vector_handler() function can be redefined. */
void __attribute__((weak, interrupt))
metal_lc10_interrupt_vector_handler(void) {
20012552:	711d                	addi	sp,sp,-96
20012554:	ce86                	sw	ra,92(sp)
20012556:	cc96                	sw	t0,88(sp)
20012558:	ca9a                	sw	t1,84(sp)
2001255a:	c89e                	sw	t2,80(sp)
2001255c:	c6a2                	sw	s0,76(sp)
2001255e:	c4aa                	sw	a0,72(sp)
20012560:	c2ae                	sw	a1,68(sp)
20012562:	c0b2                	sw	a2,64(sp)
20012564:	de36                	sw	a3,60(sp)
20012566:	dc3a                	sw	a4,56(sp)
20012568:	da3e                	sw	a5,52(sp)
2001256a:	d842                	sw	a6,48(sp)
2001256c:	d646                	sw	a7,44(sp)
2001256e:	d472                	sw	t3,40(sp)
20012570:	d276                	sw	t4,36(sp)
20012572:	d07a                	sw	t5,32(sp)
20012574:	ce7e                	sw	t6,28(sp)
20012576:	1080                	addi	s0,sp,96
/home/jubayer/Documents/riscV/EnergyHarvestingDeviceTestbed/FE310/blinky/freedom-metal/src/drivers/riscv_cpu.c:266
    __METAL_IRQ_VECTOR_HANDLER(METAL_INTERRUPT_ID_LC10);
20012578:	c18ff0ef          	jal	ra,20011990 <__metal_myhart_id>
2001257c:	872a                	mv	a4,a0
2001257e:	800017b7          	lui	a5,0x80001
20012582:	070a                	slli	a4,a4,0x2
20012584:	a6478793          	addi	a5,a5,-1436 # 80000a64 <__global_pointer$+0xfffff804>
20012588:	97ba                	add	a5,a5,a4
2001258a:	439c                	lw	a5,0(a5)
2001258c:	faf42623          	sw	a5,-84(s0)
20012590:	fac42783          	lw	a5,-84(s0)
20012594:	c78d                	beqz	a5,200125be <metal_lc10_interrupt_vector_handler+0x6c>
/home/jubayer/Documents/riscV/EnergyHarvestingDeviceTestbed/FE310/blinky/freedom-metal/src/drivers/riscv_cpu.c:266 (discriminator 1)
20012596:	fac42503          	lw	a0,-84(s0)
2001259a:	b78ff0ef          	jal	ra,20011912 <__metal_driver_cpu_interrupt_controller>
2001259e:	faa42423          	sw	a0,-88(s0)
200125a2:	fa842783          	lw	a5,-88(s0)
200125a6:	3087a783          	lw	a5,776(a5)
200125aa:	faf42223          	sw	a5,-92(s0)
200125ae:	fa842783          	lw	a5,-88(s0)
200125b2:	3007a783          	lw	a5,768(a5)
200125b6:	fa442583          	lw	a1,-92(s0)
200125ba:	4569                	li	a0,26
200125bc:	9782                	jalr	a5
/home/jubayer/Documents/riscV/EnergyHarvestingDeviceTestbed/FE310/blinky/freedom-metal/src/drivers/riscv_cpu.c:267
}
200125be:	0001                	nop
200125c0:	40f6                	lw	ra,92(sp)
200125c2:	42e6                	lw	t0,88(sp)
200125c4:	4356                	lw	t1,84(sp)
200125c6:	43c6                	lw	t2,80(sp)
200125c8:	4436                	lw	s0,76(sp)
200125ca:	4526                	lw	a0,72(sp)
200125cc:	4596                	lw	a1,68(sp)
200125ce:	4606                	lw	a2,64(sp)
200125d0:	56f2                	lw	a3,60(sp)
200125d2:	5762                	lw	a4,56(sp)
200125d4:	57d2                	lw	a5,52(sp)
200125d6:	5842                	lw	a6,48(sp)
200125d8:	58b2                	lw	a7,44(sp)
200125da:	5e22                	lw	t3,40(sp)
200125dc:	5e92                	lw	t4,36(sp)
200125de:	5f02                	lw	t5,32(sp)
200125e0:	4ff2                	lw	t6,28(sp)
200125e2:	6125                	addi	sp,sp,96
200125e4:	30200073          	mret

200125e8 <metal_lc11_interrupt_vector_handler>:
metal_lc11_interrupt_vector_handler():
/home/jubayer/Documents/riscV/EnergyHarvestingDeviceTestbed/FE310/blinky/freedom-metal/src/drivers/riscv_cpu.c:271

/* The metal_lc11_interrupt_vector_handler() function can be redefined. */
void __attribute__((weak, interrupt))
metal_lc11_interrupt_vector_handler(void) {
200125e8:	711d                	addi	sp,sp,-96
200125ea:	ce86                	sw	ra,92(sp)
200125ec:	cc96                	sw	t0,88(sp)
200125ee:	ca9a                	sw	t1,84(sp)
200125f0:	c89e                	sw	t2,80(sp)
200125f2:	c6a2                	sw	s0,76(sp)
200125f4:	c4aa                	sw	a0,72(sp)
200125f6:	c2ae                	sw	a1,68(sp)
200125f8:	c0b2                	sw	a2,64(sp)
200125fa:	de36                	sw	a3,60(sp)
200125fc:	dc3a                	sw	a4,56(sp)
200125fe:	da3e                	sw	a5,52(sp)
20012600:	d842                	sw	a6,48(sp)
20012602:	d646                	sw	a7,44(sp)
20012604:	d472                	sw	t3,40(sp)
20012606:	d276                	sw	t4,36(sp)
20012608:	d07a                	sw	t5,32(sp)
2001260a:	ce7e                	sw	t6,28(sp)
2001260c:	1080                	addi	s0,sp,96
/home/jubayer/Documents/riscV/EnergyHarvestingDeviceTestbed/FE310/blinky/freedom-metal/src/drivers/riscv_cpu.c:272
    __METAL_IRQ_VECTOR_HANDLER(METAL_INTERRUPT_ID_LC11);
2001260e:	b82ff0ef          	jal	ra,20011990 <__metal_myhart_id>
20012612:	872a                	mv	a4,a0
20012614:	800017b7          	lui	a5,0x80001
20012618:	070a                	slli	a4,a4,0x2
2001261a:	a6478793          	addi	a5,a5,-1436 # 80000a64 <__global_pointer$+0xfffff804>
2001261e:	97ba                	add	a5,a5,a4
20012620:	439c                	lw	a5,0(a5)
20012622:	faf42623          	sw	a5,-84(s0)
20012626:	fac42783          	lw	a5,-84(s0)
2001262a:	c78d                	beqz	a5,20012654 <metal_lc11_interrupt_vector_handler+0x6c>
/home/jubayer/Documents/riscV/EnergyHarvestingDeviceTestbed/FE310/blinky/freedom-metal/src/drivers/riscv_cpu.c:272 (discriminator 1)
2001262c:	fac42503          	lw	a0,-84(s0)
20012630:	ae2ff0ef          	jal	ra,20011912 <__metal_driver_cpu_interrupt_controller>
20012634:	faa42423          	sw	a0,-88(s0)
20012638:	fa842783          	lw	a5,-88(s0)
2001263c:	3207a783          	lw	a5,800(a5)
20012640:	faf42223          	sw	a5,-92(s0)
20012644:	fa842783          	lw	a5,-88(s0)
20012648:	3187a783          	lw	a5,792(a5)
2001264c:	fa442583          	lw	a1,-92(s0)
20012650:	456d                	li	a0,27
20012652:	9782                	jalr	a5
/home/jubayer/Documents/riscV/EnergyHarvestingDeviceTestbed/FE310/blinky/freedom-metal/src/drivers/riscv_cpu.c:273
}
20012654:	0001                	nop
20012656:	40f6                	lw	ra,92(sp)
20012658:	42e6                	lw	t0,88(sp)
2001265a:	4356                	lw	t1,84(sp)
2001265c:	43c6                	lw	t2,80(sp)
2001265e:	4436                	lw	s0,76(sp)
20012660:	4526                	lw	a0,72(sp)
20012662:	4596                	lw	a1,68(sp)
20012664:	4606                	lw	a2,64(sp)
20012666:	56f2                	lw	a3,60(sp)
20012668:	5762                	lw	a4,56(sp)
2001266a:	57d2                	lw	a5,52(sp)
2001266c:	5842                	lw	a6,48(sp)
2001266e:	58b2                	lw	a7,44(sp)
20012670:	5e22                	lw	t3,40(sp)
20012672:	5e92                	lw	t4,36(sp)
20012674:	5f02                	lw	t5,32(sp)
20012676:	4ff2                	lw	t6,28(sp)
20012678:	6125                	addi	sp,sp,96
2001267a:	30200073          	mret

2001267e <metal_lc12_interrupt_vector_handler>:
metal_lc12_interrupt_vector_handler():
/home/jubayer/Documents/riscV/EnergyHarvestingDeviceTestbed/FE310/blinky/freedom-metal/src/drivers/riscv_cpu.c:277

/* The metal_lc12_interrupt_vector_handler() function can be redefined. */
void __attribute__((weak, interrupt))
metal_lc12_interrupt_vector_handler(void) {
2001267e:	711d                	addi	sp,sp,-96
20012680:	ce86                	sw	ra,92(sp)
20012682:	cc96                	sw	t0,88(sp)
20012684:	ca9a                	sw	t1,84(sp)
20012686:	c89e                	sw	t2,80(sp)
20012688:	c6a2                	sw	s0,76(sp)
2001268a:	c4aa                	sw	a0,72(sp)
2001268c:	c2ae                	sw	a1,68(sp)
2001268e:	c0b2                	sw	a2,64(sp)
20012690:	de36                	sw	a3,60(sp)
20012692:	dc3a                	sw	a4,56(sp)
20012694:	da3e                	sw	a5,52(sp)
20012696:	d842                	sw	a6,48(sp)
20012698:	d646                	sw	a7,44(sp)
2001269a:	d472                	sw	t3,40(sp)
2001269c:	d276                	sw	t4,36(sp)
2001269e:	d07a                	sw	t5,32(sp)
200126a0:	ce7e                	sw	t6,28(sp)
200126a2:	1080                	addi	s0,sp,96
/home/jubayer/Documents/riscV/EnergyHarvestingDeviceTestbed/FE310/blinky/freedom-metal/src/drivers/riscv_cpu.c:278
    __METAL_IRQ_VECTOR_HANDLER(METAL_INTERRUPT_ID_LC12);
200126a4:	aecff0ef          	jal	ra,20011990 <__metal_myhart_id>
200126a8:	872a                	mv	a4,a0
200126aa:	800017b7          	lui	a5,0x80001
200126ae:	070a                	slli	a4,a4,0x2
200126b0:	a6478793          	addi	a5,a5,-1436 # 80000a64 <__global_pointer$+0xfffff804>
200126b4:	97ba                	add	a5,a5,a4
200126b6:	439c                	lw	a5,0(a5)
200126b8:	faf42623          	sw	a5,-84(s0)
200126bc:	fac42783          	lw	a5,-84(s0)
200126c0:	c78d                	beqz	a5,200126ea <metal_lc12_interrupt_vector_handler+0x6c>
/home/jubayer/Documents/riscV/EnergyHarvestingDeviceTestbed/FE310/blinky/freedom-metal/src/drivers/riscv_cpu.c:278 (discriminator 1)
200126c2:	fac42503          	lw	a0,-84(s0)
200126c6:	a4cff0ef          	jal	ra,20011912 <__metal_driver_cpu_interrupt_controller>
200126ca:	faa42423          	sw	a0,-88(s0)
200126ce:	fa842783          	lw	a5,-88(s0)
200126d2:	3387a783          	lw	a5,824(a5)
200126d6:	faf42223          	sw	a5,-92(s0)
200126da:	fa842783          	lw	a5,-88(s0)
200126de:	3307a783          	lw	a5,816(a5)
200126e2:	fa442583          	lw	a1,-92(s0)
200126e6:	4571                	li	a0,28
200126e8:	9782                	jalr	a5
/home/jubayer/Documents/riscV/EnergyHarvestingDeviceTestbed/FE310/blinky/freedom-metal/src/drivers/riscv_cpu.c:279
}
200126ea:	0001                	nop
200126ec:	40f6                	lw	ra,92(sp)
200126ee:	42e6                	lw	t0,88(sp)
200126f0:	4356                	lw	t1,84(sp)
200126f2:	43c6                	lw	t2,80(sp)
200126f4:	4436                	lw	s0,76(sp)
200126f6:	4526                	lw	a0,72(sp)
200126f8:	4596                	lw	a1,68(sp)
200126fa:	4606                	lw	a2,64(sp)
200126fc:	56f2                	lw	a3,60(sp)
200126fe:	5762                	lw	a4,56(sp)
20012700:	57d2                	lw	a5,52(sp)
20012702:	5842                	lw	a6,48(sp)
20012704:	58b2                	lw	a7,44(sp)
20012706:	5e22                	lw	t3,40(sp)
20012708:	5e92                	lw	t4,36(sp)
2001270a:	5f02                	lw	t5,32(sp)
2001270c:	4ff2                	lw	t6,28(sp)
2001270e:	6125                	addi	sp,sp,96
20012710:	30200073          	mret

20012714 <metal_lc13_interrupt_vector_handler>:
metal_lc13_interrupt_vector_handler():
/home/jubayer/Documents/riscV/EnergyHarvestingDeviceTestbed/FE310/blinky/freedom-metal/src/drivers/riscv_cpu.c:283

/* The metal_lc13_interrupt_vector_handler() function can be redefined. */
void __attribute__((weak, interrupt))
metal_lc13_interrupt_vector_handler(void) {
20012714:	711d                	addi	sp,sp,-96
20012716:	ce86                	sw	ra,92(sp)
20012718:	cc96                	sw	t0,88(sp)
2001271a:	ca9a                	sw	t1,84(sp)
2001271c:	c89e                	sw	t2,80(sp)
2001271e:	c6a2                	sw	s0,76(sp)
20012720:	c4aa                	sw	a0,72(sp)
20012722:	c2ae                	sw	a1,68(sp)
20012724:	c0b2                	sw	a2,64(sp)
20012726:	de36                	sw	a3,60(sp)
20012728:	dc3a                	sw	a4,56(sp)
2001272a:	da3e                	sw	a5,52(sp)
2001272c:	d842                	sw	a6,48(sp)
2001272e:	d646                	sw	a7,44(sp)
20012730:	d472                	sw	t3,40(sp)
20012732:	d276                	sw	t4,36(sp)
20012734:	d07a                	sw	t5,32(sp)
20012736:	ce7e                	sw	t6,28(sp)
20012738:	1080                	addi	s0,sp,96
/home/jubayer/Documents/riscV/EnergyHarvestingDeviceTestbed/FE310/blinky/freedom-metal/src/drivers/riscv_cpu.c:284
    __METAL_IRQ_VECTOR_HANDLER(METAL_INTERRUPT_ID_LC13);
2001273a:	a56ff0ef          	jal	ra,20011990 <__metal_myhart_id>
2001273e:	872a                	mv	a4,a0
20012740:	800017b7          	lui	a5,0x80001
20012744:	070a                	slli	a4,a4,0x2
20012746:	a6478793          	addi	a5,a5,-1436 # 80000a64 <__global_pointer$+0xfffff804>
2001274a:	97ba                	add	a5,a5,a4
2001274c:	439c                	lw	a5,0(a5)
2001274e:	faf42623          	sw	a5,-84(s0)
20012752:	fac42783          	lw	a5,-84(s0)
20012756:	c78d                	beqz	a5,20012780 <metal_lc13_interrupt_vector_handler+0x6c>
/home/jubayer/Documents/riscV/EnergyHarvestingDeviceTestbed/FE310/blinky/freedom-metal/src/drivers/riscv_cpu.c:284 (discriminator 1)
20012758:	fac42503          	lw	a0,-84(s0)
2001275c:	9b6ff0ef          	jal	ra,20011912 <__metal_driver_cpu_interrupt_controller>
20012760:	faa42423          	sw	a0,-88(s0)
20012764:	fa842783          	lw	a5,-88(s0)
20012768:	3507a783          	lw	a5,848(a5)
2001276c:	faf42223          	sw	a5,-92(s0)
20012770:	fa842783          	lw	a5,-88(s0)
20012774:	3487a783          	lw	a5,840(a5)
20012778:	fa442583          	lw	a1,-92(s0)
2001277c:	4575                	li	a0,29
2001277e:	9782                	jalr	a5
/home/jubayer/Documents/riscV/EnergyHarvestingDeviceTestbed/FE310/blinky/freedom-metal/src/drivers/riscv_cpu.c:285
}
20012780:	0001                	nop
20012782:	40f6                	lw	ra,92(sp)
20012784:	42e6                	lw	t0,88(sp)
20012786:	4356                	lw	t1,84(sp)
20012788:	43c6                	lw	t2,80(sp)
2001278a:	4436                	lw	s0,76(sp)
2001278c:	4526                	lw	a0,72(sp)
2001278e:	4596                	lw	a1,68(sp)
20012790:	4606                	lw	a2,64(sp)
20012792:	56f2                	lw	a3,60(sp)
20012794:	5762                	lw	a4,56(sp)
20012796:	57d2                	lw	a5,52(sp)
20012798:	5842                	lw	a6,48(sp)
2001279a:	58b2                	lw	a7,44(sp)
2001279c:	5e22                	lw	t3,40(sp)
2001279e:	5e92                	lw	t4,36(sp)
200127a0:	5f02                	lw	t5,32(sp)
200127a2:	4ff2                	lw	t6,28(sp)
200127a4:	6125                	addi	sp,sp,96
200127a6:	30200073          	mret

200127aa <metal_lc14_interrupt_vector_handler>:
metal_lc14_interrupt_vector_handler():
/home/jubayer/Documents/riscV/EnergyHarvestingDeviceTestbed/FE310/blinky/freedom-metal/src/drivers/riscv_cpu.c:289

/* The metal_lc14_interrupt_vector_handler() function can be redefined. */
void __attribute__((weak, interrupt))
metal_lc14_interrupt_vector_handler(void) {
200127aa:	711d                	addi	sp,sp,-96
200127ac:	ce86                	sw	ra,92(sp)
200127ae:	cc96                	sw	t0,88(sp)
200127b0:	ca9a                	sw	t1,84(sp)
200127b2:	c89e                	sw	t2,80(sp)
200127b4:	c6a2                	sw	s0,76(sp)
200127b6:	c4aa                	sw	a0,72(sp)
200127b8:	c2ae                	sw	a1,68(sp)
200127ba:	c0b2                	sw	a2,64(sp)
200127bc:	de36                	sw	a3,60(sp)
200127be:	dc3a                	sw	a4,56(sp)
200127c0:	da3e                	sw	a5,52(sp)
200127c2:	d842                	sw	a6,48(sp)
200127c4:	d646                	sw	a7,44(sp)
200127c6:	d472                	sw	t3,40(sp)
200127c8:	d276                	sw	t4,36(sp)
200127ca:	d07a                	sw	t5,32(sp)
200127cc:	ce7e                	sw	t6,28(sp)
200127ce:	1080                	addi	s0,sp,96
/home/jubayer/Documents/riscV/EnergyHarvestingDeviceTestbed/FE310/blinky/freedom-metal/src/drivers/riscv_cpu.c:290
    __METAL_IRQ_VECTOR_HANDLER(METAL_INTERRUPT_ID_LC14);
200127d0:	9c0ff0ef          	jal	ra,20011990 <__metal_myhart_id>
200127d4:	872a                	mv	a4,a0
200127d6:	800017b7          	lui	a5,0x80001
200127da:	070a                	slli	a4,a4,0x2
200127dc:	a6478793          	addi	a5,a5,-1436 # 80000a64 <__global_pointer$+0xfffff804>
200127e0:	97ba                	add	a5,a5,a4
200127e2:	439c                	lw	a5,0(a5)
200127e4:	faf42623          	sw	a5,-84(s0)
200127e8:	fac42783          	lw	a5,-84(s0)
200127ec:	c78d                	beqz	a5,20012816 <metal_lc14_interrupt_vector_handler+0x6c>
/home/jubayer/Documents/riscV/EnergyHarvestingDeviceTestbed/FE310/blinky/freedom-metal/src/drivers/riscv_cpu.c:290 (discriminator 1)
200127ee:	fac42503          	lw	a0,-84(s0)
200127f2:	920ff0ef          	jal	ra,20011912 <__metal_driver_cpu_interrupt_controller>
200127f6:	faa42423          	sw	a0,-88(s0)
200127fa:	fa842783          	lw	a5,-88(s0)
200127fe:	3687a783          	lw	a5,872(a5)
20012802:	faf42223          	sw	a5,-92(s0)
20012806:	fa842783          	lw	a5,-88(s0)
2001280a:	3607a783          	lw	a5,864(a5)
2001280e:	fa442583          	lw	a1,-92(s0)
20012812:	4579                	li	a0,30
20012814:	9782                	jalr	a5
/home/jubayer/Documents/riscV/EnergyHarvestingDeviceTestbed/FE310/blinky/freedom-metal/src/drivers/riscv_cpu.c:291
}
20012816:	0001                	nop
20012818:	40f6                	lw	ra,92(sp)
2001281a:	42e6                	lw	t0,88(sp)
2001281c:	4356                	lw	t1,84(sp)
2001281e:	43c6                	lw	t2,80(sp)
20012820:	4436                	lw	s0,76(sp)
20012822:	4526                	lw	a0,72(sp)
20012824:	4596                	lw	a1,68(sp)
20012826:	4606                	lw	a2,64(sp)
20012828:	56f2                	lw	a3,60(sp)
2001282a:	5762                	lw	a4,56(sp)
2001282c:	57d2                	lw	a5,52(sp)
2001282e:	5842                	lw	a6,48(sp)
20012830:	58b2                	lw	a7,44(sp)
20012832:	5e22                	lw	t3,40(sp)
20012834:	5e92                	lw	t4,36(sp)
20012836:	5f02                	lw	t5,32(sp)
20012838:	4ff2                	lw	t6,28(sp)
2001283a:	6125                	addi	sp,sp,96
2001283c:	30200073          	mret

20012840 <metal_lc15_interrupt_vector_handler>:
metal_lc15_interrupt_vector_handler():
/home/jubayer/Documents/riscV/EnergyHarvestingDeviceTestbed/FE310/blinky/freedom-metal/src/drivers/riscv_cpu.c:295

/* The metal_lc15_interrupt_vector_handler() function can be redefined. */
void __attribute__((weak, interrupt))
metal_lc15_interrupt_vector_handler(void) {
20012840:	711d                	addi	sp,sp,-96
20012842:	ce86                	sw	ra,92(sp)
20012844:	cc96                	sw	t0,88(sp)
20012846:	ca9a                	sw	t1,84(sp)
20012848:	c89e                	sw	t2,80(sp)
2001284a:	c6a2                	sw	s0,76(sp)
2001284c:	c4aa                	sw	a0,72(sp)
2001284e:	c2ae                	sw	a1,68(sp)
20012850:	c0b2                	sw	a2,64(sp)
20012852:	de36                	sw	a3,60(sp)
20012854:	dc3a                	sw	a4,56(sp)
20012856:	da3e                	sw	a5,52(sp)
20012858:	d842                	sw	a6,48(sp)
2001285a:	d646                	sw	a7,44(sp)
2001285c:	d472                	sw	t3,40(sp)
2001285e:	d276                	sw	t4,36(sp)
20012860:	d07a                	sw	t5,32(sp)
20012862:	ce7e                	sw	t6,28(sp)
20012864:	1080                	addi	s0,sp,96
/home/jubayer/Documents/riscV/EnergyHarvestingDeviceTestbed/FE310/blinky/freedom-metal/src/drivers/riscv_cpu.c:296
    __METAL_IRQ_VECTOR_HANDLER(METAL_INTERRUPT_ID_LC15);
20012866:	92aff0ef          	jal	ra,20011990 <__metal_myhart_id>
2001286a:	872a                	mv	a4,a0
2001286c:	800017b7          	lui	a5,0x80001
20012870:	070a                	slli	a4,a4,0x2
20012872:	a6478793          	addi	a5,a5,-1436 # 80000a64 <__global_pointer$+0xfffff804>
20012876:	97ba                	add	a5,a5,a4
20012878:	439c                	lw	a5,0(a5)
2001287a:	faf42623          	sw	a5,-84(s0)
2001287e:	fac42783          	lw	a5,-84(s0)
20012882:	c78d                	beqz	a5,200128ac <metal_lc15_interrupt_vector_handler+0x6c>
/home/jubayer/Documents/riscV/EnergyHarvestingDeviceTestbed/FE310/blinky/freedom-metal/src/drivers/riscv_cpu.c:296 (discriminator 1)
20012884:	fac42503          	lw	a0,-84(s0)
20012888:	88aff0ef          	jal	ra,20011912 <__metal_driver_cpu_interrupt_controller>
2001288c:	faa42423          	sw	a0,-88(s0)
20012890:	fa842783          	lw	a5,-88(s0)
20012894:	3807a783          	lw	a5,896(a5)
20012898:	faf42223          	sw	a5,-92(s0)
2001289c:	fa842783          	lw	a5,-88(s0)
200128a0:	3787a783          	lw	a5,888(a5)
200128a4:	fa442583          	lw	a1,-92(s0)
200128a8:	457d                	li	a0,31
200128aa:	9782                	jalr	a5
/home/jubayer/Documents/riscV/EnergyHarvestingDeviceTestbed/FE310/blinky/freedom-metal/src/drivers/riscv_cpu.c:297
}
200128ac:	0001                	nop
200128ae:	40f6                	lw	ra,92(sp)
200128b0:	42e6                	lw	t0,88(sp)
200128b2:	4356                	lw	t1,84(sp)
200128b4:	43c6                	lw	t2,80(sp)
200128b6:	4436                	lw	s0,76(sp)
200128b8:	4526                	lw	a0,72(sp)
200128ba:	4596                	lw	a1,68(sp)
200128bc:	4606                	lw	a2,64(sp)
200128be:	56f2                	lw	a3,60(sp)
200128c0:	5762                	lw	a4,56(sp)
200128c2:	57d2                	lw	a5,52(sp)
200128c4:	5842                	lw	a6,48(sp)
200128c6:	58b2                	lw	a7,44(sp)
200128c8:	5e22                	lw	t3,40(sp)
200128ca:	5e92                	lw	t4,36(sp)
200128cc:	5f02                	lw	t5,32(sp)
200128ce:	4ff2                	lw	t6,28(sp)
200128d0:	6125                	addi	sp,sp,96
200128d2:	30200073          	mret

200128d6 <__metal_controller_interrupt_vector_mode>:
__metal_controller_interrupt_vector_mode():
/home/jubayer/Documents/riscV/EnergyHarvestingDeviceTestbed/FE310/blinky/freedom-metal/src/drivers/riscv_cpu.c:299

metal_vector_mode __metal_controller_interrupt_vector_mode(void) {
200128d6:	1101                	addi	sp,sp,-32
200128d8:	ce22                	sw	s0,28(sp)
200128da:	1000                	addi	s0,sp,32
/home/jubayer/Documents/riscV/EnergyHarvestingDeviceTestbed/FE310/blinky/freedom-metal/src/drivers/riscv_cpu.c:302
    uintptr_t val;

    __asm__ volatile("csrr %0, mtvec" : "=r"(val));
200128dc:	305027f3          	csrr	a5,mtvec
200128e0:	fef42623          	sw	a5,-20(s0)
/home/jubayer/Documents/riscV/EnergyHarvestingDeviceTestbed/FE310/blinky/freedom-metal/src/drivers/riscv_cpu.c:303
    val &= METAL_MTVEC_MASK;
200128e4:	fec42783          	lw	a5,-20(s0)
200128e8:	03f7f793          	andi	a5,a5,63
200128ec:	fef42623          	sw	a5,-20(s0)
/home/jubayer/Documents/riscV/EnergyHarvestingDeviceTestbed/FE310/blinky/freedom-metal/src/drivers/riscv_cpu.c:305

    switch (val) {
200128f0:	fec42703          	lw	a4,-20(s0)
200128f4:	478d                	li	a5,3
200128f6:	02f70363          	beq	a4,a5,2001291c <__metal_controller_interrupt_vector_mode+0x46>
200128fa:	fec42703          	lw	a4,-20(s0)
200128fe:	478d                	li	a5,3
20012900:	02e7e263          	bltu	a5,a4,20012924 <__metal_controller_interrupt_vector_mode+0x4e>
20012904:	fec42703          	lw	a4,-20(s0)
20012908:	4785                	li	a5,1
2001290a:	00f70b63          	beq	a4,a5,20012920 <__metal_controller_interrupt_vector_mode+0x4a>
2001290e:	fec42703          	lw	a4,-20(s0)
20012912:	4789                	li	a5,2
20012914:	00f71863          	bne	a4,a5,20012924 <__metal_controller_interrupt_vector_mode+0x4e>
/home/jubayer/Documents/riscV/EnergyHarvestingDeviceTestbed/FE310/blinky/freedom-metal/src/drivers/riscv_cpu.c:307
    case METAL_MTVEC_CLIC:
        return METAL_SELECTIVE_VECTOR_MODE;
20012918:	478d                	li	a5,3
2001291a:	a031                	j	20012926 <__metal_controller_interrupt_vector_mode+0x50>
/home/jubayer/Documents/riscV/EnergyHarvestingDeviceTestbed/FE310/blinky/freedom-metal/src/drivers/riscv_cpu.c:309
    case METAL_MTVEC_CLIC_VECTORED:
        return METAL_HARDWARE_VECTOR_MODE;
2001291c:	4791                	li	a5,4
2001291e:	a021                	j	20012926 <__metal_controller_interrupt_vector_mode+0x50>
/home/jubayer/Documents/riscV/EnergyHarvestingDeviceTestbed/FE310/blinky/freedom-metal/src/drivers/riscv_cpu.c:311
    case METAL_MTVEC_VECTORED:
        return METAL_VECTOR_MODE;
20012920:	4785                	li	a5,1
20012922:	a011                	j	20012926 <__metal_controller_interrupt_vector_mode+0x50>
/home/jubayer/Documents/riscV/EnergyHarvestingDeviceTestbed/FE310/blinky/freedom-metal/src/drivers/riscv_cpu.c:313
    }
    return METAL_DIRECT_MODE;
20012924:	4781                	li	a5,0
/home/jubayer/Documents/riscV/EnergyHarvestingDeviceTestbed/FE310/blinky/freedom-metal/src/drivers/riscv_cpu.c:314
}
20012926:	853e                	mv	a0,a5
20012928:	4472                	lw	s0,28(sp)
2001292a:	6105                	addi	sp,sp,32
2001292c:	8082                	ret

2001292e <__metal_controller_interrupt_vector>:
__metal_controller_interrupt_vector():
/home/jubayer/Documents/riscV/EnergyHarvestingDeviceTestbed/FE310/blinky/freedom-metal/src/drivers/riscv_cpu.c:317

void __metal_controller_interrupt_vector(metal_vector_mode mode,
                                         void *vec_table) {
2001292e:	7179                	addi	sp,sp,-48
20012930:	d622                	sw	s0,44(sp)
20012932:	1800                	addi	s0,sp,48
20012934:	fca42e23          	sw	a0,-36(s0)
20012938:	fcb42c23          	sw	a1,-40(s0)
/home/jubayer/Documents/riscV/EnergyHarvestingDeviceTestbed/FE310/blinky/freedom-metal/src/drivers/riscv_cpu.c:320
    uintptr_t trap_entry, val;

    __asm__ volatile("csrr %0, mtvec" : "=r"(val));
2001293c:	305027f3          	csrr	a5,mtvec
20012940:	fef42623          	sw	a5,-20(s0)
/home/jubayer/Documents/riscV/EnergyHarvestingDeviceTestbed/FE310/blinky/freedom-metal/src/drivers/riscv_cpu.c:321
    val &= ~(METAL_MTVEC_CLIC_VECTORED | METAL_MTVEC_CLIC_RESERVED);
20012944:	fec42783          	lw	a5,-20(s0)
20012948:	fc07f793          	andi	a5,a5,-64
2001294c:	fef42623          	sw	a5,-20(s0)
/home/jubayer/Documents/riscV/EnergyHarvestingDeviceTestbed/FE310/blinky/freedom-metal/src/drivers/riscv_cpu.c:322
    trap_entry = (uintptr_t)vec_table;
20012950:	fd842783          	lw	a5,-40(s0)
20012954:	fef42423          	sw	a5,-24(s0)
/home/jubayer/Documents/riscV/EnergyHarvestingDeviceTestbed/FE310/blinky/freedom-metal/src/drivers/riscv_cpu.c:324

    switch (mode) {
20012958:	fdc42703          	lw	a4,-36(s0)
2001295c:	4791                	li	a5,4
2001295e:	04f70563          	beq	a4,a5,200129a8 <__metal_controller_interrupt_vector+0x7a>
20012962:	fdc42703          	lw	a4,-36(s0)
20012966:	4791                	li	a5,4
20012968:	06e7e863          	bltu	a5,a4,200129d8 <__metal_controller_interrupt_vector+0xaa>
2001296c:	fdc42703          	lw	a4,-36(s0)
20012970:	478d                	li	a5,3
20012972:	06e7e363          	bltu	a5,a4,200129d8 <__metal_controller_interrupt_vector+0xaa>
20012976:	fdc42703          	lw	a4,-36(s0)
2001297a:	4789                	li	a5,2
2001297c:	00f77b63          	bgeu	a4,a5,20012992 <__metal_controller_interrupt_vector+0x64>
20012980:	fdc42783          	lw	a5,-36(s0)
20012984:	c7a1                	beqz	a5,200129cc <__metal_controller_interrupt_vector+0x9e>
20012986:	fdc42703          	lw	a4,-36(s0)
2001298a:	4785                	li	a5,1
2001298c:	02f70963          	beq	a4,a5,200129be <__metal_controller_interrupt_vector+0x90>
/home/jubayer/Documents/riscV/EnergyHarvestingDeviceTestbed/FE310/blinky/freedom-metal/src/drivers/riscv_cpu.c:344
    case METAL_DIRECT_MODE:
        __asm__ volatile(
            "csrw mtvec, %0" ::"r"(trap_entry & ~METAL_MTVEC_CLIC_VECTORED));
        break;
    }
}
20012990:	a0a1                	j	200129d8 <__metal_controller_interrupt_vector+0xaa>
/home/jubayer/Documents/riscV/EnergyHarvestingDeviceTestbed/FE310/blinky/freedom-metal/src/drivers/riscv_cpu.c:327
        __asm__ volatile("csrw 0x307, %0" ::"r"(trap_entry));
20012992:	fe842783          	lw	a5,-24(s0)
20012996:	30779073          	csrw	mtvt,a5
/home/jubayer/Documents/riscV/EnergyHarvestingDeviceTestbed/FE310/blinky/freedom-metal/src/drivers/riscv_cpu.c:328
        __asm__ volatile("csrw mtvec, %0" ::"r"(val | METAL_MTVEC_CLIC));
2001299a:	fec42783          	lw	a5,-20(s0)
2001299e:	0027e793          	ori	a5,a5,2
200129a2:	30579073          	csrw	mtvec,a5
/home/jubayer/Documents/riscV/EnergyHarvestingDeviceTestbed/FE310/blinky/freedom-metal/src/drivers/riscv_cpu.c:329
        break;
200129a6:	a80d                	j	200129d8 <__metal_controller_interrupt_vector+0xaa>
/home/jubayer/Documents/riscV/EnergyHarvestingDeviceTestbed/FE310/blinky/freedom-metal/src/drivers/riscv_cpu.c:331
        __asm__ volatile("csrw 0x307, %0" ::"r"(trap_entry));
200129a8:	fe842783          	lw	a5,-24(s0)
200129ac:	30779073          	csrw	mtvt,a5
/home/jubayer/Documents/riscV/EnergyHarvestingDeviceTestbed/FE310/blinky/freedom-metal/src/drivers/riscv_cpu.c:333
            "csrw mtvec, %0" ::"r"(val | METAL_MTVEC_CLIC_VECTORED));
200129b0:	fec42783          	lw	a5,-20(s0)
200129b4:	0037e793          	ori	a5,a5,3
/home/jubayer/Documents/riscV/EnergyHarvestingDeviceTestbed/FE310/blinky/freedom-metal/src/drivers/riscv_cpu.c:332
        __asm__ volatile(
200129b8:	30579073          	csrw	mtvec,a5
/home/jubayer/Documents/riscV/EnergyHarvestingDeviceTestbed/FE310/blinky/freedom-metal/src/drivers/riscv_cpu.c:334
        break;
200129bc:	a831                	j	200129d8 <__metal_controller_interrupt_vector+0xaa>
/home/jubayer/Documents/riscV/EnergyHarvestingDeviceTestbed/FE310/blinky/freedom-metal/src/drivers/riscv_cpu.c:337
            "csrw mtvec, %0" ::"r"(trap_entry | METAL_MTVEC_VECTORED));
200129be:	fe842783          	lw	a5,-24(s0)
200129c2:	0017e793          	ori	a5,a5,1
/home/jubayer/Documents/riscV/EnergyHarvestingDeviceTestbed/FE310/blinky/freedom-metal/src/drivers/riscv_cpu.c:336
        __asm__ volatile(
200129c6:	30579073          	csrw	mtvec,a5
/home/jubayer/Documents/riscV/EnergyHarvestingDeviceTestbed/FE310/blinky/freedom-metal/src/drivers/riscv_cpu.c:338
        break;
200129ca:	a039                	j	200129d8 <__metal_controller_interrupt_vector+0xaa>
/home/jubayer/Documents/riscV/EnergyHarvestingDeviceTestbed/FE310/blinky/freedom-metal/src/drivers/riscv_cpu.c:341
            "csrw mtvec, %0" ::"r"(trap_entry & ~METAL_MTVEC_CLIC_VECTORED));
200129cc:	fe842783          	lw	a5,-24(s0)
200129d0:	9bf1                	andi	a5,a5,-4
/home/jubayer/Documents/riscV/EnergyHarvestingDeviceTestbed/FE310/blinky/freedom-metal/src/drivers/riscv_cpu.c:340
        __asm__ volatile(
200129d2:	30579073          	csrw	mtvec,a5
/home/jubayer/Documents/riscV/EnergyHarvestingDeviceTestbed/FE310/blinky/freedom-metal/src/drivers/riscv_cpu.c:342
        break;
200129d6:	0001                	nop
/home/jubayer/Documents/riscV/EnergyHarvestingDeviceTestbed/FE310/blinky/freedom-metal/src/drivers/riscv_cpu.c:344
}
200129d8:	0001                	nop
200129da:	5432                	lw	s0,44(sp)
200129dc:	6145                	addi	sp,sp,48
200129de:	8082                	ret

200129e0 <__metal_valid_interrupt_id>:
__metal_valid_interrupt_id():
/home/jubayer/Documents/riscV/EnergyHarvestingDeviceTestbed/FE310/blinky/freedom-metal/src/drivers/riscv_cpu.c:346

int __metal_valid_interrupt_id(int id) {
200129e0:	1101                	addi	sp,sp,-32
200129e2:	ce22                	sw	s0,28(sp)
200129e4:	1000                	addi	s0,sp,32
200129e6:	fea42623          	sw	a0,-20(s0)
/home/jubayer/Documents/riscV/EnergyHarvestingDeviceTestbed/FE310/blinky/freedom-metal/src/drivers/riscv_cpu.c:347
    switch (id) {
200129ea:	fec42703          	lw	a4,-20(s0)
200129ee:	47fd                	li	a5,31
200129f0:	02e7c663          	blt	a5,a4,20012a1c <__metal_valid_interrupt_id+0x3c>
200129f4:	fec42703          	lw	a4,-20(s0)
200129f8:	478d                	li	a5,3
200129fa:	02f74963          	blt	a4,a5,20012a2c <__metal_valid_interrupt_id+0x4c>
200129fe:	fec42783          	lw	a5,-20(s0)
20012a02:	4705                	li	a4,1
20012a04:	00f71733          	sll	a4,a4,a5
20012a08:	77c5                	lui	a5,0xffff1
20012a0a:	88878793          	addi	a5,a5,-1912 # ffff0888 <__global_pointer$+0x7ffef628>
20012a0e:	8ff9                	and	a5,a5,a4
20012a10:	00f037b3          	snez	a5,a5
20012a14:	0ff7f793          	zext.b	a5,a5
20012a18:	eb81                	bnez	a5,20012a28 <__metal_valid_interrupt_id+0x48>
/home/jubayer/Documents/riscV/EnergyHarvestingDeviceTestbed/FE310/blinky/freedom-metal/src/drivers/riscv_cpu.c:370
    case METAL_INTERRUPT_ID_LC14:
    case METAL_INTERRUPT_ID_LC15:
    case METAL_INTERRUPT_ID_BEU:
        return 1;
    default:
        break;
20012a1a:	a809                	j	20012a2c <__metal_valid_interrupt_id+0x4c>
/home/jubayer/Documents/riscV/EnergyHarvestingDeviceTestbed/FE310/blinky/freedom-metal/src/drivers/riscv_cpu.c:347
    switch (id) {
20012a1c:	fec42703          	lw	a4,-20(s0)
20012a20:	08000793          	li	a5,128
20012a24:	00f71463          	bne	a4,a5,20012a2c <__metal_valid_interrupt_id+0x4c>
/home/jubayer/Documents/riscV/EnergyHarvestingDeviceTestbed/FE310/blinky/freedom-metal/src/drivers/riscv_cpu.c:368
        return 1;
20012a28:	4785                	li	a5,1
20012a2a:	a019                	j	20012a30 <__metal_valid_interrupt_id+0x50>
/home/jubayer/Documents/riscV/EnergyHarvestingDeviceTestbed/FE310/blinky/freedom-metal/src/drivers/riscv_cpu.c:370
        break;
20012a2c:	0001                	nop
/home/jubayer/Documents/riscV/EnergyHarvestingDeviceTestbed/FE310/blinky/freedom-metal/src/drivers/riscv_cpu.c:373
    }

    return 0;
20012a2e:	4781                	li	a5,0
/home/jubayer/Documents/riscV/EnergyHarvestingDeviceTestbed/FE310/blinky/freedom-metal/src/drivers/riscv_cpu.c:374
}
20012a30:	853e                	mv	a0,a5
20012a32:	4472                	lw	s0,28(sp)
20012a34:	6105                	addi	sp,sp,32
20012a36:	8082                	ret

20012a38 <__metal_local_interrupt_enable>:
__metal_local_interrupt_enable():
/home/jubayer/Documents/riscV/EnergyHarvestingDeviceTestbed/FE310/blinky/freedom-metal/src/drivers/riscv_cpu.c:377

int __metal_local_interrupt_enable(struct metal_interrupt *controller,
                                   metal_interrupt_id_e id, int enable) {
20012a38:	7179                	addi	sp,sp,-48
20012a3a:	d606                	sw	ra,44(sp)
20012a3c:	d422                	sw	s0,40(sp)
20012a3e:	1800                	addi	s0,sp,48
20012a40:	fca42e23          	sw	a0,-36(s0)
20012a44:	fcb42c23          	sw	a1,-40(s0)
20012a48:	fcc42a23          	sw	a2,-44(s0)
/home/jubayer/Documents/riscV/EnergyHarvestingDeviceTestbed/FE310/blinky/freedom-metal/src/drivers/riscv_cpu.c:378
    int rc = 0;
20012a4c:	fe042623          	sw	zero,-20(s0)
/home/jubayer/Documents/riscV/EnergyHarvestingDeviceTestbed/FE310/blinky/freedom-metal/src/drivers/riscv_cpu.c:380

    if (!controller) {
20012a50:	fdc42783          	lw	a5,-36(s0)
20012a54:	e399                	bnez	a5,20012a5a <__metal_local_interrupt_enable+0x22>
/home/jubayer/Documents/riscV/EnergyHarvestingDeviceTestbed/FE310/blinky/freedom-metal/src/drivers/riscv_cpu.c:381
        return -1;
20012a56:	57fd                	li	a5,-1
20012a58:	a849                	j	20012aea <__metal_local_interrupt_enable+0xb2>
20012a5a:	fd842703          	lw	a4,-40(s0)
20012a5e:	47fd                	li	a5,31
20012a60:	08e7e063          	bltu	a5,a4,20012ae0 <__metal_local_interrupt_enable+0xa8>
20012a64:	fd842783          	lw	a5,-40(s0)
20012a68:	00279713          	slli	a4,a5,0x2
20012a6c:	200107b7          	lui	a5,0x20010
20012a70:	3a478793          	addi	a5,a5,932 # 200103a4 <__metal_driver_vtable_riscv_clint0+0x64>
20012a74:	97ba                	add	a5,a5,a4
20012a76:	439c                	lw	a5,0(a5)
20012a78:	8782                	jr	a5
/home/jubayer/Documents/riscV/EnergyHarvestingDeviceTestbed/FE310/blinky/freedom-metal/src/drivers/riscv_cpu.c:386
    }

    switch (id) {
    case METAL_INTERRUPT_ID_BASE:
        if (enable) {
20012a7a:	fd442783          	lw	a5,-44(s0)
20012a7e:	c781                	beqz	a5,20012a86 <__metal_local_interrupt_enable+0x4e>
/home/jubayer/Documents/riscV/EnergyHarvestingDeviceTestbed/FE310/blinky/freedom-metal/src/drivers/riscv_cpu.c:387
            __metal_interrupt_global_enable();
20012a80:	f2bfe0ef          	jal	ra,200119aa <__metal_interrupt_global_enable>
/home/jubayer/Documents/riscV/EnergyHarvestingDeviceTestbed/FE310/blinky/freedom-metal/src/drivers/riscv_cpu.c:391
        } else {
            __metal_interrupt_global_disable();
        }
        break;
20012a84:	a08d                	j	20012ae6 <__metal_local_interrupt_enable+0xae>
/home/jubayer/Documents/riscV/EnergyHarvestingDeviceTestbed/FE310/blinky/freedom-metal/src/drivers/riscv_cpu.c:389
            __metal_interrupt_global_disable();
20012a86:	f3dfe0ef          	jal	ra,200119c2 <__metal_interrupt_global_disable>
/home/jubayer/Documents/riscV/EnergyHarvestingDeviceTestbed/FE310/blinky/freedom-metal/src/drivers/riscv_cpu.c:391
        break;
20012a8a:	a8b1                	j	20012ae6 <__metal_local_interrupt_enable+0xae>
/home/jubayer/Documents/riscV/EnergyHarvestingDeviceTestbed/FE310/blinky/freedom-metal/src/drivers/riscv_cpu.c:393
    case METAL_INTERRUPT_ID_SW:
        if (enable) {
20012a8c:	fd442783          	lw	a5,-44(s0)
20012a90:	c781                	beqz	a5,20012a98 <__metal_local_interrupt_enable+0x60>
/home/jubayer/Documents/riscV/EnergyHarvestingDeviceTestbed/FE310/blinky/freedom-metal/src/drivers/riscv_cpu.c:394
            __metal_interrupt_software_enable();
20012a92:	f49fe0ef          	jal	ra,200119da <__metal_interrupt_software_enable>
/home/jubayer/Documents/riscV/EnergyHarvestingDeviceTestbed/FE310/blinky/freedom-metal/src/drivers/riscv_cpu.c:398
        } else {
            __metal_interrupt_software_disable();
        }
        break;
20012a96:	a881                	j	20012ae6 <__metal_local_interrupt_enable+0xae>
/home/jubayer/Documents/riscV/EnergyHarvestingDeviceTestbed/FE310/blinky/freedom-metal/src/drivers/riscv_cpu.c:396
            __metal_interrupt_software_disable();
20012a98:	f5bfe0ef          	jal	ra,200119f2 <__metal_interrupt_software_disable>
/home/jubayer/Documents/riscV/EnergyHarvestingDeviceTestbed/FE310/blinky/freedom-metal/src/drivers/riscv_cpu.c:398
        break;
20012a9c:	a0a9                	j	20012ae6 <__metal_local_interrupt_enable+0xae>
/home/jubayer/Documents/riscV/EnergyHarvestingDeviceTestbed/FE310/blinky/freedom-metal/src/drivers/riscv_cpu.c:400
    case METAL_INTERRUPT_ID_TMR:
        if (enable) {
20012a9e:	fd442783          	lw	a5,-44(s0)
20012aa2:	c781                	beqz	a5,20012aaa <__metal_local_interrupt_enable+0x72>
/home/jubayer/Documents/riscV/EnergyHarvestingDeviceTestbed/FE310/blinky/freedom-metal/src/drivers/riscv_cpu.c:401
            __metal_interrupt_timer_enable();
20012aa4:	f67fe0ef          	jal	ra,20011a0a <__metal_interrupt_timer_enable>
/home/jubayer/Documents/riscV/EnergyHarvestingDeviceTestbed/FE310/blinky/freedom-metal/src/drivers/riscv_cpu.c:405
        } else {
            __metal_interrupt_timer_disable();
        }
        break;
20012aa8:	a83d                	j	20012ae6 <__metal_local_interrupt_enable+0xae>
/home/jubayer/Documents/riscV/EnergyHarvestingDeviceTestbed/FE310/blinky/freedom-metal/src/drivers/riscv_cpu.c:403
            __metal_interrupt_timer_disable();
20012aaa:	f7bfe0ef          	jal	ra,20011a24 <__metal_interrupt_timer_disable>
/home/jubayer/Documents/riscV/EnergyHarvestingDeviceTestbed/FE310/blinky/freedom-metal/src/drivers/riscv_cpu.c:405
        break;
20012aae:	a825                	j	20012ae6 <__metal_local_interrupt_enable+0xae>
/home/jubayer/Documents/riscV/EnergyHarvestingDeviceTestbed/FE310/blinky/freedom-metal/src/drivers/riscv_cpu.c:407
    case METAL_INTERRUPT_ID_EXT:
        if (enable) {
20012ab0:	fd442783          	lw	a5,-44(s0)
20012ab4:	c781                	beqz	a5,20012abc <__metal_local_interrupt_enable+0x84>
/home/jubayer/Documents/riscV/EnergyHarvestingDeviceTestbed/FE310/blinky/freedom-metal/src/drivers/riscv_cpu.c:408
            __metal_interrupt_external_enable();
20012ab6:	f89fe0ef          	jal	ra,20011a3e <__metal_interrupt_external_enable>
/home/jubayer/Documents/riscV/EnergyHarvestingDeviceTestbed/FE310/blinky/freedom-metal/src/drivers/riscv_cpu.c:412
        } else {
            __metal_interrupt_external_disable();
        }
        break;
20012aba:	a035                	j	20012ae6 <__metal_local_interrupt_enable+0xae>
/home/jubayer/Documents/riscV/EnergyHarvestingDeviceTestbed/FE310/blinky/freedom-metal/src/drivers/riscv_cpu.c:410
            __metal_interrupt_external_disable();
20012abc:	f9ffe0ef          	jal	ra,20011a5a <__metal_interrupt_external_disable>
/home/jubayer/Documents/riscV/EnergyHarvestingDeviceTestbed/FE310/blinky/freedom-metal/src/drivers/riscv_cpu.c:412
        break;
20012ac0:	a01d                	j	20012ae6 <__metal_local_interrupt_enable+0xae>
/home/jubayer/Documents/riscV/EnergyHarvestingDeviceTestbed/FE310/blinky/freedom-metal/src/drivers/riscv_cpu.c:429
    case METAL_INTERRUPT_ID_LC11:
    case METAL_INTERRUPT_ID_LC12:
    case METAL_INTERRUPT_ID_LC13:
    case METAL_INTERRUPT_ID_LC14:
    case METAL_INTERRUPT_ID_LC15:
        if (enable) {
20012ac2:	fd442783          	lw	a5,-44(s0)
20012ac6:	c799                	beqz	a5,20012ad4 <__metal_local_interrupt_enable+0x9c>
/home/jubayer/Documents/riscV/EnergyHarvestingDeviceTestbed/FE310/blinky/freedom-metal/src/drivers/riscv_cpu.c:430
            __metal_interrupt_local_enable(id);
20012ac8:	fd842783          	lw	a5,-40(s0)
20012acc:	853e                	mv	a0,a5
20012ace:	fa9fe0ef          	jal	ra,20011a76 <__metal_interrupt_local_enable>
/home/jubayer/Documents/riscV/EnergyHarvestingDeviceTestbed/FE310/blinky/freedom-metal/src/drivers/riscv_cpu.c:434
        } else {
            __metal_interrupt_local_disable(id);
        }
        break;
20012ad2:	a811                	j	20012ae6 <__metal_local_interrupt_enable+0xae>
/home/jubayer/Documents/riscV/EnergyHarvestingDeviceTestbed/FE310/blinky/freedom-metal/src/drivers/riscv_cpu.c:432
            __metal_interrupt_local_disable(id);
20012ad4:	fd842783          	lw	a5,-40(s0)
20012ad8:	853e                	mv	a0,a5
20012ada:	fc9fe0ef          	jal	ra,20011aa2 <__metal_interrupt_local_disable>
/home/jubayer/Documents/riscV/EnergyHarvestingDeviceTestbed/FE310/blinky/freedom-metal/src/drivers/riscv_cpu.c:434
        break;
20012ade:	a021                	j	20012ae6 <__metal_local_interrupt_enable+0xae>
/home/jubayer/Documents/riscV/EnergyHarvestingDeviceTestbed/FE310/blinky/freedom-metal/src/drivers/riscv_cpu.c:436
    default:
        rc = -1;
20012ae0:	57fd                	li	a5,-1
20012ae2:	fef42623          	sw	a5,-20(s0)
/home/jubayer/Documents/riscV/EnergyHarvestingDeviceTestbed/FE310/blinky/freedom-metal/src/drivers/riscv_cpu.c:438
    }
    return rc;
20012ae6:	fec42783          	lw	a5,-20(s0)
/home/jubayer/Documents/riscV/EnergyHarvestingDeviceTestbed/FE310/blinky/freedom-metal/src/drivers/riscv_cpu.c:439
}
20012aea:	853e                	mv	a0,a5
20012aec:	50b2                	lw	ra,44(sp)
20012aee:	5422                	lw	s0,40(sp)
20012af0:	6145                	addi	sp,sp,48
20012af2:	8082                	ret

20012af4 <__metal_exception_register>:
__metal_exception_register():
/home/jubayer/Documents/riscV/EnergyHarvestingDeviceTestbed/FE310/blinky/freedom-metal/src/drivers/riscv_cpu.c:442

int __metal_exception_register(struct metal_interrupt *controller, int ecode,
                               metal_exception_handler_t isr) {
20012af4:	7179                	addi	sp,sp,-48
20012af6:	d622                	sw	s0,44(sp)
20012af8:	1800                	addi	s0,sp,48
20012afa:	fca42e23          	sw	a0,-36(s0)
20012afe:	fcb42c23          	sw	a1,-40(s0)
20012b02:	fcc42a23          	sw	a2,-44(s0)
/home/jubayer/Documents/riscV/EnergyHarvestingDeviceTestbed/FE310/blinky/freedom-metal/src/drivers/riscv_cpu.c:443
    struct __metal_driver_riscv_cpu_intc *intc = (void *)(controller);
20012b06:	fdc42783          	lw	a5,-36(s0)
20012b0a:	fef42623          	sw	a5,-20(s0)
/home/jubayer/Documents/riscV/EnergyHarvestingDeviceTestbed/FE310/blinky/freedom-metal/src/drivers/riscv_cpu.c:445

    if ((ecode < METAL_MAX_EXCEPTION_CODE) && isr) {
20012b0e:	fd842703          	lw	a4,-40(s0)
20012b12:	47ad                	li	a5,11
20012b14:	02e7c263          	blt	a5,a4,20012b38 <__metal_exception_register+0x44>
/home/jubayer/Documents/riscV/EnergyHarvestingDeviceTestbed/FE310/blinky/freedom-metal/src/drivers/riscv_cpu.c:445 (discriminator 1)
20012b18:	fd442783          	lw	a5,-44(s0)
20012b1c:	cf91                	beqz	a5,20012b38 <__metal_exception_register+0x44>
/home/jubayer/Documents/riscV/EnergyHarvestingDeviceTestbed/FE310/blinky/freedom-metal/src/drivers/riscv_cpu.c:446
        intc->metal_exception_table[ecode] = isr;
20012b1e:	fec42703          	lw	a4,-20(s0)
20012b22:	fd842783          	lw	a5,-40(s0)
20012b26:	0e878793          	addi	a5,a5,232
20012b2a:	078a                	slli	a5,a5,0x2
20012b2c:	97ba                	add	a5,a5,a4
20012b2e:	fd442703          	lw	a4,-44(s0)
20012b32:	c398                	sw	a4,0(a5)
/home/jubayer/Documents/riscV/EnergyHarvestingDeviceTestbed/FE310/blinky/freedom-metal/src/drivers/riscv_cpu.c:447
        return 0;
20012b34:	4781                	li	a5,0
20012b36:	a011                	j	20012b3a <__metal_exception_register+0x46>
/home/jubayer/Documents/riscV/EnergyHarvestingDeviceTestbed/FE310/blinky/freedom-metal/src/drivers/riscv_cpu.c:449
    }
    return -1;
20012b38:	57fd                	li	a5,-1
/home/jubayer/Documents/riscV/EnergyHarvestingDeviceTestbed/FE310/blinky/freedom-metal/src/drivers/riscv_cpu.c:450
}
20012b3a:	853e                	mv	a0,a5
20012b3c:	5432                	lw	s0,44(sp)
20012b3e:	6145                	addi	sp,sp,48
20012b40:	8082                	ret

20012b42 <__metal_driver_riscv_cpu_controller_interrupt_init>:
__metal_driver_riscv_cpu_controller_interrupt_init():
/home/jubayer/Documents/riscV/EnergyHarvestingDeviceTestbed/FE310/blinky/freedom-metal/src/drivers/riscv_cpu.c:454

extern void early_trap_vector(void);
void __metal_driver_riscv_cpu_controller_interrupt_init(
    struct metal_interrupt *controller) {
20012b42:	7179                	addi	sp,sp,-48
20012b44:	d606                	sw	ra,44(sp)
20012b46:	d422                	sw	s0,40(sp)
20012b48:	1800                	addi	s0,sp,48
20012b4a:	fca42e23          	sw	a0,-36(s0)
/home/jubayer/Documents/riscV/EnergyHarvestingDeviceTestbed/FE310/blinky/freedom-metal/src/drivers/riscv_cpu.c:455
    struct __metal_driver_riscv_cpu_intc *intc = (void *)(controller);
20012b4e:	fdc42783          	lw	a5,-36(s0)
20012b52:	fef42223          	sw	a5,-28(s0)
/home/jubayer/Documents/riscV/EnergyHarvestingDeviceTestbed/FE310/blinky/freedom-metal/src/drivers/riscv_cpu.c:457

    if (!intc->init_done) {
20012b56:	fe442783          	lw	a5,-28(s0)
20012b5a:	43dc                	lw	a5,4(a5)
20012b5c:	efdd                	bnez	a5,20012c1a <__metal_driver_riscv_cpu_controller_interrupt_init+0xd8>
/home/jubayer/Documents/riscV/EnergyHarvestingDeviceTestbed/FE310/blinky/freedom-metal/src/drivers/riscv_cpu.c:459
        /* Default to use direct interrupt, setup sw cb table*/
        for (int i = 0; i < METAL_MAX_MI; i++) {
20012b5e:	fe042623          	sw	zero,-20(s0)
20012b62:	a0b9                	j	20012bb0 <__metal_driver_riscv_cpu_controller_interrupt_init+0x6e>
/home/jubayer/Documents/riscV/EnergyHarvestingDeviceTestbed/FE310/blinky/freedom-metal/src/drivers/riscv_cpu.c:460 (discriminator 3)
            intc->metal_int_table[i].handler = NULL;
20012b64:	fe442683          	lw	a3,-28(s0)
20012b68:	fec42703          	lw	a4,-20(s0)
20012b6c:	87ba                	mv	a5,a4
20012b6e:	0786                	slli	a5,a5,0x1
20012b70:	97ba                	add	a5,a5,a4
20012b72:	078e                	slli	a5,a5,0x3
20012b74:	97b6                	add	a5,a5,a3
20012b76:	0807a823          	sw	zero,144(a5)
/home/jubayer/Documents/riscV/EnergyHarvestingDeviceTestbed/FE310/blinky/freedom-metal/src/drivers/riscv_cpu.c:461 (discriminator 3)
            intc->metal_int_table[i].sub_int = NULL;
20012b7a:	fe442683          	lw	a3,-28(s0)
20012b7e:	fec42703          	lw	a4,-20(s0)
20012b82:	87ba                	mv	a5,a4
20012b84:	0786                	slli	a5,a5,0x1
20012b86:	97ba                	add	a5,a5,a4
20012b88:	078e                	slli	a5,a5,0x3
20012b8a:	97b6                	add	a5,a5,a3
20012b8c:	0807aa23          	sw	zero,148(a5)
/home/jubayer/Documents/riscV/EnergyHarvestingDeviceTestbed/FE310/blinky/freedom-metal/src/drivers/riscv_cpu.c:462 (discriminator 3)
            intc->metal_int_table[i].exint_data = NULL;
20012b90:	fe442683          	lw	a3,-28(s0)
20012b94:	fec42703          	lw	a4,-20(s0)
20012b98:	87ba                	mv	a5,a4
20012b9a:	0786                	slli	a5,a5,0x1
20012b9c:	97ba                	add	a5,a5,a4
20012b9e:	078e                	slli	a5,a5,0x3
20012ba0:	97b6                	add	a5,a5,a3
20012ba2:	0807ac23          	sw	zero,152(a5)
/home/jubayer/Documents/riscV/EnergyHarvestingDeviceTestbed/FE310/blinky/freedom-metal/src/drivers/riscv_cpu.c:459 (discriminator 3)
        for (int i = 0; i < METAL_MAX_MI; i++) {
20012ba6:	fec42783          	lw	a5,-20(s0)
20012baa:	0785                	addi	a5,a5,1
20012bac:	fef42623          	sw	a5,-20(s0)
/home/jubayer/Documents/riscV/EnergyHarvestingDeviceTestbed/FE310/blinky/freedom-metal/src/drivers/riscv_cpu.c:459 (discriminator 1)
20012bb0:	fec42703          	lw	a4,-20(s0)
20012bb4:	47fd                	li	a5,31
20012bb6:	fae7d7e3          	bge	a5,a4,20012b64 <__metal_driver_riscv_cpu_controller_interrupt_init+0x22>
/home/jubayer/Documents/riscV/EnergyHarvestingDeviceTestbed/FE310/blinky/freedom-metal/src/drivers/riscv_cpu.c:465
        }

        for (int i = 0; i < METAL_MAX_ME; i++) {
20012bba:	fe042423          	sw	zero,-24(s0)
20012bbe:	a01d                	j	20012be4 <__metal_driver_riscv_cpu_controller_interrupt_init+0xa2>
/home/jubayer/Documents/riscV/EnergyHarvestingDeviceTestbed/FE310/blinky/freedom-metal/src/drivers/riscv_cpu.c:466 (discriminator 3)
            intc->metal_exception_table[i] = __metal_default_exception_handler;
20012bc0:	fe442703          	lw	a4,-28(s0)
20012bc4:	fe842783          	lw	a5,-24(s0)
20012bc8:	0e878793          	addi	a5,a5,232
20012bcc:	078a                	slli	a5,a5,0x2
20012bce:	97ba                	add	a5,a5,a4
20012bd0:	20012737          	lui	a4,0x20012
20012bd4:	ace70713          	addi	a4,a4,-1330 # 20011ace <__metal_default_exception_handler>
20012bd8:	c398                	sw	a4,0(a5)
/home/jubayer/Documents/riscV/EnergyHarvestingDeviceTestbed/FE310/blinky/freedom-metal/src/drivers/riscv_cpu.c:465 (discriminator 3)
        for (int i = 0; i < METAL_MAX_ME; i++) {
20012bda:	fe842783          	lw	a5,-24(s0)
20012bde:	0785                	addi	a5,a5,1
20012be0:	fef42423          	sw	a5,-24(s0)
/home/jubayer/Documents/riscV/EnergyHarvestingDeviceTestbed/FE310/blinky/freedom-metal/src/drivers/riscv_cpu.c:465 (discriminator 1)
20012be4:	fe842703          	lw	a4,-24(s0)
20012be8:	47ad                	li	a5,11
20012bea:	fce7dbe3          	bge	a5,a4,20012bc0 <__metal_driver_riscv_cpu_controller_interrupt_init+0x7e>
/home/jubayer/Documents/riscV/EnergyHarvestingDeviceTestbed/FE310/blinky/freedom-metal/src/drivers/riscv_cpu.c:475
         * Set the real trap handler if the value of mtvec is equal to
         * early_trap_vector. If mtvec is not equal to early_trap_vector,
         * that means user has own trap handler, then we don't overwrite it.
         */
        uintptr_t mtvec;
        __asm__ volatile("csrr %0, mtvec" : "=r"(mtvec));
20012bee:	305027f3          	csrr	a5,mtvec
20012bf2:	fef42023          	sw	a5,-32(s0)
/home/jubayer/Documents/riscV/EnergyHarvestingDeviceTestbed/FE310/blinky/freedom-metal/src/drivers/riscv_cpu.c:476
        if (mtvec == (uintptr_t)&early_trap_vector) {
20012bf6:	200107b7          	lui	a5,0x20010
20012bfa:	13478793          	addi	a5,a5,308 # 20010134 <early_trap_vector>
20012bfe:	fe042703          	lw	a4,-32(s0)
20012c02:	00f71863          	bne	a4,a5,20012c12 <__metal_driver_riscv_cpu_controller_interrupt_init+0xd0>
/home/jubayer/Documents/riscV/EnergyHarvestingDeviceTestbed/FE310/blinky/freedom-metal/src/drivers/riscv_cpu.c:477
            __metal_controller_interrupt_vector(
20012c06:	200127b7          	lui	a5,0x20012
20012c0a:	d8078593          	addi	a1,a5,-640 # 20011d80 <__metal_exception_handler>
20012c0e:	4501                	li	a0,0
20012c10:	3b39                	jal	2001292e <__metal_controller_interrupt_vector>
/home/jubayer/Documents/riscV/EnergyHarvestingDeviceTestbed/FE310/blinky/freedom-metal/src/drivers/riscv_cpu.c:481
                METAL_DIRECT_MODE,
                (void *)(uintptr_t)&__metal_exception_handler);
        }
        intc->init_done = 1;
20012c12:	fe442783          	lw	a5,-28(s0)
20012c16:	4705                	li	a4,1
20012c18:	c3d8                	sw	a4,4(a5)
/home/jubayer/Documents/riscV/EnergyHarvestingDeviceTestbed/FE310/blinky/freedom-metal/src/drivers/riscv_cpu.c:483
    }
}
20012c1a:	0001                	nop
20012c1c:	50b2                	lw	ra,44(sp)
20012c1e:	5422                	lw	s0,40(sp)
20012c20:	6145                	addi	sp,sp,48
20012c22:	8082                	ret

20012c24 <__metal_driver_riscv_cpu_controller_interrupt_register>:
__metal_driver_riscv_cpu_controller_interrupt_register():
/home/jubayer/Documents/riscV/EnergyHarvestingDeviceTestbed/FE310/blinky/freedom-metal/src/drivers/riscv_cpu.c:487

int __metal_driver_riscv_cpu_controller_interrupt_register(
    struct metal_interrupt *controller, int id, metal_interrupt_handler_t isr,
    void *priv) {
20012c24:	7179                	addi	sp,sp,-48
20012c26:	d606                	sw	ra,44(sp)
20012c28:	d422                	sw	s0,40(sp)
20012c2a:	1800                	addi	s0,sp,48
20012c2c:	fca42e23          	sw	a0,-36(s0)
20012c30:	fcb42c23          	sw	a1,-40(s0)
20012c34:	fcc42a23          	sw	a2,-44(s0)
20012c38:	fcd42823          	sw	a3,-48(s0)
/home/jubayer/Documents/riscV/EnergyHarvestingDeviceTestbed/FE310/blinky/freedom-metal/src/drivers/riscv_cpu.c:488
    int rc = 0;
20012c3c:	fe042623          	sw	zero,-20(s0)
/home/jubayer/Documents/riscV/EnergyHarvestingDeviceTestbed/FE310/blinky/freedom-metal/src/drivers/riscv_cpu.c:489
    struct __metal_driver_riscv_cpu_intc *intc = (void *)(controller);
20012c40:	fdc42783          	lw	a5,-36(s0)
20012c44:	fef42423          	sw	a5,-24(s0)
/home/jubayer/Documents/riscV/EnergyHarvestingDeviceTestbed/FE310/blinky/freedom-metal/src/drivers/riscv_cpu.c:491

    if (!__metal_valid_interrupt_id(id)) {
20012c48:	fd842503          	lw	a0,-40(s0)
20012c4c:	3b51                	jal	200129e0 <__metal_valid_interrupt_id>
20012c4e:	87aa                	mv	a5,a0
20012c50:	e399                	bnez	a5,20012c56 <__metal_driver_riscv_cpu_controller_interrupt_register+0x32>
/home/jubayer/Documents/riscV/EnergyHarvestingDeviceTestbed/FE310/blinky/freedom-metal/src/drivers/riscv_cpu.c:492
        return -11;
20012c52:	57d5                	li	a5,-11
20012c54:	a25d                	j	20012dfa <__metal_driver_riscv_cpu_controller_interrupt_register+0x1d6>
/home/jubayer/Documents/riscV/EnergyHarvestingDeviceTestbed/FE310/blinky/freedom-metal/src/drivers/riscv_cpu.c:494
    }
    if ((id == METAL_INTERRUPT_ID_BEU) &&
20012c56:	fd842703          	lw	a4,-40(s0)
20012c5a:	08000793          	li	a5,128
20012c5e:	00f71763          	bne	a4,a5,20012c6c <__metal_driver_riscv_cpu_controller_interrupt_register+0x48>
/home/jubayer/Documents/riscV/EnergyHarvestingDeviceTestbed/FE310/blinky/freedom-metal/src/drivers/riscv_cpu.c:495 (discriminator 1)
        (__metal_controller_interrupt_vector_mode() != METAL_DIRECT_MODE)) {
20012c62:	3995                	jal	200128d6 <__metal_controller_interrupt_vector_mode>
20012c64:	87aa                	mv	a5,a0
/home/jubayer/Documents/riscV/EnergyHarvestingDeviceTestbed/FE310/blinky/freedom-metal/src/drivers/riscv_cpu.c:494 (discriminator 1)
    if ((id == METAL_INTERRUPT_ID_BEU) &&
20012c66:	c399                	beqz	a5,20012c6c <__metal_driver_riscv_cpu_controller_interrupt_register+0x48>
/home/jubayer/Documents/riscV/EnergyHarvestingDeviceTestbed/FE310/blinky/freedom-metal/src/drivers/riscv_cpu.c:498
        /* Only allow registration of the bus error unit interrupt if
         * interrupt vectoring if off */
        return -13;
20012c68:	57cd                	li	a5,-13
20012c6a:	aa41                	j	20012dfa <__metal_driver_riscv_cpu_controller_interrupt_register+0x1d6>
/home/jubayer/Documents/riscV/EnergyHarvestingDeviceTestbed/FE310/blinky/freedom-metal/src/drivers/riscv_cpu.c:501
    }

    if (isr) {
20012c6c:	fd442783          	lw	a5,-44(s0)
20012c70:	cfb9                	beqz	a5,20012cce <__metal_driver_riscv_cpu_controller_interrupt_register+0xaa>
/home/jubayer/Documents/riscV/EnergyHarvestingDeviceTestbed/FE310/blinky/freedom-metal/src/drivers/riscv_cpu.c:502
        if (id == METAL_INTERRUPT_ID_BEU) {
20012c72:	fd842703          	lw	a4,-40(s0)
20012c76:	08000793          	li	a5,128
20012c7a:	00f71f63          	bne	a4,a5,20012c98 <__metal_driver_riscv_cpu_controller_interrupt_register+0x74>
/home/jubayer/Documents/riscV/EnergyHarvestingDeviceTestbed/FE310/blinky/freedom-metal/src/drivers/riscv_cpu.c:503
            intc->metal_int_beu.handler = isr;
20012c7e:	fe842783          	lw	a5,-24(s0)
20012c82:	fd442703          	lw	a4,-44(s0)
20012c86:	38e7a823          	sw	a4,912(a5)
/home/jubayer/Documents/riscV/EnergyHarvestingDeviceTestbed/FE310/blinky/freedom-metal/src/drivers/riscv_cpu.c:504
            intc->metal_int_beu.exint_data = priv;
20012c8a:	fe842783          	lw	a5,-24(s0)
20012c8e:	fd042703          	lw	a4,-48(s0)
20012c92:	38e7ac23          	sw	a4,920(a5)
20012c96:	a285                	j	20012df6 <__metal_driver_riscv_cpu_controller_interrupt_register+0x1d2>
/home/jubayer/Documents/riscV/EnergyHarvestingDeviceTestbed/FE310/blinky/freedom-metal/src/drivers/riscv_cpu.c:506
        } else {
            intc->metal_int_table[id].handler = isr;
20012c98:	fe842683          	lw	a3,-24(s0)
20012c9c:	fd842703          	lw	a4,-40(s0)
20012ca0:	87ba                	mv	a5,a4
20012ca2:	0786                	slli	a5,a5,0x1
20012ca4:	97ba                	add	a5,a5,a4
20012ca6:	078e                	slli	a5,a5,0x3
20012ca8:	97b6                	add	a5,a5,a3
20012caa:	fd442703          	lw	a4,-44(s0)
20012cae:	08e7a823          	sw	a4,144(a5)
/home/jubayer/Documents/riscV/EnergyHarvestingDeviceTestbed/FE310/blinky/freedom-metal/src/drivers/riscv_cpu.c:507
            intc->metal_int_table[id].exint_data = priv;
20012cb2:	fe842683          	lw	a3,-24(s0)
20012cb6:	fd842703          	lw	a4,-40(s0)
20012cba:	87ba                	mv	a5,a4
20012cbc:	0786                	slli	a5,a5,0x1
20012cbe:	97ba                	add	a5,a5,a4
20012cc0:	078e                	slli	a5,a5,0x3
20012cc2:	97b6                	add	a5,a5,a3
20012cc4:	fd042703          	lw	a4,-48(s0)
20012cc8:	08e7ac23          	sw	a4,152(a5)
20012ccc:	a22d                	j	20012df6 <__metal_driver_riscv_cpu_controller_interrupt_register+0x1d2>
/home/jubayer/Documents/riscV/EnergyHarvestingDeviceTestbed/FE310/blinky/freedom-metal/src/drivers/riscv_cpu.c:510
        }
    } else {
        switch (id) {
20012cce:	fd842703          	lw	a4,-40(s0)
20012cd2:	08000793          	li	a5,128
20012cd6:	0cf70163          	beq	a4,a5,20012d98 <__metal_driver_riscv_cpu_controller_interrupt_register+0x174>
20012cda:	fd842703          	lw	a4,-40(s0)
20012cde:	08000793          	li	a5,128
20012ce2:	10e7c763          	blt	a5,a4,20012df0 <__metal_driver_riscv_cpu_controller_interrupt_register+0x1cc>
20012ce6:	fd842703          	lw	a4,-40(s0)
20012cea:	47fd                	li	a5,31
20012cec:	10e7c263          	blt	a5,a4,20012df0 <__metal_driver_riscv_cpu_controller_interrupt_register+0x1cc>
20012cf0:	fd842703          	lw	a4,-40(s0)
20012cf4:	47c1                	li	a5,16
20012cf6:	0cf75063          	bge	a4,a5,20012db6 <__metal_driver_riscv_cpu_controller_interrupt_register+0x192>
20012cfa:	fd842703          	lw	a4,-40(s0)
20012cfe:	47ad                	li	a5,11
20012d00:	0af70b63          	beq	a4,a5,20012db6 <__metal_driver_riscv_cpu_controller_interrupt_register+0x192>
20012d04:	fd842703          	lw	a4,-40(s0)
20012d08:	47ad                	li	a5,11
20012d0a:	0ee7c363          	blt	a5,a4,20012df0 <__metal_driver_riscv_cpu_controller_interrupt_register+0x1cc>
20012d0e:	fd842703          	lw	a4,-40(s0)
20012d12:	478d                	li	a5,3
20012d14:	00f70863          	beq	a4,a5,20012d24 <__metal_driver_riscv_cpu_controller_interrupt_register+0x100>
20012d18:	fd842703          	lw	a4,-40(s0)
20012d1c:	479d                	li	a5,7
20012d1e:	04f70063          	beq	a4,a5,20012d5e <__metal_driver_riscv_cpu_controller_interrupt_register+0x13a>
20012d22:	a0f9                	j	20012df0 <__metal_driver_riscv_cpu_controller_interrupt_register+0x1cc>
/home/jubayer/Documents/riscV/EnergyHarvestingDeviceTestbed/FE310/blinky/freedom-metal/src/drivers/riscv_cpu.c:512
        case METAL_INTERRUPT_ID_SW:
            intc->metal_int_table[id].handler = __metal_default_sw_handler;
20012d24:	fe842683          	lw	a3,-24(s0)
20012d28:	fd842703          	lw	a4,-40(s0)
20012d2c:	87ba                	mv	a5,a4
20012d2e:	0786                	slli	a5,a5,0x1
20012d30:	97ba                	add	a5,a5,a4
20012d32:	078e                	slli	a5,a5,0x3
20012d34:	97b6                	add	a5,a5,a3
20012d36:	20012737          	lui	a4,0x20012
20012d3a:	bbe70713          	addi	a4,a4,-1090 # 20011bbe <__metal_default_sw_handler>
20012d3e:	08e7a823          	sw	a4,144(a5)
/home/jubayer/Documents/riscV/EnergyHarvestingDeviceTestbed/FE310/blinky/freedom-metal/src/drivers/riscv_cpu.c:513
            intc->metal_int_table[id].sub_int = priv;
20012d42:	fe842683          	lw	a3,-24(s0)
20012d46:	fd842703          	lw	a4,-40(s0)
20012d4a:	87ba                	mv	a5,a4
20012d4c:	0786                	slli	a5,a5,0x1
20012d4e:	97ba                	add	a5,a5,a4
20012d50:	078e                	slli	a5,a5,0x3
20012d52:	97b6                	add	a5,a5,a3
20012d54:	fd042703          	lw	a4,-48(s0)
20012d58:	08e7aa23          	sw	a4,148(a5)
/home/jubayer/Documents/riscV/EnergyHarvestingDeviceTestbed/FE310/blinky/freedom-metal/src/drivers/riscv_cpu.c:514
            break;
20012d5c:	a869                	j	20012df6 <__metal_driver_riscv_cpu_controller_interrupt_register+0x1d2>
/home/jubayer/Documents/riscV/EnergyHarvestingDeviceTestbed/FE310/blinky/freedom-metal/src/drivers/riscv_cpu.c:516
        case METAL_INTERRUPT_ID_TMR:
            intc->metal_int_table[id].handler = __metal_default_timer_handler;
20012d5e:	fe842683          	lw	a3,-24(s0)
20012d62:	fd842703          	lw	a4,-40(s0)
20012d66:	87ba                	mv	a5,a4
20012d68:	0786                	slli	a5,a5,0x1
20012d6a:	97ba                	add	a5,a5,a4
20012d6c:	078e                	slli	a5,a5,0x3
20012d6e:	97b6                	add	a5,a5,a3
20012d70:	20012737          	lui	a4,0x20012
20012d74:	cce70713          	addi	a4,a4,-818 # 20011cce <__metal_default_timer_handler>
20012d78:	08e7a823          	sw	a4,144(a5)
/home/jubayer/Documents/riscV/EnergyHarvestingDeviceTestbed/FE310/blinky/freedom-metal/src/drivers/riscv_cpu.c:517
            intc->metal_int_table[id].sub_int = priv;
20012d7c:	fe842683          	lw	a3,-24(s0)
20012d80:	fd842703          	lw	a4,-40(s0)
20012d84:	87ba                	mv	a5,a4
20012d86:	0786                	slli	a5,a5,0x1
20012d88:	97ba                	add	a5,a5,a4
20012d8a:	078e                	slli	a5,a5,0x3
20012d8c:	97b6                	add	a5,a5,a3
20012d8e:	fd042703          	lw	a4,-48(s0)
20012d92:	08e7aa23          	sw	a4,148(a5)
/home/jubayer/Documents/riscV/EnergyHarvestingDeviceTestbed/FE310/blinky/freedom-metal/src/drivers/riscv_cpu.c:518
            break;
20012d96:	a085                	j	20012df6 <__metal_driver_riscv_cpu_controller_interrupt_register+0x1d2>
/home/jubayer/Documents/riscV/EnergyHarvestingDeviceTestbed/FE310/blinky/freedom-metal/src/drivers/riscv_cpu.c:520
        case METAL_INTERRUPT_ID_BEU:
            intc->metal_int_beu.handler = __metal_default_beu_handler;
20012d98:	fe842783          	lw	a5,-24(s0)
20012d9c:	20012737          	lui	a4,0x20012
20012da0:	cb870713          	addi	a4,a4,-840 # 20011cb8 <__metal_default_beu_handler>
20012da4:	38e7a823          	sw	a4,912(a5)
/home/jubayer/Documents/riscV/EnergyHarvestingDeviceTestbed/FE310/blinky/freedom-metal/src/drivers/riscv_cpu.c:521
            intc->metal_int_beu.exint_data = priv;
20012da8:	fe842783          	lw	a5,-24(s0)
20012dac:	fd042703          	lw	a4,-48(s0)
20012db0:	38e7ac23          	sw	a4,920(a5)
/home/jubayer/Documents/riscV/EnergyHarvestingDeviceTestbed/FE310/blinky/freedom-metal/src/drivers/riscv_cpu.c:522
            break;
20012db4:	a089                	j	20012df6 <__metal_driver_riscv_cpu_controller_interrupt_register+0x1d2>
/home/jubayer/Documents/riscV/EnergyHarvestingDeviceTestbed/FE310/blinky/freedom-metal/src/drivers/riscv_cpu.c:540
        case METAL_INTERRUPT_ID_LC11:
        case METAL_INTERRUPT_ID_LC12:
        case METAL_INTERRUPT_ID_LC13:
        case METAL_INTERRUPT_ID_LC14:
        case METAL_INTERRUPT_ID_LC15:
            intc->metal_int_table[id].handler =
20012db6:	fe842683          	lw	a3,-24(s0)
20012dba:	fd842703          	lw	a4,-40(s0)
20012dbe:	87ba                	mv	a5,a4
20012dc0:	0786                	slli	a5,a5,0x1
20012dc2:	97ba                	add	a5,a5,a4
20012dc4:	078e                	slli	a5,a5,0x3
20012dc6:	97b6                	add	a5,a5,a3
20012dc8:	20012737          	lui	a4,0x20012
20012dcc:	ae670713          	addi	a4,a4,-1306 # 20011ae6 <__metal_default_interrupt_handler>
20012dd0:	08e7a823          	sw	a4,144(a5)
/home/jubayer/Documents/riscV/EnergyHarvestingDeviceTestbed/FE310/blinky/freedom-metal/src/drivers/riscv_cpu.c:542
                __metal_default_interrupt_handler;
            intc->metal_int_table[id].sub_int = priv;
20012dd4:	fe842683          	lw	a3,-24(s0)
20012dd8:	fd842703          	lw	a4,-40(s0)
20012ddc:	87ba                	mv	a5,a4
20012dde:	0786                	slli	a5,a5,0x1
20012de0:	97ba                	add	a5,a5,a4
20012de2:	078e                	slli	a5,a5,0x3
20012de4:	97b6                	add	a5,a5,a3
20012de6:	fd042703          	lw	a4,-48(s0)
20012dea:	08e7aa23          	sw	a4,148(a5)
/home/jubayer/Documents/riscV/EnergyHarvestingDeviceTestbed/FE310/blinky/freedom-metal/src/drivers/riscv_cpu.c:543
            break;
20012dee:	a021                	j	20012df6 <__metal_driver_riscv_cpu_controller_interrupt_register+0x1d2>
/home/jubayer/Documents/riscV/EnergyHarvestingDeviceTestbed/FE310/blinky/freedom-metal/src/drivers/riscv_cpu.c:545
        default:
            rc = -12;
20012df0:	57d1                	li	a5,-12
20012df2:	fef42623          	sw	a5,-20(s0)
/home/jubayer/Documents/riscV/EnergyHarvestingDeviceTestbed/FE310/blinky/freedom-metal/src/drivers/riscv_cpu.c:548
        }
    }
    return rc;
20012df6:	fec42783          	lw	a5,-20(s0)
/home/jubayer/Documents/riscV/EnergyHarvestingDeviceTestbed/FE310/blinky/freedom-metal/src/drivers/riscv_cpu.c:549
}
20012dfa:	853e                	mv	a0,a5
20012dfc:	50b2                	lw	ra,44(sp)
20012dfe:	5422                	lw	s0,40(sp)
20012e00:	6145                	addi	sp,sp,48
20012e02:	8082                	ret

20012e04 <__metal_driver_riscv_cpu_controller_interrupt_enable>:
__metal_driver_riscv_cpu_controller_interrupt_enable():
/home/jubayer/Documents/riscV/EnergyHarvestingDeviceTestbed/FE310/blinky/freedom-metal/src/drivers/riscv_cpu.c:552

int __metal_driver_riscv_cpu_controller_interrupt_enable(
    struct metal_interrupt *controller, int id) {
20012e04:	1101                	addi	sp,sp,-32
20012e06:	ce06                	sw	ra,28(sp)
20012e08:	cc22                	sw	s0,24(sp)
20012e0a:	1000                	addi	s0,sp,32
20012e0c:	fea42623          	sw	a0,-20(s0)
20012e10:	feb42423          	sw	a1,-24(s0)
/home/jubayer/Documents/riscV/EnergyHarvestingDeviceTestbed/FE310/blinky/freedom-metal/src/drivers/riscv_cpu.c:553
    return __metal_local_interrupt_enable(controller, id, METAL_ENABLE);
20012e14:	fe842783          	lw	a5,-24(s0)
20012e18:	4605                	li	a2,1
20012e1a:	85be                	mv	a1,a5
20012e1c:	fec42503          	lw	a0,-20(s0)
20012e20:	3921                	jal	20012a38 <__metal_local_interrupt_enable>
20012e22:	87aa                	mv	a5,a0
/home/jubayer/Documents/riscV/EnergyHarvestingDeviceTestbed/FE310/blinky/freedom-metal/src/drivers/riscv_cpu.c:554
}
20012e24:	853e                	mv	a0,a5
20012e26:	40f2                	lw	ra,28(sp)
20012e28:	4462                	lw	s0,24(sp)
20012e2a:	6105                	addi	sp,sp,32
20012e2c:	8082                	ret

20012e2e <__metal_driver_riscv_cpu_controller_interrupt_disable>:
__metal_driver_riscv_cpu_controller_interrupt_disable():
/home/jubayer/Documents/riscV/EnergyHarvestingDeviceTestbed/FE310/blinky/freedom-metal/src/drivers/riscv_cpu.c:557

int __metal_driver_riscv_cpu_controller_interrupt_disable(
    struct metal_interrupt *controller, int id) {
20012e2e:	1101                	addi	sp,sp,-32
20012e30:	ce06                	sw	ra,28(sp)
20012e32:	cc22                	sw	s0,24(sp)
20012e34:	1000                	addi	s0,sp,32
20012e36:	fea42623          	sw	a0,-20(s0)
20012e3a:	feb42423          	sw	a1,-24(s0)
/home/jubayer/Documents/riscV/EnergyHarvestingDeviceTestbed/FE310/blinky/freedom-metal/src/drivers/riscv_cpu.c:558
    return __metal_local_interrupt_enable(controller, id, METAL_DISABLE);
20012e3e:	fe842783          	lw	a5,-24(s0)
20012e42:	4601                	li	a2,0
20012e44:	85be                	mv	a1,a5
20012e46:	fec42503          	lw	a0,-20(s0)
20012e4a:	36fd                	jal	20012a38 <__metal_local_interrupt_enable>
20012e4c:	87aa                	mv	a5,a0
/home/jubayer/Documents/riscV/EnergyHarvestingDeviceTestbed/FE310/blinky/freedom-metal/src/drivers/riscv_cpu.c:559
}
20012e4e:	853e                	mv	a0,a5
20012e50:	40f2                	lw	ra,28(sp)
20012e52:	4462                	lw	s0,24(sp)
20012e54:	6105                	addi	sp,sp,32
20012e56:	8082                	ret

20012e58 <__metal_driver_riscv_cpu_controller_get_vector_mode>:
__metal_driver_riscv_cpu_controller_get_vector_mode():
/home/jubayer/Documents/riscV/EnergyHarvestingDeviceTestbed/FE310/blinky/freedom-metal/src/drivers/riscv_cpu.c:591
    }
    return -1;
}

metal_vector_mode __metal_driver_riscv_cpu_controller_get_vector_mode(
    struct metal_interrupt *controller) {
20012e58:	1101                	addi	sp,sp,-32
20012e5a:	ce06                	sw	ra,28(sp)
20012e5c:	cc22                	sw	s0,24(sp)
20012e5e:	1000                	addi	s0,sp,32
20012e60:	fea42623          	sw	a0,-20(s0)
/home/jubayer/Documents/riscV/EnergyHarvestingDeviceTestbed/FE310/blinky/freedom-metal/src/drivers/riscv_cpu.c:592
    return __metal_controller_interrupt_vector_mode();
20012e64:	3c8d                	jal	200128d6 <__metal_controller_interrupt_vector_mode>
20012e66:	87aa                	mv	a5,a0
/home/jubayer/Documents/riscV/EnergyHarvestingDeviceTestbed/FE310/blinky/freedom-metal/src/drivers/riscv_cpu.c:593
}
20012e68:	853e                	mv	a0,a5
20012e6a:	40f2                	lw	ra,28(sp)
20012e6c:	4462                	lw	s0,24(sp)
20012e6e:	6105                	addi	sp,sp,32
20012e70:	8082                	ret

20012e72 <__metal_driver_riscv_cpu_controller_set_vector_mode>:
__metal_driver_riscv_cpu_controller_set_vector_mode():
/home/jubayer/Documents/riscV/EnergyHarvestingDeviceTestbed/FE310/blinky/freedom-metal/src/drivers/riscv_cpu.c:596

int __metal_driver_riscv_cpu_controller_set_vector_mode(
    struct metal_interrupt *controller, metal_vector_mode mode) {
20012e72:	1101                	addi	sp,sp,-32
20012e74:	ce06                	sw	ra,28(sp)
20012e76:	cc22                	sw	s0,24(sp)
20012e78:	1000                	addi	s0,sp,32
20012e7a:	fea42623          	sw	a0,-20(s0)
20012e7e:	feb42423          	sw	a1,-24(s0)
/home/jubayer/Documents/riscV/EnergyHarvestingDeviceTestbed/FE310/blinky/freedom-metal/src/drivers/riscv_cpu.c:598

    if (mode == METAL_DIRECT_MODE) {
20012e82:	fe842783          	lw	a5,-24(s0)
20012e86:	eb91                	bnez	a5,20012e9a <__metal_driver_riscv_cpu_controller_set_vector_mode+0x28>
/home/jubayer/Documents/riscV/EnergyHarvestingDeviceTestbed/FE310/blinky/freedom-metal/src/drivers/riscv_cpu.c:599
        __metal_controller_interrupt_vector(
20012e88:	200127b7          	lui	a5,0x20012
20012e8c:	d8078593          	addi	a1,a5,-640 # 20011d80 <__metal_exception_handler>
20012e90:	fe842503          	lw	a0,-24(s0)
20012e94:	3c69                	jal	2001292e <__metal_controller_interrupt_vector>
/home/jubayer/Documents/riscV/EnergyHarvestingDeviceTestbed/FE310/blinky/freedom-metal/src/drivers/riscv_cpu.c:601
            mode, (void *)(uintptr_t)&__metal_exception_handler);
        return 0;
20012e96:	4781                	li	a5,0
20012e98:	a005                	j	20012eb8 <__metal_driver_riscv_cpu_controller_set_vector_mode+0x46>
/home/jubayer/Documents/riscV/EnergyHarvestingDeviceTestbed/FE310/blinky/freedom-metal/src/drivers/riscv_cpu.c:603
    }
    if (mode == METAL_VECTOR_MODE) {
20012e9a:	fe842703          	lw	a4,-24(s0)
20012e9e:	4785                	li	a5,1
20012ea0:	00f71b63          	bne	a4,a5,20012eb6 <__metal_driver_riscv_cpu_controller_set_vector_mode+0x44>
/home/jubayer/Documents/riscV/EnergyHarvestingDeviceTestbed/FE310/blinky/freedom-metal/src/drivers/riscv_cpu.c:604
        __metal_controller_interrupt_vector(
20012ea4:	200157b7          	lui	a5,0x20015
20012ea8:	10078593          	addi	a1,a5,256 # 20015100 <__metal_vector_table>
20012eac:	fe842503          	lw	a0,-24(s0)
20012eb0:	3cbd                	jal	2001292e <__metal_controller_interrupt_vector>
/home/jubayer/Documents/riscV/EnergyHarvestingDeviceTestbed/FE310/blinky/freedom-metal/src/drivers/riscv_cpu.c:606
            mode, (void *)(uintptr_t)__metal_vector_table);
        return 0;
20012eb2:	4781                	li	a5,0
20012eb4:	a011                	j	20012eb8 <__metal_driver_riscv_cpu_controller_set_vector_mode+0x46>
/home/jubayer/Documents/riscV/EnergyHarvestingDeviceTestbed/FE310/blinky/freedom-metal/src/drivers/riscv_cpu.c:608
    }
    return -1;
20012eb6:	57fd                	li	a5,-1
/home/jubayer/Documents/riscV/EnergyHarvestingDeviceTestbed/FE310/blinky/freedom-metal/src/drivers/riscv_cpu.c:609
}
20012eb8:	853e                	mv	a0,a5
20012eba:	40f2                	lw	ra,28(sp)
20012ebc:	4462                	lw	s0,24(sp)
20012ebe:	6105                	addi	sp,sp,32
20012ec0:	8082                	ret

20012ec2 <__metal_driver_riscv_cpu_controller_command_request>:
__metal_driver_riscv_cpu_controller_command_request():
/home/jubayer/Documents/riscV/EnergyHarvestingDeviceTestbed/FE310/blinky/freedom-metal/src/drivers/riscv_cpu.c:612

int __metal_driver_riscv_cpu_controller_command_request(
    struct metal_interrupt *controller, int cmd, void *data) {
20012ec2:	1101                	addi	sp,sp,-32
20012ec4:	ce22                	sw	s0,28(sp)
20012ec6:	1000                	addi	s0,sp,32
20012ec8:	fea42623          	sw	a0,-20(s0)
20012ecc:	feb42423          	sw	a1,-24(s0)
20012ed0:	fec42223          	sw	a2,-28(s0)
/home/jubayer/Documents/riscV/EnergyHarvestingDeviceTestbed/FE310/blinky/freedom-metal/src/drivers/riscv_cpu.c:615
    /* NOP for now, unless local interrupt lines the like of clic, clint, plic
     */
    return 0;
20012ed4:	4781                	li	a5,0
/home/jubayer/Documents/riscV/EnergyHarvestingDeviceTestbed/FE310/blinky/freedom-metal/src/drivers/riscv_cpu.c:616
}
20012ed6:	853e                	mv	a0,a5
20012ed8:	4472                	lw	s0,28(sp)
20012eda:	6105                	addi	sp,sp,32
20012edc:	8082                	ret

20012ede <__metal_driver_cpu_mcycle_get>:
__metal_driver_cpu_mcycle_get():
/home/jubayer/Documents/riscV/EnergyHarvestingDeviceTestbed/FE310/blinky/freedom-metal/src/drivers/riscv_cpu.c:620

/* CPU driver !!! */

unsigned long long __metal_driver_cpu_mcycle_get(struct metal_cpu *cpu) {
20012ede:	7139                	addi	sp,sp,-64
20012ee0:	de22                	sw	s0,60(sp)
20012ee2:	0080                	addi	s0,sp,64
20012ee4:	fca42623          	sw	a0,-52(s0)
/home/jubayer/Documents/riscV/EnergyHarvestingDeviceTestbed/FE310/blinky/freedom-metal/src/drivers/riscv_cpu.c:621
    unsigned long long val = 0;
20012ee8:	4501                	li	a0,0
20012eea:	4581                	li	a1,0
20012eec:	fea42423          	sw	a0,-24(s0)
20012ef0:	feb42623          	sw	a1,-20(s0)
/home/jubayer/Documents/riscV/EnergyHarvestingDeviceTestbed/FE310/blinky/freedom-metal/src/drivers/riscv_cpu.c:627 (discriminator 1)

#if __riscv_xlen == 32
    unsigned long hi, hi1, lo;

    do {
        __asm__ volatile("csrr %0, mcycleh" : "=r"(hi));
20012ef4:	b80025f3          	csrr	a1,mcycleh
20012ef8:	feb42223          	sw	a1,-28(s0)
/home/jubayer/Documents/riscV/EnergyHarvestingDeviceTestbed/FE310/blinky/freedom-metal/src/drivers/riscv_cpu.c:628 (discriminator 1)
        __asm__ volatile("csrr %0, mcycle" : "=r"(lo));
20012efc:	b00025f3          	csrr	a1,mcycle
20012f00:	feb42023          	sw	a1,-32(s0)
/home/jubayer/Documents/riscV/EnergyHarvestingDeviceTestbed/FE310/blinky/freedom-metal/src/drivers/riscv_cpu.c:629 (discriminator 1)
        __asm__ volatile("csrr %0, mcycleh" : "=r"(hi1));
20012f04:	b80025f3          	csrr	a1,mcycleh
20012f08:	fcb42e23          	sw	a1,-36(s0)
/home/jubayer/Documents/riscV/EnergyHarvestingDeviceTestbed/FE310/blinky/freedom-metal/src/drivers/riscv_cpu.c:632 (discriminator 1)
        /* hi != hi1 means mcycle overflow during we get value,
         * so we must retry. */
    } while (hi != hi1);
20012f0c:	fe442503          	lw	a0,-28(s0)
20012f10:	fdc42583          	lw	a1,-36(s0)
20012f14:	feb510e3          	bne	a0,a1,20012ef4 <__metal_driver_cpu_mcycle_get+0x16>
/home/jubayer/Documents/riscV/EnergyHarvestingDeviceTestbed/FE310/blinky/freedom-metal/src/drivers/riscv_cpu.c:634

    val = ((unsigned long long)hi << 32) | lo;
20012f18:	fe442583          	lw	a1,-28(s0)
20012f1c:	882e                	mv	a6,a1
20012f1e:	4881                	li	a7,0
20012f20:	00081793          	slli	a5,a6,0x0
20012f24:	4701                	li	a4,0
20012f26:	fe042583          	lw	a1,-32(s0)
20012f2a:	862e                	mv	a2,a1
20012f2c:	4681                	li	a3,0
20012f2e:	00c765b3          	or	a1,a4,a2
20012f32:	feb42423          	sw	a1,-24(s0)
20012f36:	8fd5                	or	a5,a5,a3
20012f38:	fef42623          	sw	a5,-20(s0)
/home/jubayer/Documents/riscV/EnergyHarvestingDeviceTestbed/FE310/blinky/freedom-metal/src/drivers/riscv_cpu.c:639
#else
    __asm__ volatile("csrr %0, mcycle" : "=r"(val));
#endif

    return val;
20012f3c:	fe842703          	lw	a4,-24(s0)
20012f40:	fec42783          	lw	a5,-20(s0)
/home/jubayer/Documents/riscV/EnergyHarvestingDeviceTestbed/FE310/blinky/freedom-metal/src/drivers/riscv_cpu.c:640
}
20012f44:	853a                	mv	a0,a4
20012f46:	85be                	mv	a1,a5
20012f48:	5472                	lw	s0,60(sp)
20012f4a:	6121                	addi	sp,sp,64
20012f4c:	8082                	ret

20012f4e <__metal_driver_cpu_timebase_get>:
__metal_driver_cpu_timebase_get():
/home/jubayer/Documents/riscV/EnergyHarvestingDeviceTestbed/FE310/blinky/freedom-metal/src/drivers/riscv_cpu.c:642

unsigned long long __metal_driver_cpu_timebase_get(struct metal_cpu *cpu) {
20012f4e:	7179                	addi	sp,sp,-48
20012f50:	d606                	sw	ra,44(sp)
20012f52:	d422                	sw	s0,40(sp)
20012f54:	d24a                	sw	s2,36(sp)
20012f56:	d04e                	sw	s3,32(sp)
20012f58:	1800                	addi	s0,sp,48
20012f5a:	fca42e23          	sw	a0,-36(s0)
/home/jubayer/Documents/riscV/EnergyHarvestingDeviceTestbed/FE310/blinky/freedom-metal/src/drivers/riscv_cpu.c:644
    int timebase;
    if (!cpu) {
20012f5e:	fdc42783          	lw	a5,-36(s0)
20012f62:	e781                	bnez	a5,20012f6a <__metal_driver_cpu_timebase_get+0x1c>
/home/jubayer/Documents/riscV/EnergyHarvestingDeviceTestbed/FE310/blinky/freedom-metal/src/drivers/riscv_cpu.c:645
        return 0;
20012f64:	4901                	li	s2,0
20012f66:	4981                	li	s3,0
20012f68:	a821                	j	20012f80 <__metal_driver_cpu_timebase_get+0x32>
/home/jubayer/Documents/riscV/EnergyHarvestingDeviceTestbed/FE310/blinky/freedom-metal/src/drivers/riscv_cpu.c:648
    }

    timebase = __metal_driver_cpu_timebase((struct metal_cpu *)cpu);
20012f6a:	fdc42503          	lw	a0,-36(s0)
20012f6e:	97bfe0ef          	jal	ra,200118e8 <__metal_driver_cpu_timebase>
20012f72:	fea42623          	sw	a0,-20(s0)
/home/jubayer/Documents/riscV/EnergyHarvestingDeviceTestbed/FE310/blinky/freedom-metal/src/drivers/riscv_cpu.c:649
    return timebase;
20012f76:	fec42783          	lw	a5,-20(s0)
20012f7a:	893e                	mv	s2,a5
20012f7c:	87fd                	srai	a5,a5,0x1f
20012f7e:	89be                	mv	s3,a5
/home/jubayer/Documents/riscV/EnergyHarvestingDeviceTestbed/FE310/blinky/freedom-metal/src/drivers/riscv_cpu.c:650
}
20012f80:	874a                	mv	a4,s2
20012f82:	87ce                	mv	a5,s3
20012f84:	853a                	mv	a0,a4
20012f86:	85be                	mv	a1,a5
20012f88:	50b2                	lw	ra,44(sp)
20012f8a:	5422                	lw	s0,40(sp)
20012f8c:	5912                	lw	s2,36(sp)
20012f8e:	5982                	lw	s3,32(sp)
20012f90:	6145                	addi	sp,sp,48
20012f92:	8082                	ret

20012f94 <__metal_driver_cpu_mtime_get>:
__metal_driver_cpu_mtime_get():
/home/jubayer/Documents/riscV/EnergyHarvestingDeviceTestbed/FE310/blinky/freedom-metal/src/drivers/riscv_cpu.c:652

unsigned long long __metal_driver_cpu_mtime_get(struct metal_cpu *cpu) {
20012f94:	7179                	addi	sp,sp,-48
20012f96:	d606                	sw	ra,44(sp)
20012f98:	d422                	sw	s0,40(sp)
20012f9a:	1800                	addi	s0,sp,48
20012f9c:	fca42e23          	sw	a0,-36(s0)
/home/jubayer/Documents/riscV/EnergyHarvestingDeviceTestbed/FE310/blinky/freedom-metal/src/drivers/riscv_cpu.c:653
    unsigned long long time = 0;
20012fa0:	4781                	li	a5,0
20012fa2:	4801                	li	a6,0
20012fa4:	fef42023          	sw	a5,-32(s0)
20012fa8:	ff042223          	sw	a6,-28(s0)
/home/jubayer/Documents/riscV/EnergyHarvestingDeviceTestbed/FE310/blinky/freedom-metal/src/drivers/riscv_cpu.c:657
    struct metal_interrupt *tmr_intc;
    struct __metal_driver_riscv_cpu_intc *intc =
        (struct __metal_driver_riscv_cpu_intc *)
            __metal_driver_cpu_interrupt_controller(cpu);
20012fac:	fdc42503          	lw	a0,-36(s0)
20012fb0:	963fe0ef          	jal	ra,20011912 <__metal_driver_cpu_interrupt_controller>
20012fb4:	fea42623          	sw	a0,-20(s0)
/home/jubayer/Documents/riscV/EnergyHarvestingDeviceTestbed/FE310/blinky/freedom-metal/src/drivers/riscv_cpu.c:659

    if (intc) {
20012fb8:	fec42783          	lw	a5,-20(s0)
20012fbc:	c78d                	beqz	a5,20012fe6 <__metal_driver_cpu_mtime_get+0x52>
/home/jubayer/Documents/riscV/EnergyHarvestingDeviceTestbed/FE310/blinky/freedom-metal/src/drivers/riscv_cpu.c:660
        tmr_intc = intc->metal_int_table[METAL_INTERRUPT_ID_TMR].sub_int;
20012fbe:	fec42783          	lw	a5,-20(s0)
20012fc2:	13c7a783          	lw	a5,316(a5)
20012fc6:	fef42423          	sw	a5,-24(s0)
/home/jubayer/Documents/riscV/EnergyHarvestingDeviceTestbed/FE310/blinky/freedom-metal/src/drivers/riscv_cpu.c:661
        if (tmr_intc) {
20012fca:	fe842783          	lw	a5,-24(s0)
20012fce:	cf81                	beqz	a5,20012fe6 <__metal_driver_cpu_mtime_get+0x52>
/home/jubayer/Documents/riscV/EnergyHarvestingDeviceTestbed/FE310/blinky/freedom-metal/src/drivers/riscv_cpu.c:662
            tmr_intc->vtable->command_request(tmr_intc, METAL_TIMER_MTIME_GET,
20012fd0:	fe842783          	lw	a5,-24(s0)
20012fd4:	439c                	lw	a5,0(a5)
20012fd6:	47f8                	lw	a4,76(a5)
20012fd8:	fe040793          	addi	a5,s0,-32
20012fdc:	863e                	mv	a2,a5
20012fde:	4585                	li	a1,1
20012fe0:	fe842503          	lw	a0,-24(s0)
20012fe4:	9702                	jalr	a4
/home/jubayer/Documents/riscV/EnergyHarvestingDeviceTestbed/FE310/blinky/freedom-metal/src/drivers/riscv_cpu.c:666
                                              &time);
        }
    }
    return time;
20012fe6:	fe042703          	lw	a4,-32(s0)
20012fea:	fe442783          	lw	a5,-28(s0)
/home/jubayer/Documents/riscV/EnergyHarvestingDeviceTestbed/FE310/blinky/freedom-metal/src/drivers/riscv_cpu.c:667
}
20012fee:	853a                	mv	a0,a4
20012ff0:	85be                	mv	a1,a5
20012ff2:	50b2                	lw	ra,44(sp)
20012ff4:	5422                	lw	s0,40(sp)
20012ff6:	6145                	addi	sp,sp,48
20012ff8:	8082                	ret

20012ffa <__metal_driver_cpu_mtimecmp_set>:
__metal_driver_cpu_mtimecmp_set():
/home/jubayer/Documents/riscV/EnergyHarvestingDeviceTestbed/FE310/blinky/freedom-metal/src/drivers/riscv_cpu.c:670

int __metal_driver_cpu_mtimecmp_set(struct metal_cpu *cpu,
                                    unsigned long long time) {
20012ffa:	7179                	addi	sp,sp,-48
20012ffc:	d606                	sw	ra,44(sp)
20012ffe:	d422                	sw	s0,40(sp)
20013000:	d226                	sw	s1,36(sp)
20013002:	1800                	addi	s0,sp,48
20013004:	fca42e23          	sw	a0,-36(s0)
20013008:	fcb42823          	sw	a1,-48(s0)
2001300c:	fcc42a23          	sw	a2,-44(s0)
/home/jubayer/Documents/riscV/EnergyHarvestingDeviceTestbed/FE310/blinky/freedom-metal/src/drivers/riscv_cpu.c:671
    int rc = -1;
20013010:	57fd                	li	a5,-1
20013012:	fef42623          	sw	a5,-20(s0)
/home/jubayer/Documents/riscV/EnergyHarvestingDeviceTestbed/FE310/blinky/freedom-metal/src/drivers/riscv_cpu.c:675
    struct metal_interrupt *tmr_intc;
    struct __metal_driver_riscv_cpu_intc *intc =
        (struct __metal_driver_riscv_cpu_intc *)
            __metal_driver_cpu_interrupt_controller(cpu);
20013016:	fdc42503          	lw	a0,-36(s0)
2001301a:	8f9fe0ef          	jal	ra,20011912 <__metal_driver_cpu_interrupt_controller>
2001301e:	fea42423          	sw	a0,-24(s0)
/home/jubayer/Documents/riscV/EnergyHarvestingDeviceTestbed/FE310/blinky/freedom-metal/src/drivers/riscv_cpu.c:677

    if (intc) {
20013022:	fe842783          	lw	a5,-24(s0)
20013026:	cf8d                	beqz	a5,20013060 <__metal_driver_cpu_mtimecmp_set+0x66>
/home/jubayer/Documents/riscV/EnergyHarvestingDeviceTestbed/FE310/blinky/freedom-metal/src/drivers/riscv_cpu.c:678
        tmr_intc = intc->metal_int_table[METAL_INTERRUPT_ID_TMR].sub_int;
20013028:	fe842783          	lw	a5,-24(s0)
2001302c:	13c7a783          	lw	a5,316(a5)
20013030:	fef42223          	sw	a5,-28(s0)
/home/jubayer/Documents/riscV/EnergyHarvestingDeviceTestbed/FE310/blinky/freedom-metal/src/drivers/riscv_cpu.c:679
        if (tmr_intc) {
20013034:	fe442783          	lw	a5,-28(s0)
20013038:	c785                	beqz	a5,20013060 <__metal_driver_cpu_mtimecmp_set+0x66>
/home/jubayer/Documents/riscV/EnergyHarvestingDeviceTestbed/FE310/blinky/freedom-metal/src/drivers/riscv_cpu.c:680
            rc = tmr_intc->vtable->mtimecmp_set(
2001303a:	fe442783          	lw	a5,-28(s0)
2001303e:	439c                	lw	a5,0(a5)
20013040:	4ba4                	lw	s1,80(a5)
20013042:	fdc42503          	lw	a0,-36(s0)
20013046:	87ffe0ef          	jal	ra,200118c4 <__metal_driver_cpu_hartid>
2001304a:	87aa                	mv	a5,a0
2001304c:	fd042603          	lw	a2,-48(s0)
20013050:	fd442683          	lw	a3,-44(s0)
20013054:	85be                	mv	a1,a5
20013056:	fe442503          	lw	a0,-28(s0)
2001305a:	9482                	jalr	s1
2001305c:	fea42623          	sw	a0,-20(s0)
/home/jubayer/Documents/riscV/EnergyHarvestingDeviceTestbed/FE310/blinky/freedom-metal/src/drivers/riscv_cpu.c:684
                tmr_intc, __metal_driver_cpu_hartid(cpu), time);
        }
    }
    return rc;
20013060:	fec42783          	lw	a5,-20(s0)
/home/jubayer/Documents/riscV/EnergyHarvestingDeviceTestbed/FE310/blinky/freedom-metal/src/drivers/riscv_cpu.c:685
}
20013064:	853e                	mv	a0,a5
20013066:	50b2                	lw	ra,44(sp)
20013068:	5422                	lw	s0,40(sp)
2001306a:	5492                	lw	s1,36(sp)
2001306c:	6145                	addi	sp,sp,48
2001306e:	8082                	ret

20013070 <__metal_driver_cpu_timer_controller_interrupt>:
__metal_driver_cpu_timer_controller_interrupt():
/home/jubayer/Documents/riscV/EnergyHarvestingDeviceTestbed/FE310/blinky/freedom-metal/src/drivers/riscv_cpu.c:688

struct metal_interrupt *
__metal_driver_cpu_timer_controller_interrupt(struct metal_cpu *cpu) {
20013070:	1101                	addi	sp,sp,-32
20013072:	ce22                	sw	s0,28(sp)
20013074:	1000                	addi	s0,sp,32
20013076:	fea42623          	sw	a0,-20(s0)
/home/jubayer/Documents/riscV/EnergyHarvestingDeviceTestbed/FE310/blinky/freedom-metal/src/drivers/riscv_cpu.c:690
#ifdef __METAL_DT_RISCV_CLINT0_HANDLE
    return __METAL_DT_RISCV_CLINT0_HANDLE;
2001307a:	800017b7          	lui	a5,0x80001
2001307e:	a6c78793          	addi	a5,a5,-1428 # 80000a6c <__global_pointer$+0xfffff80c>
/home/jubayer/Documents/riscV/EnergyHarvestingDeviceTestbed/FE310/blinky/freedom-metal/src/drivers/riscv_cpu.c:699
#else
#pragma message("There is no interrupt controller for Timer interrupt")
    return NULL;
#endif
#endif
}
20013082:	853e                	mv	a0,a5
20013084:	4472                	lw	s0,28(sp)
20013086:	6105                	addi	sp,sp,32
20013088:	8082                	ret

2001308a <__metal_driver_cpu_get_timer_interrupt_id>:
__metal_driver_cpu_get_timer_interrupt_id():
/home/jubayer/Documents/riscV/EnergyHarvestingDeviceTestbed/FE310/blinky/freedom-metal/src/drivers/riscv_cpu.c:701

int __metal_driver_cpu_get_timer_interrupt_id(struct metal_cpu *cpu) {
2001308a:	1101                	addi	sp,sp,-32
2001308c:	ce22                	sw	s0,28(sp)
2001308e:	1000                	addi	s0,sp,32
20013090:	fea42623          	sw	a0,-20(s0)
/home/jubayer/Documents/riscV/EnergyHarvestingDeviceTestbed/FE310/blinky/freedom-metal/src/drivers/riscv_cpu.c:702
    return METAL_INTERRUPT_ID_TMR;
20013094:	479d                	li	a5,7
/home/jubayer/Documents/riscV/EnergyHarvestingDeviceTestbed/FE310/blinky/freedom-metal/src/drivers/riscv_cpu.c:703
}
20013096:	853e                	mv	a0,a5
20013098:	4472                	lw	s0,28(sp)
2001309a:	6105                	addi	sp,sp,32
2001309c:	8082                	ret

2001309e <__metal_driver_cpu_sw_controller_interrupt>:
__metal_driver_cpu_sw_controller_interrupt():
/home/jubayer/Documents/riscV/EnergyHarvestingDeviceTestbed/FE310/blinky/freedom-metal/src/drivers/riscv_cpu.c:706

struct metal_interrupt *
__metal_driver_cpu_sw_controller_interrupt(struct metal_cpu *cpu) {
2001309e:	1101                	addi	sp,sp,-32
200130a0:	ce22                	sw	s0,28(sp)
200130a2:	1000                	addi	s0,sp,32
200130a4:	fea42623          	sw	a0,-20(s0)
/home/jubayer/Documents/riscV/EnergyHarvestingDeviceTestbed/FE310/blinky/freedom-metal/src/drivers/riscv_cpu.c:708
#ifdef __METAL_DT_RISCV_CLINT0_HANDLE
    return __METAL_DT_RISCV_CLINT0_HANDLE;
200130a8:	800017b7          	lui	a5,0x80001
200130ac:	a6c78793          	addi	a5,a5,-1428 # 80000a6c <__global_pointer$+0xfffff80c>
/home/jubayer/Documents/riscV/EnergyHarvestingDeviceTestbed/FE310/blinky/freedom-metal/src/drivers/riscv_cpu.c:717
#else
#pragma message("There is no interrupt controller for Software interrupt")
    return NULL;
#endif
#endif
}
200130b0:	853e                	mv	a0,a5
200130b2:	4472                	lw	s0,28(sp)
200130b4:	6105                	addi	sp,sp,32
200130b6:	8082                	ret

200130b8 <__metal_driver_cpu_get_sw_interrupt_id>:
__metal_driver_cpu_get_sw_interrupt_id():
/home/jubayer/Documents/riscV/EnergyHarvestingDeviceTestbed/FE310/blinky/freedom-metal/src/drivers/riscv_cpu.c:719

int __metal_driver_cpu_get_sw_interrupt_id(struct metal_cpu *cpu) {
200130b8:	1101                	addi	sp,sp,-32
200130ba:	ce22                	sw	s0,28(sp)
200130bc:	1000                	addi	s0,sp,32
200130be:	fea42623          	sw	a0,-20(s0)
/home/jubayer/Documents/riscV/EnergyHarvestingDeviceTestbed/FE310/blinky/freedom-metal/src/drivers/riscv_cpu.c:720
    return METAL_INTERRUPT_ID_SW;
200130c2:	478d                	li	a5,3
/home/jubayer/Documents/riscV/EnergyHarvestingDeviceTestbed/FE310/blinky/freedom-metal/src/drivers/riscv_cpu.c:721
}
200130c4:	853e                	mv	a0,a5
200130c6:	4472                	lw	s0,28(sp)
200130c8:	6105                	addi	sp,sp,32
200130ca:	8082                	ret

200130cc <__metal_driver_cpu_set_sw_ipi>:
__metal_driver_cpu_set_sw_ipi():
/home/jubayer/Documents/riscV/EnergyHarvestingDeviceTestbed/FE310/blinky/freedom-metal/src/drivers/riscv_cpu.c:723

int __metal_driver_cpu_set_sw_ipi(struct metal_cpu *cpu, int hartid) {
200130cc:	7179                	addi	sp,sp,-48
200130ce:	d606                	sw	ra,44(sp)
200130d0:	d422                	sw	s0,40(sp)
200130d2:	1800                	addi	s0,sp,48
200130d4:	fca42e23          	sw	a0,-36(s0)
200130d8:	fcb42c23          	sw	a1,-40(s0)
/home/jubayer/Documents/riscV/EnergyHarvestingDeviceTestbed/FE310/blinky/freedom-metal/src/drivers/riscv_cpu.c:724
    int rc = -1;
200130dc:	57fd                	li	a5,-1
200130de:	fef42623          	sw	a5,-20(s0)
/home/jubayer/Documents/riscV/EnergyHarvestingDeviceTestbed/FE310/blinky/freedom-metal/src/drivers/riscv_cpu.c:728
    struct metal_interrupt *sw_intc;
    struct __metal_driver_riscv_cpu_intc *intc =
        (struct __metal_driver_riscv_cpu_intc *)
            __metal_driver_cpu_interrupt_controller(cpu);
200130e2:	fdc42503          	lw	a0,-36(s0)
200130e6:	82dfe0ef          	jal	ra,20011912 <__metal_driver_cpu_interrupt_controller>
200130ea:	fea42423          	sw	a0,-24(s0)
/home/jubayer/Documents/riscV/EnergyHarvestingDeviceTestbed/FE310/blinky/freedom-metal/src/drivers/riscv_cpu.c:730

    if (intc) {
200130ee:	fe842783          	lw	a5,-24(s0)
200130f2:	c79d                	beqz	a5,20013120 <__metal_driver_cpu_set_sw_ipi+0x54>
/home/jubayer/Documents/riscV/EnergyHarvestingDeviceTestbed/FE310/blinky/freedom-metal/src/drivers/riscv_cpu.c:731
        sw_intc = intc->metal_int_table[METAL_INTERRUPT_ID_SW].sub_int;
200130f4:	fe842783          	lw	a5,-24(s0)
200130f8:	0dc7a783          	lw	a5,220(a5)
200130fc:	fef42223          	sw	a5,-28(s0)
/home/jubayer/Documents/riscV/EnergyHarvestingDeviceTestbed/FE310/blinky/freedom-metal/src/drivers/riscv_cpu.c:732
        if (sw_intc) {
20013100:	fe442783          	lw	a5,-28(s0)
20013104:	cf91                	beqz	a5,20013120 <__metal_driver_cpu_set_sw_ipi+0x54>
/home/jubayer/Documents/riscV/EnergyHarvestingDeviceTestbed/FE310/blinky/freedom-metal/src/drivers/riscv_cpu.c:733
            rc = sw_intc->vtable->command_request(
20013106:	fe442783          	lw	a5,-28(s0)
2001310a:	439c                	lw	a5,0(a5)
2001310c:	47f8                	lw	a4,76(a5)
2001310e:	fd840793          	addi	a5,s0,-40
20013112:	863e                	mv	a2,a5
20013114:	458d                	li	a1,3
20013116:	fe442503          	lw	a0,-28(s0)
2001311a:	9702                	jalr	a4
2001311c:	fea42623          	sw	a0,-20(s0)
/home/jubayer/Documents/riscV/EnergyHarvestingDeviceTestbed/FE310/blinky/freedom-metal/src/drivers/riscv_cpu.c:737
                sw_intc, METAL_SOFTWARE_IPI_SET, &hartid);
        }
    }
    return rc;
20013120:	fec42783          	lw	a5,-20(s0)
/home/jubayer/Documents/riscV/EnergyHarvestingDeviceTestbed/FE310/blinky/freedom-metal/src/drivers/riscv_cpu.c:738
}
20013124:	853e                	mv	a0,a5
20013126:	50b2                	lw	ra,44(sp)
20013128:	5422                	lw	s0,40(sp)
2001312a:	6145                	addi	sp,sp,48
2001312c:	8082                	ret

2001312e <__metal_driver_cpu_clear_sw_ipi>:
__metal_driver_cpu_clear_sw_ipi():
/home/jubayer/Documents/riscV/EnergyHarvestingDeviceTestbed/FE310/blinky/freedom-metal/src/drivers/riscv_cpu.c:740

int __metal_driver_cpu_clear_sw_ipi(struct metal_cpu *cpu, int hartid) {
2001312e:	7179                	addi	sp,sp,-48
20013130:	d606                	sw	ra,44(sp)
20013132:	d422                	sw	s0,40(sp)
20013134:	1800                	addi	s0,sp,48
20013136:	fca42e23          	sw	a0,-36(s0)
2001313a:	fcb42c23          	sw	a1,-40(s0)
/home/jubayer/Documents/riscV/EnergyHarvestingDeviceTestbed/FE310/blinky/freedom-metal/src/drivers/riscv_cpu.c:741
    int rc = -1;
2001313e:	57fd                	li	a5,-1
20013140:	fef42623          	sw	a5,-20(s0)
/home/jubayer/Documents/riscV/EnergyHarvestingDeviceTestbed/FE310/blinky/freedom-metal/src/drivers/riscv_cpu.c:745
    struct metal_interrupt *sw_intc;
    struct __metal_driver_riscv_cpu_intc *intc =
        (struct __metal_driver_riscv_cpu_intc *)
            __metal_driver_cpu_interrupt_controller(cpu);
20013144:	fdc42503          	lw	a0,-36(s0)
20013148:	fcafe0ef          	jal	ra,20011912 <__metal_driver_cpu_interrupt_controller>
2001314c:	fea42423          	sw	a0,-24(s0)
/home/jubayer/Documents/riscV/EnergyHarvestingDeviceTestbed/FE310/blinky/freedom-metal/src/drivers/riscv_cpu.c:747

    if (intc) {
20013150:	fe842783          	lw	a5,-24(s0)
20013154:	c79d                	beqz	a5,20013182 <__metal_driver_cpu_clear_sw_ipi+0x54>
/home/jubayer/Documents/riscV/EnergyHarvestingDeviceTestbed/FE310/blinky/freedom-metal/src/drivers/riscv_cpu.c:748
        sw_intc = intc->metal_int_table[METAL_INTERRUPT_ID_SW].sub_int;
20013156:	fe842783          	lw	a5,-24(s0)
2001315a:	0dc7a783          	lw	a5,220(a5)
2001315e:	fef42223          	sw	a5,-28(s0)
/home/jubayer/Documents/riscV/EnergyHarvestingDeviceTestbed/FE310/blinky/freedom-metal/src/drivers/riscv_cpu.c:749
        if (sw_intc) {
20013162:	fe442783          	lw	a5,-28(s0)
20013166:	cf91                	beqz	a5,20013182 <__metal_driver_cpu_clear_sw_ipi+0x54>
/home/jubayer/Documents/riscV/EnergyHarvestingDeviceTestbed/FE310/blinky/freedom-metal/src/drivers/riscv_cpu.c:750
            rc = sw_intc->vtable->command_request(
20013168:	fe442783          	lw	a5,-28(s0)
2001316c:	439c                	lw	a5,0(a5)
2001316e:	47f8                	lw	a4,76(a5)
20013170:	fd840793          	addi	a5,s0,-40
20013174:	863e                	mv	a2,a5
20013176:	4589                	li	a1,2
20013178:	fe442503          	lw	a0,-28(s0)
2001317c:	9702                	jalr	a4
2001317e:	fea42623          	sw	a0,-20(s0)
/home/jubayer/Documents/riscV/EnergyHarvestingDeviceTestbed/FE310/blinky/freedom-metal/src/drivers/riscv_cpu.c:754
                sw_intc, METAL_SOFTWARE_IPI_CLEAR, &hartid);
        }
    }
    return rc;
20013182:	fec42783          	lw	a5,-20(s0)
/home/jubayer/Documents/riscV/EnergyHarvestingDeviceTestbed/FE310/blinky/freedom-metal/src/drivers/riscv_cpu.c:755
}
20013186:	853e                	mv	a0,a5
20013188:	50b2                	lw	ra,44(sp)
2001318a:	5422                	lw	s0,40(sp)
2001318c:	6145                	addi	sp,sp,48
2001318e:	8082                	ret

20013190 <__metal_driver_cpu_get_msip>:
__metal_driver_cpu_get_msip():
/home/jubayer/Documents/riscV/EnergyHarvestingDeviceTestbed/FE310/blinky/freedom-metal/src/drivers/riscv_cpu.c:757

int __metal_driver_cpu_get_msip(struct metal_cpu *cpu, int hartid) {
20013190:	7179                	addi	sp,sp,-48
20013192:	d606                	sw	ra,44(sp)
20013194:	d422                	sw	s0,40(sp)
20013196:	1800                	addi	s0,sp,48
20013198:	fca42e23          	sw	a0,-36(s0)
2001319c:	fcb42c23          	sw	a1,-40(s0)
/home/jubayer/Documents/riscV/EnergyHarvestingDeviceTestbed/FE310/blinky/freedom-metal/src/drivers/riscv_cpu.c:758
    int rc = 0;
200131a0:	fe042623          	sw	zero,-20(s0)
/home/jubayer/Documents/riscV/EnergyHarvestingDeviceTestbed/FE310/blinky/freedom-metal/src/drivers/riscv_cpu.c:762
    struct metal_interrupt *sw_intc;
    struct __metal_driver_riscv_cpu_intc *intc =
        (struct __metal_driver_riscv_cpu_intc *)
            __metal_driver_cpu_interrupt_controller(cpu);
200131a4:	fdc42503          	lw	a0,-36(s0)
200131a8:	f6afe0ef          	jal	ra,20011912 <__metal_driver_cpu_interrupt_controller>
200131ac:	fea42423          	sw	a0,-24(s0)
/home/jubayer/Documents/riscV/EnergyHarvestingDeviceTestbed/FE310/blinky/freedom-metal/src/drivers/riscv_cpu.c:764

    if (intc) {
200131b0:	fe842783          	lw	a5,-24(s0)
200131b4:	c79d                	beqz	a5,200131e2 <__metal_driver_cpu_get_msip+0x52>
/home/jubayer/Documents/riscV/EnergyHarvestingDeviceTestbed/FE310/blinky/freedom-metal/src/drivers/riscv_cpu.c:765
        sw_intc = intc->metal_int_table[METAL_INTERRUPT_ID_SW].sub_int;
200131b6:	fe842783          	lw	a5,-24(s0)
200131ba:	0dc7a783          	lw	a5,220(a5)
200131be:	fef42223          	sw	a5,-28(s0)
/home/jubayer/Documents/riscV/EnergyHarvestingDeviceTestbed/FE310/blinky/freedom-metal/src/drivers/riscv_cpu.c:766
        if (sw_intc) {
200131c2:	fe442783          	lw	a5,-28(s0)
200131c6:	cf91                	beqz	a5,200131e2 <__metal_driver_cpu_get_msip+0x52>
/home/jubayer/Documents/riscV/EnergyHarvestingDeviceTestbed/FE310/blinky/freedom-metal/src/drivers/riscv_cpu.c:767
            rc = sw_intc->vtable->command_request(
200131c8:	fe442783          	lw	a5,-28(s0)
200131cc:	439c                	lw	a5,0(a5)
200131ce:	47f8                	lw	a4,76(a5)
200131d0:	fd840793          	addi	a5,s0,-40
200131d4:	863e                	mv	a2,a5
200131d6:	4591                	li	a1,4
200131d8:	fe442503          	lw	a0,-28(s0)
200131dc:	9702                	jalr	a4
200131de:	fea42623          	sw	a0,-20(s0)
/home/jubayer/Documents/riscV/EnergyHarvestingDeviceTestbed/FE310/blinky/freedom-metal/src/drivers/riscv_cpu.c:771
                sw_intc, METAL_SOFTWARE_MSIP_GET, &hartid);
        }
    }
    return rc;
200131e2:	fec42783          	lw	a5,-20(s0)
/home/jubayer/Documents/riscV/EnergyHarvestingDeviceTestbed/FE310/blinky/freedom-metal/src/drivers/riscv_cpu.c:772
}
200131e6:	853e                	mv	a0,a5
200131e8:	50b2                	lw	ra,44(sp)
200131ea:	5422                	lw	s0,40(sp)
200131ec:	6145                	addi	sp,sp,48
200131ee:	8082                	ret

200131f0 <__metal_driver_cpu_controller_interrupt>:
__metal_driver_cpu_controller_interrupt():
/home/jubayer/Documents/riscV/EnergyHarvestingDeviceTestbed/FE310/blinky/freedom-metal/src/drivers/riscv_cpu.c:775

struct metal_interrupt *
__metal_driver_cpu_controller_interrupt(struct metal_cpu *cpu) {
200131f0:	1101                	addi	sp,sp,-32
200131f2:	ce06                	sw	ra,28(sp)
200131f4:	cc22                	sw	s0,24(sp)
200131f6:	1000                	addi	s0,sp,32
200131f8:	fea42623          	sw	a0,-20(s0)
/home/jubayer/Documents/riscV/EnergyHarvestingDeviceTestbed/FE310/blinky/freedom-metal/src/drivers/riscv_cpu.c:776
    return __metal_driver_cpu_interrupt_controller(cpu);
200131fc:	fec42503          	lw	a0,-20(s0)
20013200:	f12fe0ef          	jal	ra,20011912 <__metal_driver_cpu_interrupt_controller>
20013204:	87aa                	mv	a5,a0
/home/jubayer/Documents/riscV/EnergyHarvestingDeviceTestbed/FE310/blinky/freedom-metal/src/drivers/riscv_cpu.c:777
}
20013206:	853e                	mv	a0,a5
20013208:	40f2                	lw	ra,28(sp)
2001320a:	4462                	lw	s0,24(sp)
2001320c:	6105                	addi	sp,sp,32
2001320e:	8082                	ret

20013210 <__metal_driver_cpu_exception_register>:
__metal_driver_cpu_exception_register():
/home/jubayer/Documents/riscV/EnergyHarvestingDeviceTestbed/FE310/blinky/freedom-metal/src/drivers/riscv_cpu.c:798
    }
    return -1;
}

int __metal_driver_cpu_exception_register(struct metal_cpu *cpu, int ecode,
                                          metal_exception_handler_t isr) {
20013210:	7179                	addi	sp,sp,-48
20013212:	d606                	sw	ra,44(sp)
20013214:	d422                	sw	s0,40(sp)
20013216:	1800                	addi	s0,sp,48
20013218:	fca42e23          	sw	a0,-36(s0)
2001321c:	fcb42c23          	sw	a1,-40(s0)
20013220:	fcc42a23          	sw	a2,-44(s0)
/home/jubayer/Documents/riscV/EnergyHarvestingDeviceTestbed/FE310/blinky/freedom-metal/src/drivers/riscv_cpu.c:801
    struct __metal_driver_riscv_cpu_intc *intc =
        (struct __metal_driver_riscv_cpu_intc *)
            __metal_driver_cpu_interrupt_controller(cpu);
20013224:	fdc42503          	lw	a0,-36(s0)
20013228:	eeafe0ef          	jal	ra,20011912 <__metal_driver_cpu_interrupt_controller>
2001322c:	fea42623          	sw	a0,-20(s0)
/home/jubayer/Documents/riscV/EnergyHarvestingDeviceTestbed/FE310/blinky/freedom-metal/src/drivers/riscv_cpu.c:803

    if (intc) {
20013230:	fec42783          	lw	a5,-20(s0)
20013234:	cb99                	beqz	a5,2001324a <__metal_driver_cpu_exception_register+0x3a>
/home/jubayer/Documents/riscV/EnergyHarvestingDeviceTestbed/FE310/blinky/freedom-metal/src/drivers/riscv_cpu.c:804
        return __metal_exception_register((struct metal_interrupt *)intc, ecode,
20013236:	fd442603          	lw	a2,-44(s0)
2001323a:	fd842583          	lw	a1,-40(s0)
2001323e:	fec42503          	lw	a0,-20(s0)
20013242:	8b3ff0ef          	jal	ra,20012af4 <__metal_exception_register>
20013246:	87aa                	mv	a5,a0
20013248:	a011                	j	2001324c <__metal_driver_cpu_exception_register+0x3c>
/home/jubayer/Documents/riscV/EnergyHarvestingDeviceTestbed/FE310/blinky/freedom-metal/src/drivers/riscv_cpu.c:807
                                          isr);
    }
    return -1;
2001324a:	57fd                	li	a5,-1
/home/jubayer/Documents/riscV/EnergyHarvestingDeviceTestbed/FE310/blinky/freedom-metal/src/drivers/riscv_cpu.c:808
}
2001324c:	853e                	mv	a0,a5
2001324e:	50b2                	lw	ra,44(sp)
20013250:	5422                	lw	s0,40(sp)
20013252:	6145                	addi	sp,sp,48
20013254:	8082                	ret

20013256 <__metal_driver_cpu_get_instruction_length>:
__metal_driver_cpu_get_instruction_length():
/home/jubayer/Documents/riscV/EnergyHarvestingDeviceTestbed/FE310/blinky/freedom-metal/src/drivers/riscv_cpu.c:811

int __metal_driver_cpu_get_instruction_length(struct metal_cpu *cpu,
                                              uintptr_t epc) {
20013256:	1101                	addi	sp,sp,-32
20013258:	ce22                	sw	s0,28(sp)
2001325a:	1000                	addi	s0,sp,32
2001325c:	fea42623          	sw	a0,-20(s0)
20013260:	feb42423          	sw	a1,-24(s0)
/home/jubayer/Documents/riscV/EnergyHarvestingDeviceTestbed/FE310/blinky/freedom-metal/src/drivers/riscv_cpu.c:817
    /**
     * Per ISA compressed instruction has last two bits of opcode set.
     * The encoding '00' '01' '10' are used for compressed instruction.
     * Only enconding '11' isn't regarded as compressed instruction (>16b).
     */
    return ((*(unsigned short *)epc & METAL_INSN_LENGTH_MASK) ==
20013264:	fe842783          	lw	a5,-24(s0)
20013268:	0007d783          	lhu	a5,0(a5)
2001326c:	0037f713          	andi	a4,a5,3
/home/jubayer/Documents/riscV/EnergyHarvestingDeviceTestbed/FE310/blinky/freedom-metal/src/drivers/riscv_cpu.c:820
            METAL_INSN_NOT_COMPRESSED)
               ? 4
               : 2;
20013270:	478d                	li	a5,3
20013272:	00f71463          	bne	a4,a5,2001327a <__metal_driver_cpu_get_instruction_length+0x24>
/home/jubayer/Documents/riscV/EnergyHarvestingDeviceTestbed/FE310/blinky/freedom-metal/src/drivers/riscv_cpu.c:820 (discriminator 1)
20013276:	4791                	li	a5,4
20013278:	a011                	j	2001327c <__metal_driver_cpu_get_instruction_length+0x26>
/home/jubayer/Documents/riscV/EnergyHarvestingDeviceTestbed/FE310/blinky/freedom-metal/src/drivers/riscv_cpu.c:820 (discriminator 2)
2001327a:	4789                	li	a5,2
/home/jubayer/Documents/riscV/EnergyHarvestingDeviceTestbed/FE310/blinky/freedom-metal/src/drivers/riscv_cpu.c:821 (discriminator 5)
}
2001327c:	853e                	mv	a0,a5
2001327e:	4472                	lw	s0,28(sp)
20013280:	6105                	addi	sp,sp,32
20013282:	8082                	ret

20013284 <__metal_driver_cpu_get_exception_pc>:
__metal_driver_cpu_get_exception_pc():
/home/jubayer/Documents/riscV/EnergyHarvestingDeviceTestbed/FE310/blinky/freedom-metal/src/drivers/riscv_cpu.c:823

uintptr_t __metal_driver_cpu_get_exception_pc(struct metal_cpu *cpu) {
20013284:	7179                	addi	sp,sp,-48
20013286:	d622                	sw	s0,44(sp)
20013288:	1800                	addi	s0,sp,48
2001328a:	fca42e23          	sw	a0,-36(s0)
/home/jubayer/Documents/riscV/EnergyHarvestingDeviceTestbed/FE310/blinky/freedom-metal/src/drivers/riscv_cpu.c:825
    uintptr_t mepc;
    __asm__ volatile("csrr %0, mepc" : "=r"(mepc));
2001328e:	341027f3          	csrr	a5,mepc
20013292:	fef42623          	sw	a5,-20(s0)
/home/jubayer/Documents/riscV/EnergyHarvestingDeviceTestbed/FE310/blinky/freedom-metal/src/drivers/riscv_cpu.c:826
    return mepc;
20013296:	fec42783          	lw	a5,-20(s0)
/home/jubayer/Documents/riscV/EnergyHarvestingDeviceTestbed/FE310/blinky/freedom-metal/src/drivers/riscv_cpu.c:827
}
2001329a:	853e                	mv	a0,a5
2001329c:	5432                	lw	s0,44(sp)
2001329e:	6145                	addi	sp,sp,48
200132a0:	8082                	ret

200132a2 <__metal_driver_cpu_set_exception_pc>:
__metal_driver_cpu_set_exception_pc():
/home/jubayer/Documents/riscV/EnergyHarvestingDeviceTestbed/FE310/blinky/freedom-metal/src/drivers/riscv_cpu.c:829

int __metal_driver_cpu_set_exception_pc(struct metal_cpu *cpu, uintptr_t mepc) {
200132a2:	1101                	addi	sp,sp,-32
200132a4:	ce22                	sw	s0,28(sp)
200132a6:	1000                	addi	s0,sp,32
200132a8:	fea42623          	sw	a0,-20(s0)
200132ac:	feb42423          	sw	a1,-24(s0)
/home/jubayer/Documents/riscV/EnergyHarvestingDeviceTestbed/FE310/blinky/freedom-metal/src/drivers/riscv_cpu.c:830
    __asm__ volatile("csrw mepc, %0" ::"r"(mepc));
200132b0:	fe842783          	lw	a5,-24(s0)
200132b4:	34179073          	csrw	mepc,a5
/home/jubayer/Documents/riscV/EnergyHarvestingDeviceTestbed/FE310/blinky/freedom-metal/src/drivers/riscv_cpu.c:831
    return 0;
200132b8:	4781                	li	a5,0
/home/jubayer/Documents/riscV/EnergyHarvestingDeviceTestbed/FE310/blinky/freedom-metal/src/drivers/riscv_cpu.c:832
}
200132ba:	853e                	mv	a0,a5
200132bc:	4472                	lw	s0,28(sp)
200132be:	6105                	addi	sp,sp,32
200132c0:	8082                	ret

200132c2 <__metal_driver_cpu_get_buserror>:
__metal_driver_cpu_get_buserror():
/home/jubayer/Documents/riscV/EnergyHarvestingDeviceTestbed/FE310/blinky/freedom-metal/src/drivers/riscv_cpu.c:834

struct metal_buserror *__metal_driver_cpu_get_buserror(struct metal_cpu *cpu) {
200132c2:	1101                	addi	sp,sp,-32
200132c4:	ce06                	sw	ra,28(sp)
200132c6:	cc22                	sw	s0,24(sp)
200132c8:	1000                	addi	s0,sp,32
200132ca:	fea42623          	sw	a0,-20(s0)
/home/jubayer/Documents/riscV/EnergyHarvestingDeviceTestbed/FE310/blinky/freedom-metal/src/drivers/riscv_cpu.c:835
    return __metal_driver_cpu_buserror(cpu);
200132ce:	fec42503          	lw	a0,-20(s0)
200132d2:	e6afe0ef          	jal	ra,2001193c <__metal_driver_cpu_buserror>
200132d6:	87aa                	mv	a5,a0
/home/jubayer/Documents/riscV/EnergyHarvestingDeviceTestbed/FE310/blinky/freedom-metal/src/drivers/riscv_cpu.c:836
}
200132d8:	853e                	mv	a0,a5
200132da:	40f2                	lw	ra,28(sp)
200132dc:	4462                	lw	s0,24(sp)
200132de:	6105                	addi	sp,sp,32
200132e0:	8082                	ret

200132e2 <__metal_driver_sifive_plic0_control_base>:
__metal_driver_sifive_plic0_control_base():
/home/jubayer/Documents/riscV/EnergyHarvestingDeviceTestbed/FE310/blinky/bsp/build/debug/./metal/machine.h:345



/* --------------------- sifive_plic0 ------------ */
static __inline__ unsigned long __metal_driver_sifive_plic0_control_base(struct metal_interrupt *controller)
{
200132e2:	1101                	addi	sp,sp,-32
200132e4:	ce22                	sw	s0,28(sp)
200132e6:	1000                	addi	s0,sp,32
200132e8:	fea42623          	sw	a0,-20(s0)
/home/jubayer/Documents/riscV/EnergyHarvestingDeviceTestbed/FE310/blinky/bsp/build/debug/./metal/machine.h:346
	if ((uintptr_t)controller == (uintptr_t)&__metal_dt_interrupt_controller_c000000) {
200132ec:	fec42703          	lw	a4,-20(s0)
200132f0:	800007b7          	lui	a5,0x80000
200132f4:	46078793          	addi	a5,a5,1120 # 80000460 <__global_pointer$+0xfffff200>
200132f8:	00f71563          	bne	a4,a5,20013302 <__metal_driver_sifive_plic0_control_base+0x20>
/home/jubayer/Documents/riscV/EnergyHarvestingDeviceTestbed/FE310/blinky/bsp/build/debug/./metal/machine.h:347
		return METAL_RISCV_PLIC0_C000000_BASE_ADDRESS;
200132fc:	0c0007b7          	lui	a5,0xc000
20013300:	a011                	j	20013304 <__metal_driver_sifive_plic0_control_base+0x22>
/home/jubayer/Documents/riscV/EnergyHarvestingDeviceTestbed/FE310/blinky/bsp/build/debug/./metal/machine.h:350
	}
	else {
		return 0;
20013302:	4781                	li	a5,0
/home/jubayer/Documents/riscV/EnergyHarvestingDeviceTestbed/FE310/blinky/bsp/build/debug/./metal/machine.h:352
	}
}
20013304:	853e                	mv	a0,a5
20013306:	4472                	lw	s0,28(sp)
20013308:	6105                	addi	sp,sp,32
2001330a:	8082                	ret

2001330c <__metal_driver_sifive_plic0_num_interrupts>:
__metal_driver_sifive_plic0_num_interrupts():
/home/jubayer/Documents/riscV/EnergyHarvestingDeviceTestbed/FE310/blinky/bsp/build/debug/./metal/machine.h:365
		return 0;
	}
}

static __inline__ int __metal_driver_sifive_plic0_num_interrupts(struct metal_interrupt *controller)
{
2001330c:	1101                	addi	sp,sp,-32
2001330e:	ce22                	sw	s0,28(sp)
20013310:	1000                	addi	s0,sp,32
20013312:	fea42623          	sw	a0,-20(s0)
/home/jubayer/Documents/riscV/EnergyHarvestingDeviceTestbed/FE310/blinky/bsp/build/debug/./metal/machine.h:366
	if ((uintptr_t)controller == (uintptr_t)&__metal_dt_interrupt_controller_c000000) {
20013316:	fec42703          	lw	a4,-20(s0)
2001331a:	800007b7          	lui	a5,0x80000
2001331e:	46078793          	addi	a5,a5,1120 # 80000460 <__global_pointer$+0xfffff200>
20013322:	00f71563          	bne	a4,a5,2001332c <__metal_driver_sifive_plic0_num_interrupts+0x20>
/home/jubayer/Documents/riscV/EnergyHarvestingDeviceTestbed/FE310/blinky/bsp/build/debug/./metal/machine.h:367
		return METAL_RISCV_PLIC0_C000000_RISCV_NDEV;
20013326:	03500793          	li	a5,53
2001332a:	a011                	j	2001332e <__metal_driver_sifive_plic0_num_interrupts+0x22>
/home/jubayer/Documents/riscV/EnergyHarvestingDeviceTestbed/FE310/blinky/bsp/build/debug/./metal/machine.h:370
	}
	else {
		return 0;
2001332c:	4781                	li	a5,0
/home/jubayer/Documents/riscV/EnergyHarvestingDeviceTestbed/FE310/blinky/bsp/build/debug/./metal/machine.h:372
	}
}
2001332e:	853e                	mv	a0,a5
20013330:	4472                	lw	s0,28(sp)
20013332:	6105                	addi	sp,sp,32
20013334:	8082                	ret

20013336 <__metal_driver_sifive_plic0_max_priority>:
__metal_driver_sifive_plic0_max_priority():
/home/jubayer/Documents/riscV/EnergyHarvestingDeviceTestbed/FE310/blinky/bsp/build/debug/./metal/machine.h:375

static __inline__ int __metal_driver_sifive_plic0_max_priority(struct metal_interrupt *controller)
{
20013336:	1101                	addi	sp,sp,-32
20013338:	ce22                	sw	s0,28(sp)
2001333a:	1000                	addi	s0,sp,32
2001333c:	fea42623          	sw	a0,-20(s0)
/home/jubayer/Documents/riscV/EnergyHarvestingDeviceTestbed/FE310/blinky/bsp/build/debug/./metal/machine.h:376
	if ((uintptr_t)controller == (uintptr_t)&__metal_dt_interrupt_controller_c000000) {
20013340:	fec42703          	lw	a4,-20(s0)
20013344:	800007b7          	lui	a5,0x80000
20013348:	46078793          	addi	a5,a5,1120 # 80000460 <__global_pointer$+0xfffff200>
2001334c:	00f71463          	bne	a4,a5,20013354 <__metal_driver_sifive_plic0_max_priority+0x1e>
/home/jubayer/Documents/riscV/EnergyHarvestingDeviceTestbed/FE310/blinky/bsp/build/debug/./metal/machine.h:377
		return METAL_RISCV_PLIC0_C000000_RISCV_MAX_PRIORITY;
20013350:	479d                	li	a5,7
20013352:	a011                	j	20013356 <__metal_driver_sifive_plic0_max_priority+0x20>
/home/jubayer/Documents/riscV/EnergyHarvestingDeviceTestbed/FE310/blinky/bsp/build/debug/./metal/machine.h:380
	}
	else {
		return 0;
20013354:	4781                	li	a5,0
/home/jubayer/Documents/riscV/EnergyHarvestingDeviceTestbed/FE310/blinky/bsp/build/debug/./metal/machine.h:382
	}
}
20013356:	853e                	mv	a0,a5
20013358:	4472                	lw	s0,28(sp)
2001335a:	6105                	addi	sp,sp,32
2001335c:	8082                	ret

2001335e <__metal_driver_sifive_plic0_interrupt_parents>:
__metal_driver_sifive_plic0_interrupt_parents():
/home/jubayer/Documents/riscV/EnergyHarvestingDeviceTestbed/FE310/blinky/bsp/build/debug/./metal/machine.h:385

static __inline__ struct metal_interrupt * __metal_driver_sifive_plic0_interrupt_parents(struct metal_interrupt *controller, int idx)
{
2001335e:	1101                	addi	sp,sp,-32
20013360:	ce22                	sw	s0,28(sp)
20013362:	1000                	addi	s0,sp,32
20013364:	fea42623          	sw	a0,-20(s0)
20013368:	feb42423          	sw	a1,-24(s0)
/home/jubayer/Documents/riscV/EnergyHarvestingDeviceTestbed/FE310/blinky/bsp/build/debug/./metal/machine.h:386
	if (idx == 0) {
2001336c:	fe842783          	lw	a5,-24(s0)
20013370:	e791                	bnez	a5,2001337c <__metal_driver_sifive_plic0_interrupt_parents+0x1e>
/home/jubayer/Documents/riscV/EnergyHarvestingDeviceTestbed/FE310/blinky/bsp/build/debug/./metal/machine.h:387
		return (struct metal_interrupt *)&__metal_dt_cpu_0_interrupt_controller.controller;
20013372:	800007b7          	lui	a5,0x80000
20013376:	09078793          	addi	a5,a5,144 # 80000090 <__global_pointer$+0xffffee30>
2001337a:	a011                	j	2001337e <__metal_driver_sifive_plic0_interrupt_parents+0x20>
/home/jubayer/Documents/riscV/EnergyHarvestingDeviceTestbed/FE310/blinky/bsp/build/debug/./metal/machine.h:390
	}
	else {
		return NULL;
2001337c:	4781                	li	a5,0
/home/jubayer/Documents/riscV/EnergyHarvestingDeviceTestbed/FE310/blinky/bsp/build/debug/./metal/machine.h:392
	}
}
2001337e:	853e                	mv	a0,a5
20013380:	4472                	lw	s0,28(sp)
20013382:	6105                	addi	sp,sp,32
20013384:	8082                	ret

20013386 <__metal_driver_sifive_plic0_interrupt_lines>:
__metal_driver_sifive_plic0_interrupt_lines():
/home/jubayer/Documents/riscV/EnergyHarvestingDeviceTestbed/FE310/blinky/bsp/build/debug/./metal/machine.h:395

static __inline__ int __metal_driver_sifive_plic0_interrupt_lines(struct metal_interrupt *controller, int idx)
{
20013386:	1101                	addi	sp,sp,-32
20013388:	ce22                	sw	s0,28(sp)
2001338a:	1000                	addi	s0,sp,32
2001338c:	fea42623          	sw	a0,-20(s0)
20013390:	feb42423          	sw	a1,-24(s0)
/home/jubayer/Documents/riscV/EnergyHarvestingDeviceTestbed/FE310/blinky/bsp/build/debug/./metal/machine.h:396
	if (idx == 0) {
20013394:	fe842783          	lw	a5,-24(s0)
20013398:	e399                	bnez	a5,2001339e <__metal_driver_sifive_plic0_interrupt_lines+0x18>
/home/jubayer/Documents/riscV/EnergyHarvestingDeviceTestbed/FE310/blinky/bsp/build/debug/./metal/machine.h:397
		return 11;
2001339a:	47ad                	li	a5,11
2001339c:	a011                	j	200133a0 <__metal_driver_sifive_plic0_interrupt_lines+0x1a>
/home/jubayer/Documents/riscV/EnergyHarvestingDeviceTestbed/FE310/blinky/bsp/build/debug/./metal/machine.h:400
	}
	else {
		return 0;
2001339e:	4781                	li	a5,0
/home/jubayer/Documents/riscV/EnergyHarvestingDeviceTestbed/FE310/blinky/bsp/build/debug/./metal/machine.h:402
	}
}
200133a0:	853e                	mv	a0,a5
200133a2:	4472                	lw	s0,28(sp)
200133a4:	6105                	addi	sp,sp,32
200133a6:	8082                	ret

200133a8 <__metal_driver_sifive_plic0_context_ids>:
__metal_driver_sifive_plic0_context_ids():
/home/jubayer/Documents/riscV/EnergyHarvestingDeviceTestbed/FE310/blinky/bsp/build/debug/./metal/machine.h:405

static __inline__ int __metal_driver_sifive_plic0_context_ids(int hartid)
{
200133a8:	1101                	addi	sp,sp,-32
200133aa:	ce22                	sw	s0,28(sp)
200133ac:	1000                	addi	s0,sp,32
200133ae:	fea42623          	sw	a0,-20(s0)
/home/jubayer/Documents/riscV/EnergyHarvestingDeviceTestbed/FE310/blinky/bsp/build/debug/./metal/machine.h:406
	if (hartid == 0) {
200133b2:	fec42783          	lw	a5,-20(s0)
200133b6:	e399                	bnez	a5,200133bc <__metal_driver_sifive_plic0_context_ids+0x14>
/home/jubayer/Documents/riscV/EnergyHarvestingDeviceTestbed/FE310/blinky/bsp/build/debug/./metal/machine.h:407
		return 0;
200133b8:	4781                	li	a5,0
200133ba:	a011                	j	200133be <__metal_driver_sifive_plic0_context_ids+0x16>
/home/jubayer/Documents/riscV/EnergyHarvestingDeviceTestbed/FE310/blinky/bsp/build/debug/./metal/machine.h:410
	}
	else {
		return -1;
200133bc:	57fd                	li	a5,-1
/home/jubayer/Documents/riscV/EnergyHarvestingDeviceTestbed/FE310/blinky/bsp/build/debug/./metal/machine.h:412
	}
}
200133be:	853e                	mv	a0,a5
200133c0:	4472                	lw	s0,28(sp)
200133c2:	6105                	addi	sp,sp,32
200133c4:	8082                	ret

200133c6 <__metal_plic0_claim_interrupt>:
__metal_plic0_claim_interrupt():
/home/jubayer/Documents/riscV/EnergyHarvestingDeviceTestbed/FE310/blinky/freedom-metal/src/drivers/riscv_plic0.c:18
#include <metal/machine.h>
#include <metal/shutdown.h>

unsigned int
__metal_plic0_claim_interrupt(struct __metal_driver_riscv_plic0 *plic,
                              int context_id) {
200133c6:	7179                	addi	sp,sp,-48
200133c8:	d606                	sw	ra,44(sp)
200133ca:	d422                	sw	s0,40(sp)
200133cc:	1800                	addi	s0,sp,48
200133ce:	fca42e23          	sw	a0,-36(s0)
200133d2:	fcb42c23          	sw	a1,-40(s0)
/home/jubayer/Documents/riscV/EnergyHarvestingDeviceTestbed/FE310/blinky/freedom-metal/src/drivers/riscv_plic0.c:19
    unsigned long control_base = __metal_driver_sifive_plic0_control_base(
200133d6:	fdc42503          	lw	a0,-36(s0)
200133da:	3721                	jal	200132e2 <__metal_driver_sifive_plic0_control_base>
200133dc:	fea42623          	sw	a0,-20(s0)
/home/jubayer/Documents/riscV/EnergyHarvestingDeviceTestbed/FE310/blinky/freedom-metal/src/drivers/riscv_plic0.c:21
        (struct metal_interrupt *)plic);
    return __METAL_ACCESS_ONCE(
200133e0:	fd842783          	lw	a5,-40(s0)
200133e4:	00c79713          	slli	a4,a5,0xc
200133e8:	fec42783          	lw	a5,-20(s0)
200133ec:	973e                	add	a4,a4,a5
200133ee:	002007b7          	lui	a5,0x200
200133f2:	0791                	addi	a5,a5,4
200133f4:	97ba                	add	a5,a5,a4
200133f6:	439c                	lw	a5,0(a5)
/home/jubayer/Documents/riscV/EnergyHarvestingDeviceTestbed/FE310/blinky/freedom-metal/src/drivers/riscv_plic0.c:25
        (__metal_io_u32 *)(control_base + METAL_RISCV_PLIC0_CONTEXT_BASE +
                           (context_id * METAL_RISCV_PLIC0_CONTEXT_PER_HART) +
                           METAL_RISCV_PLIC0_CONTEXT_CLAIM));
}
200133f8:	853e                	mv	a0,a5
200133fa:	50b2                	lw	ra,44(sp)
200133fc:	5422                	lw	s0,40(sp)
200133fe:	6145                	addi	sp,sp,48
20013400:	8082                	ret

20013402 <__metal_plic0_complete_interrupt>:
__metal_plic0_complete_interrupt():
/home/jubayer/Documents/riscV/EnergyHarvestingDeviceTestbed/FE310/blinky/freedom-metal/src/drivers/riscv_plic0.c:28

void __metal_plic0_complete_interrupt(struct __metal_driver_riscv_plic0 *plic,
                                      int context_id, unsigned int id) {
20013402:	7179                	addi	sp,sp,-48
20013404:	d606                	sw	ra,44(sp)
20013406:	d422                	sw	s0,40(sp)
20013408:	1800                	addi	s0,sp,48
2001340a:	fca42e23          	sw	a0,-36(s0)
2001340e:	fcb42c23          	sw	a1,-40(s0)
20013412:	fcc42a23          	sw	a2,-44(s0)
/home/jubayer/Documents/riscV/EnergyHarvestingDeviceTestbed/FE310/blinky/freedom-metal/src/drivers/riscv_plic0.c:29
    unsigned long control_base = __metal_driver_sifive_plic0_control_base(
20013416:	fdc42503          	lw	a0,-36(s0)
2001341a:	35e1                	jal	200132e2 <__metal_driver_sifive_plic0_control_base>
2001341c:	fea42623          	sw	a0,-20(s0)
/home/jubayer/Documents/riscV/EnergyHarvestingDeviceTestbed/FE310/blinky/freedom-metal/src/drivers/riscv_plic0.c:31
        (struct metal_interrupt *)plic);
    __METAL_ACCESS_ONCE(
20013420:	fd842783          	lw	a5,-40(s0)
20013424:	00c79713          	slli	a4,a5,0xc
20013428:	fec42783          	lw	a5,-20(s0)
2001342c:	973e                	add	a4,a4,a5
2001342e:	002007b7          	lui	a5,0x200
20013432:	0791                	addi	a5,a5,4
20013434:	97ba                	add	a5,a5,a4
20013436:	873e                	mv	a4,a5
/home/jubayer/Documents/riscV/EnergyHarvestingDeviceTestbed/FE310/blinky/freedom-metal/src/drivers/riscv_plic0.c:34
        (__metal_io_u32 *)(control_base + METAL_RISCV_PLIC0_CONTEXT_BASE +
                           (context_id * METAL_RISCV_PLIC0_CONTEXT_PER_HART) +
                           METAL_RISCV_PLIC0_CONTEXT_CLAIM)) = id;
20013438:	fd442783          	lw	a5,-44(s0)
2001343c:	c31c                	sw	a5,0(a4)
/home/jubayer/Documents/riscV/EnergyHarvestingDeviceTestbed/FE310/blinky/freedom-metal/src/drivers/riscv_plic0.c:35
}
2001343e:	0001                	nop
20013440:	50b2                	lw	ra,44(sp)
20013442:	5422                	lw	s0,40(sp)
20013444:	6145                	addi	sp,sp,48
20013446:	8082                	ret

20013448 <__metal_plic0_set_threshold>:
__metal_plic0_set_threshold():
/home/jubayer/Documents/riscV/EnergyHarvestingDeviceTestbed/FE310/blinky/freedom-metal/src/drivers/riscv_plic0.c:38

int __metal_plic0_set_threshold(struct metal_interrupt *controller,
                                int context_id, unsigned int threshold) {
20013448:	7179                	addi	sp,sp,-48
2001344a:	d606                	sw	ra,44(sp)
2001344c:	d422                	sw	s0,40(sp)
2001344e:	1800                	addi	s0,sp,48
20013450:	fca42e23          	sw	a0,-36(s0)
20013454:	fcb42c23          	sw	a1,-40(s0)
20013458:	fcc42a23          	sw	a2,-44(s0)
/home/jubayer/Documents/riscV/EnergyHarvestingDeviceTestbed/FE310/blinky/freedom-metal/src/drivers/riscv_plic0.c:40
    unsigned long control_base =
        __metal_driver_sifive_plic0_control_base(controller);
2001345c:	fdc42503          	lw	a0,-36(s0)
20013460:	3549                	jal	200132e2 <__metal_driver_sifive_plic0_control_base>
20013462:	fea42623          	sw	a0,-20(s0)
/home/jubayer/Documents/riscV/EnergyHarvestingDeviceTestbed/FE310/blinky/freedom-metal/src/drivers/riscv_plic0.c:41
    __METAL_ACCESS_ONCE(
20013466:	fd842783          	lw	a5,-40(s0)
2001346a:	00c79713          	slli	a4,a5,0xc
2001346e:	fec42783          	lw	a5,-20(s0)
20013472:	973e                	add	a4,a4,a5
20013474:	002007b7          	lui	a5,0x200
20013478:	97ba                	add	a5,a5,a4
2001347a:	873e                	mv	a4,a5
/home/jubayer/Documents/riscV/EnergyHarvestingDeviceTestbed/FE310/blinky/freedom-metal/src/drivers/riscv_plic0.c:44
        (__metal_io_u32 *)(control_base + METAL_RISCV_PLIC0_CONTEXT_BASE +
                           (context_id * METAL_RISCV_PLIC0_CONTEXT_PER_HART) +
                           METAL_RISCV_PLIC0_CONTEXT_THRESHOLD)) = threshold;
2001347c:	fd442783          	lw	a5,-44(s0)
20013480:	c31c                	sw	a5,0(a4)
/home/jubayer/Documents/riscV/EnergyHarvestingDeviceTestbed/FE310/blinky/freedom-metal/src/drivers/riscv_plic0.c:45
    return 0;
20013482:	4781                	li	a5,0
/home/jubayer/Documents/riscV/EnergyHarvestingDeviceTestbed/FE310/blinky/freedom-metal/src/drivers/riscv_plic0.c:46
}
20013484:	853e                	mv	a0,a5
20013486:	50b2                	lw	ra,44(sp)
20013488:	5422                	lw	s0,40(sp)
2001348a:	6145                	addi	sp,sp,48
2001348c:	8082                	ret

2001348e <__metal_plic0_get_threshold>:
__metal_plic0_get_threshold():
/home/jubayer/Documents/riscV/EnergyHarvestingDeviceTestbed/FE310/blinky/freedom-metal/src/drivers/riscv_plic0.c:49

unsigned int __metal_plic0_get_threshold(struct metal_interrupt *controller,
                                         int context_id) {
2001348e:	7179                	addi	sp,sp,-48
20013490:	d606                	sw	ra,44(sp)
20013492:	d422                	sw	s0,40(sp)
20013494:	1800                	addi	s0,sp,48
20013496:	fca42e23          	sw	a0,-36(s0)
2001349a:	fcb42c23          	sw	a1,-40(s0)
/home/jubayer/Documents/riscV/EnergyHarvestingDeviceTestbed/FE310/blinky/freedom-metal/src/drivers/riscv_plic0.c:51
    unsigned long control_base =
        __metal_driver_sifive_plic0_control_base(controller);
2001349e:	fdc42503          	lw	a0,-36(s0)
200134a2:	3581                	jal	200132e2 <__metal_driver_sifive_plic0_control_base>
200134a4:	fea42623          	sw	a0,-20(s0)
/home/jubayer/Documents/riscV/EnergyHarvestingDeviceTestbed/FE310/blinky/freedom-metal/src/drivers/riscv_plic0.c:52
    return __METAL_ACCESS_ONCE(
200134a8:	fd842783          	lw	a5,-40(s0)
200134ac:	00c79713          	slli	a4,a5,0xc
200134b0:	fec42783          	lw	a5,-20(s0)
200134b4:	973e                	add	a4,a4,a5
200134b6:	002007b7          	lui	a5,0x200
200134ba:	97ba                	add	a5,a5,a4
200134bc:	439c                	lw	a5,0(a5)
/home/jubayer/Documents/riscV/EnergyHarvestingDeviceTestbed/FE310/blinky/freedom-metal/src/drivers/riscv_plic0.c:56
        (__metal_io_u32 *)(control_base + METAL_RISCV_PLIC0_CONTEXT_BASE +
                           (context_id * METAL_RISCV_PLIC0_CONTEXT_PER_HART) +
                           METAL_RISCV_PLIC0_CONTEXT_THRESHOLD));
}
200134be:	853e                	mv	a0,a5
200134c0:	50b2                	lw	ra,44(sp)
200134c2:	5422                	lw	s0,40(sp)
200134c4:	6145                	addi	sp,sp,48
200134c6:	8082                	ret

200134c8 <__metal_driver_riscv_plic0_set_priority>:
__metal_driver_riscv_plic0_set_priority():
/home/jubayer/Documents/riscV/EnergyHarvestingDeviceTestbed/FE310/blinky/freedom-metal/src/drivers/riscv_plic0.c:59

int __metal_driver_riscv_plic0_set_priority(struct metal_interrupt *controller,
                                            int id, unsigned int priority) {
200134c8:	7179                	addi	sp,sp,-48
200134ca:	d606                	sw	ra,44(sp)
200134cc:	d422                	sw	s0,40(sp)
200134ce:	1800                	addi	s0,sp,48
200134d0:	fca42e23          	sw	a0,-36(s0)
200134d4:	fcb42c23          	sw	a1,-40(s0)
200134d8:	fcc42a23          	sw	a2,-44(s0)
/home/jubayer/Documents/riscV/EnergyHarvestingDeviceTestbed/FE310/blinky/freedom-metal/src/drivers/riscv_plic0.c:60
    unsigned long control_base = __metal_driver_sifive_plic0_control_base(
200134dc:	fdc42503          	lw	a0,-36(s0)
200134e0:	3509                	jal	200132e2 <__metal_driver_sifive_plic0_control_base>
200134e2:	fea42623          	sw	a0,-20(s0)
/home/jubayer/Documents/riscV/EnergyHarvestingDeviceTestbed/FE310/blinky/freedom-metal/src/drivers/riscv_plic0.c:62
        (struct metal_interrupt *)controller);
    unsigned int max_priority = __metal_driver_sifive_plic0_max_priority(
200134e6:	fdc42503          	lw	a0,-36(s0)
200134ea:	35b1                	jal	20013336 <__metal_driver_sifive_plic0_max_priority>
200134ec:	87aa                	mv	a5,a0
200134ee:	fef42423          	sw	a5,-24(s0)
/home/jubayer/Documents/riscV/EnergyHarvestingDeviceTestbed/FE310/blinky/freedom-metal/src/drivers/riscv_plic0.c:64
        (struct metal_interrupt *)controller);
    if ((max_priority) && (priority < max_priority)) {
200134f2:	fe842783          	lw	a5,-24(s0)
200134f6:	c785                	beqz	a5,2001351e <__metal_driver_riscv_plic0_set_priority+0x56>
/home/jubayer/Documents/riscV/EnergyHarvestingDeviceTestbed/FE310/blinky/freedom-metal/src/drivers/riscv_plic0.c:64 (discriminator 1)
200134f8:	fd442703          	lw	a4,-44(s0)
200134fc:	fe842783          	lw	a5,-24(s0)
20013500:	00f77f63          	bgeu	a4,a5,2001351e <__metal_driver_riscv_plic0_set_priority+0x56>
/home/jubayer/Documents/riscV/EnergyHarvestingDeviceTestbed/FE310/blinky/freedom-metal/src/drivers/riscv_plic0.c:65
        __METAL_ACCESS_ONCE(
20013504:	fd842783          	lw	a5,-40(s0)
20013508:	078a                	slli	a5,a5,0x2
2001350a:	873e                	mv	a4,a5
2001350c:	fec42783          	lw	a5,-20(s0)
20013510:	97ba                	add	a5,a5,a4
20013512:	873e                	mv	a4,a5
/home/jubayer/Documents/riscV/EnergyHarvestingDeviceTestbed/FE310/blinky/freedom-metal/src/drivers/riscv_plic0.c:67
            (__metal_io_u32 *)(control_base + METAL_RISCV_PLIC0_PRIORITY_BASE +
                               (id << METAL_PLIC_SOURCE_PRIORITY_SHIFT))) =
20013514:	fd442783          	lw	a5,-44(s0)
20013518:	c31c                	sw	a5,0(a4)
/home/jubayer/Documents/riscV/EnergyHarvestingDeviceTestbed/FE310/blinky/freedom-metal/src/drivers/riscv_plic0.c:69
            priority;
        return 0;
2001351a:	4781                	li	a5,0
2001351c:	a011                	j	20013520 <__metal_driver_riscv_plic0_set_priority+0x58>
/home/jubayer/Documents/riscV/EnergyHarvestingDeviceTestbed/FE310/blinky/freedom-metal/src/drivers/riscv_plic0.c:71
    }
    return -1;
2001351e:	57fd                	li	a5,-1
/home/jubayer/Documents/riscV/EnergyHarvestingDeviceTestbed/FE310/blinky/freedom-metal/src/drivers/riscv_plic0.c:72
}
20013520:	853e                	mv	a0,a5
20013522:	50b2                	lw	ra,44(sp)
20013524:	5422                	lw	s0,40(sp)
20013526:	6145                	addi	sp,sp,48
20013528:	8082                	ret

2001352a <__metal_driver_riscv_plic0_get_priority>:
__metal_driver_riscv_plic0_get_priority():
/home/jubayer/Documents/riscV/EnergyHarvestingDeviceTestbed/FE310/blinky/freedom-metal/src/drivers/riscv_plic0.c:76

unsigned int
__metal_driver_riscv_plic0_get_priority(struct metal_interrupt *controller,
                                        int id) {
2001352a:	7179                	addi	sp,sp,-48
2001352c:	d606                	sw	ra,44(sp)
2001352e:	d422                	sw	s0,40(sp)
20013530:	1800                	addi	s0,sp,48
20013532:	fca42e23          	sw	a0,-36(s0)
20013536:	fcb42c23          	sw	a1,-40(s0)
/home/jubayer/Documents/riscV/EnergyHarvestingDeviceTestbed/FE310/blinky/freedom-metal/src/drivers/riscv_plic0.c:78
    unsigned long control_base =
        __metal_driver_sifive_plic0_control_base(controller);
2001353a:	fdc42503          	lw	a0,-36(s0)
2001353e:	3355                	jal	200132e2 <__metal_driver_sifive_plic0_control_base>
20013540:	fea42623          	sw	a0,-20(s0)
/home/jubayer/Documents/riscV/EnergyHarvestingDeviceTestbed/FE310/blinky/freedom-metal/src/drivers/riscv_plic0.c:80

    return __METAL_ACCESS_ONCE(
20013544:	fd842783          	lw	a5,-40(s0)
20013548:	078a                	slli	a5,a5,0x2
2001354a:	873e                	mv	a4,a5
2001354c:	fec42783          	lw	a5,-20(s0)
20013550:	97ba                	add	a5,a5,a4
20013552:	439c                	lw	a5,0(a5)
/home/jubayer/Documents/riscV/EnergyHarvestingDeviceTestbed/FE310/blinky/freedom-metal/src/drivers/riscv_plic0.c:83
        (__metal_io_u32 *)(control_base + METAL_RISCV_PLIC0_PRIORITY_BASE +
                           (id << METAL_PLIC_SOURCE_PRIORITY_SHIFT)));
}
20013554:	853e                	mv	a0,a5
20013556:	50b2                	lw	ra,44(sp)
20013558:	5422                	lw	s0,40(sp)
2001355a:	6145                	addi	sp,sp,48
2001355c:	8082                	ret

2001355e <__metal_plic0_enable>:
__metal_plic0_enable():
/home/jubayer/Documents/riscV/EnergyHarvestingDeviceTestbed/FE310/blinky/freedom-metal/src/drivers/riscv_plic0.c:86

int __metal_plic0_enable(struct __metal_driver_riscv_plic0 *plic,
                         int context_id, int id, int enable) {
2001355e:	7179                	addi	sp,sp,-48
20013560:	d606                	sw	ra,44(sp)
20013562:	d422                	sw	s0,40(sp)
20013564:	1800                	addi	s0,sp,48
20013566:	fca42e23          	sw	a0,-36(s0)
2001356a:	fcb42c23          	sw	a1,-40(s0)
2001356e:	fcc42a23          	sw	a2,-44(s0)
20013572:	fcd42823          	sw	a3,-48(s0)
/home/jubayer/Documents/riscV/EnergyHarvestingDeviceTestbed/FE310/blinky/freedom-metal/src/drivers/riscv_plic0.c:88
    unsigned int current;
    unsigned long control_base = __metal_driver_sifive_plic0_control_base(
20013576:	fdc42503          	lw	a0,-36(s0)
2001357a:	33a5                	jal	200132e2 <__metal_driver_sifive_plic0_control_base>
2001357c:	fea42623          	sw	a0,-20(s0)
/home/jubayer/Documents/riscV/EnergyHarvestingDeviceTestbed/FE310/blinky/freedom-metal/src/drivers/riscv_plic0.c:91
        (struct metal_interrupt *)plic);

    current = __METAL_ACCESS_ONCE(
20013580:	fd842783          	lw	a5,-40(s0)
20013584:	00779713          	slli	a4,a5,0x7
20013588:	fec42783          	lw	a5,-20(s0)
2001358c:	97ba                	add	a5,a5,a4
2001358e:	fd442703          	lw	a4,-44(s0)
20013592:	8715                	srai	a4,a4,0x5
20013594:	070a                	slli	a4,a4,0x2
20013596:	973e                	add	a4,a4,a5
20013598:	6789                	lui	a5,0x2
2001359a:	97ba                	add	a5,a5,a4
2001359c:	439c                	lw	a5,0(a5)
2001359e:	fef42423          	sw	a5,-24(s0)
/home/jubayer/Documents/riscV/EnergyHarvestingDeviceTestbed/FE310/blinky/freedom-metal/src/drivers/riscv_plic0.c:100
    __METAL_ACCESS_ONCE(
        (__metal_io_u32 *)(control_base + METAL_RISCV_PLIC0_ENABLE_BASE +
                           (context_id * METAL_RISCV_PLIC0_ENABLE_PER_HART) +
                           ((id >> METAL_PLIC_SOURCE_SHIFT) * 4))) =
        enable ? (current | (1 << (id & METAL_PLIC_SOURCE_MASK)))
               : (current & ~(1 << (id & METAL_PLIC_SOURCE_MASK)));
200135a2:	fd042783          	lw	a5,-48(s0)
200135a6:	cf81                	beqz	a5,200135be <__metal_plic0_enable+0x60>
/home/jubayer/Documents/riscV/EnergyHarvestingDeviceTestbed/FE310/blinky/freedom-metal/src/drivers/riscv_plic0.c:99 (discriminator 1)
        enable ? (current | (1 << (id & METAL_PLIC_SOURCE_MASK)))
200135a8:	fd442783          	lw	a5,-44(s0)
200135ac:	8bfd                	andi	a5,a5,31
200135ae:	4705                	li	a4,1
200135b0:	00f717b3          	sll	a5,a4,a5
200135b4:	873e                	mv	a4,a5
/home/jubayer/Documents/riscV/EnergyHarvestingDeviceTestbed/FE310/blinky/freedom-metal/src/drivers/riscv_plic0.c:100 (discriminator 1)
               : (current & ~(1 << (id & METAL_PLIC_SOURCE_MASK)));
200135b6:	fe842783          	lw	a5,-24(s0)
200135ba:	8fd9                	or	a5,a5,a4
200135bc:	a829                	j	200135d6 <__metal_plic0_enable+0x78>
/home/jubayer/Documents/riscV/EnergyHarvestingDeviceTestbed/FE310/blinky/freedom-metal/src/drivers/riscv_plic0.c:100 (discriminator 2)
200135be:	fd442783          	lw	a5,-44(s0)
200135c2:	8bfd                	andi	a5,a5,31
200135c4:	4705                	li	a4,1
200135c6:	00f717b3          	sll	a5,a4,a5
200135ca:	fff7c793          	not	a5,a5
200135ce:	873e                	mv	a4,a5
200135d0:	fe842783          	lw	a5,-24(s0)
200135d4:	8ff9                	and	a5,a5,a4
/home/jubayer/Documents/riscV/EnergyHarvestingDeviceTestbed/FE310/blinky/freedom-metal/src/drivers/riscv_plic0.c:95
    __METAL_ACCESS_ONCE(
200135d6:	fd842703          	lw	a4,-40(s0)
200135da:	00771693          	slli	a3,a4,0x7
200135de:	fec42703          	lw	a4,-20(s0)
200135e2:	9736                	add	a4,a4,a3
200135e4:	fd442683          	lw	a3,-44(s0)
200135e8:	8695                	srai	a3,a3,0x5
200135ea:	068a                	slli	a3,a3,0x2
200135ec:	96ba                	add	a3,a3,a4
200135ee:	6709                	lui	a4,0x2
200135f0:	9736                	add	a4,a4,a3
/home/jubayer/Documents/riscV/EnergyHarvestingDeviceTestbed/FE310/blinky/freedom-metal/src/drivers/riscv_plic0.c:98
                           ((id >> METAL_PLIC_SOURCE_SHIFT) * 4))) =
200135f2:	c31c                	sw	a5,0(a4)
/home/jubayer/Documents/riscV/EnergyHarvestingDeviceTestbed/FE310/blinky/freedom-metal/src/drivers/riscv_plic0.c:102

    return 0;
200135f4:	4781                	li	a5,0
/home/jubayer/Documents/riscV/EnergyHarvestingDeviceTestbed/FE310/blinky/freedom-metal/src/drivers/riscv_plic0.c:103
}
200135f6:	853e                	mv	a0,a5
200135f8:	50b2                	lw	ra,44(sp)
200135fa:	5422                	lw	s0,40(sp)
200135fc:	6145                	addi	sp,sp,48
200135fe:	8082                	ret

20013600 <__metal_plic0_default_handler>:
__metal_plic0_default_handler():
/home/jubayer/Documents/riscV/EnergyHarvestingDeviceTestbed/FE310/blinky/freedom-metal/src/drivers/riscv_plic0.c:105

void __metal_plic0_default_handler(int id, void *priv) { metal_shutdown(300); }
20013600:	1101                	addi	sp,sp,-32
20013602:	ce06                	sw	ra,28(sp)
20013604:	cc22                	sw	s0,24(sp)
20013606:	1000                	addi	s0,sp,32
20013608:	fea42623          	sw	a0,-20(s0)
2001360c:	feb42423          	sw	a1,-24(s0)
20013610:	12c00513          	li	a0,300
20013614:	291010ef          	jal	ra,200150a4 <metal_shutdown>

20013618 <__metal_plic0_handler>:
__metal_plic0_handler():
/home/jubayer/Documents/riscV/EnergyHarvestingDeviceTestbed/FE310/blinky/freedom-metal/src/drivers/riscv_plic0.c:107

void __metal_plic0_handler(int id, void *priv) {
20013618:	7179                	addi	sp,sp,-48
2001361a:	d606                	sw	ra,44(sp)
2001361c:	d422                	sw	s0,40(sp)
2001361e:	1800                	addi	s0,sp,48
20013620:	fca42e23          	sw	a0,-36(s0)
20013624:	fcb42c23          	sw	a1,-40(s0)
/home/jubayer/Documents/riscV/EnergyHarvestingDeviceTestbed/FE310/blinky/freedom-metal/src/drivers/riscv_plic0.c:108
    struct __metal_driver_riscv_plic0 *plic = priv;
20013628:	fd842783          	lw	a5,-40(s0)
2001362c:	fef42623          	sw	a5,-20(s0)
/home/jubayer/Documents/riscV/EnergyHarvestingDeviceTestbed/FE310/blinky/freedom-metal/src/drivers/riscv_plic0.c:110
    int contextid =
        __metal_driver_sifive_plic0_context_ids(__metal_myhart_id());
20013630:	b60fe0ef          	jal	ra,20011990 <__metal_myhart_id>
20013634:	87aa                	mv	a5,a0
20013636:	853e                	mv	a0,a5
20013638:	3b85                	jal	200133a8 <__metal_driver_sifive_plic0_context_ids>
2001363a:	fea42423          	sw	a0,-24(s0)
/home/jubayer/Documents/riscV/EnergyHarvestingDeviceTestbed/FE310/blinky/freedom-metal/src/drivers/riscv_plic0.c:111
    unsigned int idx = __metal_plic0_claim_interrupt(plic, contextid);
2001363e:	fe842583          	lw	a1,-24(s0)
20013642:	fec42503          	lw	a0,-20(s0)
20013646:	3341                	jal	200133c6 <__metal_plic0_claim_interrupt>
20013648:	fea42223          	sw	a0,-28(s0)
/home/jubayer/Documents/riscV/EnergyHarvestingDeviceTestbed/FE310/blinky/freedom-metal/src/drivers/riscv_plic0.c:112
    unsigned int num_interrupts = __metal_driver_sifive_plic0_num_interrupts(
2001364c:	fec42503          	lw	a0,-20(s0)
20013650:	3975                	jal	2001330c <__metal_driver_sifive_plic0_num_interrupts>
20013652:	87aa                	mv	a5,a0
20013654:	fef42023          	sw	a5,-32(s0)
/home/jubayer/Documents/riscV/EnergyHarvestingDeviceTestbed/FE310/blinky/freedom-metal/src/drivers/riscv_plic0.c:115
        (struct metal_interrupt *)plic);

    if ((idx < num_interrupts) && (plic->metal_exint_table[idx])) {
20013658:	fe442703          	lw	a4,-28(s0)
2001365c:	fe042783          	lw	a5,-32(s0)
20013660:	04f77263          	bgeu	a4,a5,200136a4 <__metal_plic0_handler+0x8c>
/home/jubayer/Documents/riscV/EnergyHarvestingDeviceTestbed/FE310/blinky/freedom-metal/src/drivers/riscv_plic0.c:115 (discriminator 1)
20013664:	fec42703          	lw	a4,-20(s0)
20013668:	fe442783          	lw	a5,-28(s0)
2001366c:	078a                	slli	a5,a5,0x2
2001366e:	97ba                	add	a5,a5,a4
20013670:	479c                	lw	a5,8(a5)
20013672:	cb8d                	beqz	a5,200136a4 <__metal_plic0_handler+0x8c>
/home/jubayer/Documents/riscV/EnergyHarvestingDeviceTestbed/FE310/blinky/freedom-metal/src/drivers/riscv_plic0.c:116
        plic->metal_exint_table[idx](idx,
20013674:	fec42703          	lw	a4,-20(s0)
20013678:	fe442783          	lw	a5,-28(s0)
2001367c:	078a                	slli	a5,a5,0x2
2001367e:	97ba                	add	a5,a5,a4
20013680:	0087a803          	lw	a6,8(a5) # 2008 <__heap_size+0x1808>
20013684:	fe442603          	lw	a2,-28(s0)
20013688:	fec42683          	lw	a3,-20(s0)
2001368c:	fe442703          	lw	a4,-28(s0)
20013690:	87ba                	mv	a5,a4
20013692:	0786                	slli	a5,a5,0x1
20013694:	97ba                	add	a5,a5,a4
20013696:	078e                	slli	a5,a5,0x3
20013698:	97b6                	add	a5,a5,a3
2001369a:	0f07a783          	lw	a5,240(a5)
2001369e:	85be                	mv	a1,a5
200136a0:	8532                	mv	a0,a2
200136a2:	9802                	jalr	a6
/home/jubayer/Documents/riscV/EnergyHarvestingDeviceTestbed/FE310/blinky/freedom-metal/src/drivers/riscv_plic0.c:120
                                     plic->metal_exdata_table[idx].exint_data);
    }

    __metal_plic0_complete_interrupt(plic, contextid, idx);
200136a4:	fe442603          	lw	a2,-28(s0)
200136a8:	fe842583          	lw	a1,-24(s0)
200136ac:	fec42503          	lw	a0,-20(s0)
200136b0:	3b89                	jal	20013402 <__metal_plic0_complete_interrupt>
/home/jubayer/Documents/riscV/EnergyHarvestingDeviceTestbed/FE310/blinky/freedom-metal/src/drivers/riscv_plic0.c:121
}
200136b2:	0001                	nop
200136b4:	50b2                	lw	ra,44(sp)
200136b6:	5422                	lw	s0,40(sp)
200136b8:	6145                	addi	sp,sp,48
200136ba:	8082                	ret

200136bc <__metal_driver_riscv_plic0_init>:
__metal_driver_riscv_plic0_init():
/home/jubayer/Documents/riscV/EnergyHarvestingDeviceTestbed/FE310/blinky/freedom-metal/src/drivers/riscv_plic0.c:123

void __metal_driver_riscv_plic0_init(struct metal_interrupt *controller) {
200136bc:	7139                	addi	sp,sp,-64
200136be:	de06                	sw	ra,60(sp)
200136c0:	dc22                	sw	s0,56(sp)
200136c2:	0080                	addi	s0,sp,64
200136c4:	fca42623          	sw	a0,-52(s0)
/home/jubayer/Documents/riscV/EnergyHarvestingDeviceTestbed/FE310/blinky/freedom-metal/src/drivers/riscv_plic0.c:124
    struct __metal_driver_riscv_plic0 *plic = (void *)(controller);
200136c8:	fcc42783          	lw	a5,-52(s0)
200136cc:	fef42223          	sw	a5,-28(s0)
/home/jubayer/Documents/riscV/EnergyHarvestingDeviceTestbed/FE310/blinky/freedom-metal/src/drivers/riscv_plic0.c:126

    if (!plic->init_done) {
200136d0:	fe442783          	lw	a5,-28(s0)
200136d4:	43dc                	lw	a5,4(a5)
200136d6:	12079663          	bnez	a5,20013802 <__metal_driver_riscv_plic0_init+0x146>
/home/jubayer/Documents/riscV/EnergyHarvestingDeviceTestbed/FE310/blinky/freedom-metal/src/drivers/riscv_plic0.c:130
        int num_interrupts, line;
        struct metal_interrupt *intc;

        for (int parent = 0; parent < __METAL_PLIC_NUM_PARENTS; parent++) {
200136da:	fe042623          	sw	zero,-20(s0)
200136de:	aa11                	j	200137f2 <__metal_driver_riscv_plic0_init+0x136>
/home/jubayer/Documents/riscV/EnergyHarvestingDeviceTestbed/FE310/blinky/freedom-metal/src/drivers/riscv_plic0.c:132
            num_interrupts =
                __metal_driver_sifive_plic0_num_interrupts(controller);
200136e0:	fcc42503          	lw	a0,-52(s0)
200136e4:	3125                	jal	2001330c <__metal_driver_sifive_plic0_num_interrupts>
200136e6:	fea42023          	sw	a0,-32(s0)
/home/jubayer/Documents/riscV/EnergyHarvestingDeviceTestbed/FE310/blinky/freedom-metal/src/drivers/riscv_plic0.c:133
            intc = __metal_driver_sifive_plic0_interrupt_parents(controller,
200136ea:	fec42583          	lw	a1,-20(s0)
200136ee:	fcc42503          	lw	a0,-52(s0)
200136f2:	31b5                	jal	2001335e <__metal_driver_sifive_plic0_interrupt_parents>
200136f4:	fca42e23          	sw	a0,-36(s0)
/home/jubayer/Documents/riscV/EnergyHarvestingDeviceTestbed/FE310/blinky/freedom-metal/src/drivers/riscv_plic0.c:136
                                                                 parent);
            line =
                __metal_driver_sifive_plic0_interrupt_lines(controller, parent);
200136f8:	fec42583          	lw	a1,-20(s0)
200136fc:	fcc42503          	lw	a0,-52(s0)
20013700:	3159                	jal	20013386 <__metal_driver_sifive_plic0_interrupt_lines>
20013702:	fca42c23          	sw	a0,-40(s0)
/home/jubayer/Documents/riscV/EnergyHarvestingDeviceTestbed/FE310/blinky/freedom-metal/src/drivers/riscv_plic0.c:139

            /* Initialize ist parent controller, aka cpu_intc. */
            intc->vtable->interrupt_init(intc);
20013706:	fdc42783          	lw	a5,-36(s0)
2001370a:	439c                	lw	a5,0(a5)
2001370c:	439c                	lw	a5,0(a5)
2001370e:	fdc42503          	lw	a0,-36(s0)
20013712:	9782                	jalr	a5
/home/jubayer/Documents/riscV/EnergyHarvestingDeviceTestbed/FE310/blinky/freedom-metal/src/drivers/riscv_plic0.c:141

            for (int i = 0; i < PLIC0_MAX_INTERRUPTS; i++) {
20013714:	fe042423          	sw	zero,-24(s0)
20013718:	a885                	j	20013788 <__metal_driver_riscv_plic0_init+0xcc>
/home/jubayer/Documents/riscV/EnergyHarvestingDeviceTestbed/FE310/blinky/freedom-metal/src/drivers/riscv_plic0.c:142
                __metal_plic0_enable(plic, parent, i, METAL_DISABLE);
2001371a:	4681                	li	a3,0
2001371c:	fe842603          	lw	a2,-24(s0)
20013720:	fec42583          	lw	a1,-20(s0)
20013724:	fe442503          	lw	a0,-28(s0)
20013728:	3d1d                	jal	2001355e <__metal_plic0_enable>
/home/jubayer/Documents/riscV/EnergyHarvestingDeviceTestbed/FE310/blinky/freedom-metal/src/drivers/riscv_plic0.c:143
                if (i < num_interrupts) {
2001372a:	fe842703          	lw	a4,-24(s0)
2001372e:	fe042783          	lw	a5,-32(s0)
20013732:	04f75663          	bge	a4,a5,2001377e <__metal_driver_riscv_plic0_init+0xc2>
/home/jubayer/Documents/riscV/EnergyHarvestingDeviceTestbed/FE310/blinky/freedom-metal/src/drivers/riscv_plic0.c:144
                    __metal_driver_riscv_plic0_set_priority(controller, i, 0);
20013736:	4601                	li	a2,0
20013738:	fe842583          	lw	a1,-24(s0)
2001373c:	fcc42503          	lw	a0,-52(s0)
20013740:	3361                	jal	200134c8 <__metal_driver_riscv_plic0_set_priority>
/home/jubayer/Documents/riscV/EnergyHarvestingDeviceTestbed/FE310/blinky/freedom-metal/src/drivers/riscv_plic0.c:145
                    plic->metal_exint_table[i] = NULL;
20013742:	fe442703          	lw	a4,-28(s0)
20013746:	fe842783          	lw	a5,-24(s0)
2001374a:	078a                	slli	a5,a5,0x2
2001374c:	97ba                	add	a5,a5,a4
2001374e:	0007a423          	sw	zero,8(a5)
/home/jubayer/Documents/riscV/EnergyHarvestingDeviceTestbed/FE310/blinky/freedom-metal/src/drivers/riscv_plic0.c:146
                    plic->metal_exdata_table[i].sub_int = NULL;
20013752:	fe442683          	lw	a3,-28(s0)
20013756:	fe842703          	lw	a4,-24(s0)
2001375a:	87ba                	mv	a5,a4
2001375c:	0786                	slli	a5,a5,0x1
2001375e:	97ba                	add	a5,a5,a4
20013760:	078e                	slli	a5,a5,0x3
20013762:	97b6                	add	a5,a5,a3
20013764:	0e07a623          	sw	zero,236(a5)
/home/jubayer/Documents/riscV/EnergyHarvestingDeviceTestbed/FE310/blinky/freedom-metal/src/drivers/riscv_plic0.c:147
                    plic->metal_exdata_table[i].exint_data = NULL;
20013768:	fe442683          	lw	a3,-28(s0)
2001376c:	fe842703          	lw	a4,-24(s0)
20013770:	87ba                	mv	a5,a4
20013772:	0786                	slli	a5,a5,0x1
20013774:	97ba                	add	a5,a5,a4
20013776:	078e                	slli	a5,a5,0x3
20013778:	97b6                	add	a5,a5,a3
2001377a:	0e07a823          	sw	zero,240(a5)
/home/jubayer/Documents/riscV/EnergyHarvestingDeviceTestbed/FE310/blinky/freedom-metal/src/drivers/riscv_plic0.c:141 (discriminator 2)
            for (int i = 0; i < PLIC0_MAX_INTERRUPTS; i++) {
2001377e:	fe842783          	lw	a5,-24(s0)
20013782:	0785                	addi	a5,a5,1
20013784:	fef42423          	sw	a5,-24(s0)
/home/jubayer/Documents/riscV/EnergyHarvestingDeviceTestbed/FE310/blinky/freedom-metal/src/drivers/riscv_plic0.c:141 (discriminator 1)
20013788:	fe842703          	lw	a4,-24(s0)
2001378c:	3ff00793          	li	a5,1023
20013790:	f8e7d5e3          	bge	a5,a4,2001371a <__metal_driver_riscv_plic0_init+0x5e>
/home/jubayer/Documents/riscV/EnergyHarvestingDeviceTestbed/FE310/blinky/freedom-metal/src/drivers/riscv_plic0.c:151 (discriminator 2)
                }
            }

            __metal_plic0_set_threshold(controller, parent, 0);
20013794:	4601                	li	a2,0
20013796:	fec42583          	lw	a1,-20(s0)
2001379a:	fcc42503          	lw	a0,-52(s0)
2001379e:	316d                	jal	20013448 <__metal_plic0_set_threshold>
/home/jubayer/Documents/riscV/EnergyHarvestingDeviceTestbed/FE310/blinky/freedom-metal/src/drivers/riscv_plic0.c:154 (discriminator 2)

            /* Register plic (ext) interrupt with with parent controller */
            intc->vtable->interrupt_register(intc, line, NULL, plic);
200137a0:	fdc42783          	lw	a5,-36(s0)
200137a4:	439c                	lw	a5,0(a5)
200137a6:	4fdc                	lw	a5,28(a5)
200137a8:	fe442683          	lw	a3,-28(s0)
200137ac:	4601                	li	a2,0
200137ae:	fd842583          	lw	a1,-40(s0)
200137b2:	fdc42503          	lw	a0,-36(s0)
200137b6:	9782                	jalr	a5
/home/jubayer/Documents/riscV/EnergyHarvestingDeviceTestbed/FE310/blinky/freedom-metal/src/drivers/riscv_plic0.c:156 (discriminator 2)
            /* Register plic handler for dispatching its device interrupts */
            intc->vtable->interrupt_register(intc, line, __metal_plic0_handler,
200137b8:	fdc42783          	lw	a5,-36(s0)
200137bc:	439c                	lw	a5,0(a5)
200137be:	4fd8                	lw	a4,28(a5)
200137c0:	fe442683          	lw	a3,-28(s0)
200137c4:	200137b7          	lui	a5,0x20013
200137c8:	61878613          	addi	a2,a5,1560 # 20013618 <__metal_plic0_handler>
200137cc:	fd842583          	lw	a1,-40(s0)
200137d0:	fdc42503          	lw	a0,-36(s0)
200137d4:	9702                	jalr	a4
/home/jubayer/Documents/riscV/EnergyHarvestingDeviceTestbed/FE310/blinky/freedom-metal/src/drivers/riscv_plic0.c:159 (discriminator 2)
                                             plic);
            /* Enable plic (ext) interrupt with with parent controller */
            intc->vtable->interrupt_enable(intc, line);
200137d6:	fdc42783          	lw	a5,-36(s0)
200137da:	439c                	lw	a5,0(a5)
200137dc:	53dc                	lw	a5,36(a5)
200137de:	fd842583          	lw	a1,-40(s0)
200137e2:	fdc42503          	lw	a0,-36(s0)
200137e6:	9782                	jalr	a5
/home/jubayer/Documents/riscV/EnergyHarvestingDeviceTestbed/FE310/blinky/freedom-metal/src/drivers/riscv_plic0.c:130 (discriminator 2)
        for (int parent = 0; parent < __METAL_PLIC_NUM_PARENTS; parent++) {
200137e8:	fec42783          	lw	a5,-20(s0)
200137ec:	0785                	addi	a5,a5,1
200137ee:	fef42623          	sw	a5,-20(s0)
/home/jubayer/Documents/riscV/EnergyHarvestingDeviceTestbed/FE310/blinky/freedom-metal/src/drivers/riscv_plic0.c:130 (discriminator 1)
200137f2:	fec42783          	lw	a5,-20(s0)
200137f6:	eef055e3          	blez	a5,200136e0 <__metal_driver_riscv_plic0_init+0x24>
/home/jubayer/Documents/riscV/EnergyHarvestingDeviceTestbed/FE310/blinky/freedom-metal/src/drivers/riscv_plic0.c:161
        }
        plic->init_done = 1;
200137fa:	fe442783          	lw	a5,-28(s0)
200137fe:	4705                	li	a4,1
20013800:	c3d8                	sw	a4,4(a5)
/home/jubayer/Documents/riscV/EnergyHarvestingDeviceTestbed/FE310/blinky/freedom-metal/src/drivers/riscv_plic0.c:163
    }
}
20013802:	0001                	nop
20013804:	50f2                	lw	ra,60(sp)
20013806:	5462                	lw	s0,56(sp)
20013808:	6121                	addi	sp,sp,64
2001380a:	8082                	ret

2001380c <__metal_driver_riscv_plic0_register>:
__metal_driver_riscv_plic0_register():
/home/jubayer/Documents/riscV/EnergyHarvestingDeviceTestbed/FE310/blinky/freedom-metal/src/drivers/riscv_plic0.c:167

int __metal_driver_riscv_plic0_register(struct metal_interrupt *controller,
                                        int id, metal_interrupt_handler_t isr,
                                        void *priv) {
2001380c:	7179                	addi	sp,sp,-48
2001380e:	d606                	sw	ra,44(sp)
20013810:	d422                	sw	s0,40(sp)
20013812:	1800                	addi	s0,sp,48
20013814:	fca42e23          	sw	a0,-36(s0)
20013818:	fcb42c23          	sw	a1,-40(s0)
2001381c:	fcc42a23          	sw	a2,-44(s0)
20013820:	fcd42823          	sw	a3,-48(s0)
/home/jubayer/Documents/riscV/EnergyHarvestingDeviceTestbed/FE310/blinky/freedom-metal/src/drivers/riscv_plic0.c:168
    struct __metal_driver_riscv_plic0 *plic = (void *)(controller);
20013824:	fdc42783          	lw	a5,-36(s0)
20013828:	fef42623          	sw	a5,-20(s0)
/home/jubayer/Documents/riscV/EnergyHarvestingDeviceTestbed/FE310/blinky/freedom-metal/src/drivers/riscv_plic0.c:170

    if (id >= __metal_driver_sifive_plic0_num_interrupts(controller)) {
2001382c:	fdc42503          	lw	a0,-36(s0)
20013830:	addff0ef          	jal	ra,2001330c <__metal_driver_sifive_plic0_num_interrupts>
20013834:	872a                	mv	a4,a0
20013836:	fd842783          	lw	a5,-40(s0)
2001383a:	00e7c463          	blt	a5,a4,20013842 <__metal_driver_riscv_plic0_register+0x36>
/home/jubayer/Documents/riscV/EnergyHarvestingDeviceTestbed/FE310/blinky/freedom-metal/src/drivers/riscv_plic0.c:171
        return -1;
2001383e:	57fd                	li	a5,-1
20013840:	a041                	j	200138c0 <__metal_driver_riscv_plic0_register+0xb4>
/home/jubayer/Documents/riscV/EnergyHarvestingDeviceTestbed/FE310/blinky/freedom-metal/src/drivers/riscv_plic0.c:174
    }

    if (isr) {
20013842:	fd442783          	lw	a5,-44(s0)
20013846:	cf95                	beqz	a5,20013882 <__metal_driver_riscv_plic0_register+0x76>
/home/jubayer/Documents/riscV/EnergyHarvestingDeviceTestbed/FE310/blinky/freedom-metal/src/drivers/riscv_plic0.c:175
        __metal_driver_riscv_plic0_set_priority(controller, id, 2);
20013848:	4609                	li	a2,2
2001384a:	fd842583          	lw	a1,-40(s0)
2001384e:	fdc42503          	lw	a0,-36(s0)
20013852:	399d                	jal	200134c8 <__metal_driver_riscv_plic0_set_priority>
/home/jubayer/Documents/riscV/EnergyHarvestingDeviceTestbed/FE310/blinky/freedom-metal/src/drivers/riscv_plic0.c:176
        plic->metal_exint_table[id] = isr;
20013854:	fec42703          	lw	a4,-20(s0)
20013858:	fd842783          	lw	a5,-40(s0)
2001385c:	078a                	slli	a5,a5,0x2
2001385e:	97ba                	add	a5,a5,a4
20013860:	fd442703          	lw	a4,-44(s0)
20013864:	c798                	sw	a4,8(a5)
/home/jubayer/Documents/riscV/EnergyHarvestingDeviceTestbed/FE310/blinky/freedom-metal/src/drivers/riscv_plic0.c:177
        plic->metal_exdata_table[id].exint_data = priv;
20013866:	fec42683          	lw	a3,-20(s0)
2001386a:	fd842703          	lw	a4,-40(s0)
2001386e:	87ba                	mv	a5,a4
20013870:	0786                	slli	a5,a5,0x1
20013872:	97ba                	add	a5,a5,a4
20013874:	078e                	slli	a5,a5,0x3
20013876:	97b6                	add	a5,a5,a3
20013878:	fd042703          	lw	a4,-48(s0)
2001387c:	0ee7a823          	sw	a4,240(a5)
20013880:	a83d                	j	200138be <__metal_driver_riscv_plic0_register+0xb2>
/home/jubayer/Documents/riscV/EnergyHarvestingDeviceTestbed/FE310/blinky/freedom-metal/src/drivers/riscv_plic0.c:179
    } else {
        __metal_driver_riscv_plic0_set_priority(controller, id, 1);
20013882:	4605                	li	a2,1
20013884:	fd842583          	lw	a1,-40(s0)
20013888:	fdc42503          	lw	a0,-36(s0)
2001388c:	3935                	jal	200134c8 <__metal_driver_riscv_plic0_set_priority>
/home/jubayer/Documents/riscV/EnergyHarvestingDeviceTestbed/FE310/blinky/freedom-metal/src/drivers/riscv_plic0.c:180
        plic->metal_exint_table[id] = __metal_plic0_default_handler;
2001388e:	fec42703          	lw	a4,-20(s0)
20013892:	fd842783          	lw	a5,-40(s0)
20013896:	078a                	slli	a5,a5,0x2
20013898:	97ba                	add	a5,a5,a4
2001389a:	20013737          	lui	a4,0x20013
2001389e:	60070713          	addi	a4,a4,1536 # 20013600 <__metal_plic0_default_handler>
200138a2:	c798                	sw	a4,8(a5)
/home/jubayer/Documents/riscV/EnergyHarvestingDeviceTestbed/FE310/blinky/freedom-metal/src/drivers/riscv_plic0.c:181
        plic->metal_exdata_table[id].sub_int = priv;
200138a4:	fec42683          	lw	a3,-20(s0)
200138a8:	fd842703          	lw	a4,-40(s0)
200138ac:	87ba                	mv	a5,a4
200138ae:	0786                	slli	a5,a5,0x1
200138b0:	97ba                	add	a5,a5,a4
200138b2:	078e                	slli	a5,a5,0x3
200138b4:	97b6                	add	a5,a5,a3
200138b6:	fd042703          	lw	a4,-48(s0)
200138ba:	0ee7a623          	sw	a4,236(a5)
/home/jubayer/Documents/riscV/EnergyHarvestingDeviceTestbed/FE310/blinky/freedom-metal/src/drivers/riscv_plic0.c:184
    }

    return 0;
200138be:	4781                	li	a5,0
/home/jubayer/Documents/riscV/EnergyHarvestingDeviceTestbed/FE310/blinky/freedom-metal/src/drivers/riscv_plic0.c:185
}
200138c0:	853e                	mv	a0,a5
200138c2:	50b2                	lw	ra,44(sp)
200138c4:	5422                	lw	s0,40(sp)
200138c6:	6145                	addi	sp,sp,48
200138c8:	8082                	ret

200138ca <__metal_driver_riscv_plic0_enable>:
__metal_driver_riscv_plic0_enable():
/home/jubayer/Documents/riscV/EnergyHarvestingDeviceTestbed/FE310/blinky/freedom-metal/src/drivers/riscv_plic0.c:188

int __metal_driver_riscv_plic0_enable(struct metal_interrupt *controller,
                                      int id) {
200138ca:	7179                	addi	sp,sp,-48
200138cc:	d606                	sw	ra,44(sp)
200138ce:	d422                	sw	s0,40(sp)
200138d0:	1800                	addi	s0,sp,48
200138d2:	fca42e23          	sw	a0,-36(s0)
200138d6:	fcb42c23          	sw	a1,-40(s0)
/home/jubayer/Documents/riscV/EnergyHarvestingDeviceTestbed/FE310/blinky/freedom-metal/src/drivers/riscv_plic0.c:189
    struct __metal_driver_riscv_plic0 *plic = (void *)(controller);
200138da:	fdc42783          	lw	a5,-36(s0)
200138de:	fef42623          	sw	a5,-20(s0)
/home/jubayer/Documents/riscV/EnergyHarvestingDeviceTestbed/FE310/blinky/freedom-metal/src/drivers/riscv_plic0.c:191

    if (id >= __metal_driver_sifive_plic0_num_interrupts(controller)) {
200138e2:	fdc42503          	lw	a0,-36(s0)
200138e6:	a27ff0ef          	jal	ra,2001330c <__metal_driver_sifive_plic0_num_interrupts>
200138ea:	872a                	mv	a4,a0
200138ec:	fd842783          	lw	a5,-40(s0)
200138f0:	00e7c463          	blt	a5,a4,200138f8 <__metal_driver_riscv_plic0_enable+0x2e>
/home/jubayer/Documents/riscV/EnergyHarvestingDeviceTestbed/FE310/blinky/freedom-metal/src/drivers/riscv_plic0.c:192
        return -1;
200138f4:	57fd                	li	a5,-1
200138f6:	a821                	j	2001390e <__metal_driver_riscv_plic0_enable+0x44>
/home/jubayer/Documents/riscV/EnergyHarvestingDeviceTestbed/FE310/blinky/freedom-metal/src/drivers/riscv_plic0.c:195
    }

    __metal_plic0_enable(plic, __metal_myhart_id(), id, METAL_ENABLE);
200138f8:	898fe0ef          	jal	ra,20011990 <__metal_myhart_id>
200138fc:	87aa                	mv	a5,a0
200138fe:	4685                	li	a3,1
20013900:	fd842603          	lw	a2,-40(s0)
20013904:	85be                	mv	a1,a5
20013906:	fec42503          	lw	a0,-20(s0)
2001390a:	3991                	jal	2001355e <__metal_plic0_enable>
/home/jubayer/Documents/riscV/EnergyHarvestingDeviceTestbed/FE310/blinky/freedom-metal/src/drivers/riscv_plic0.c:196
    return 0;
2001390c:	4781                	li	a5,0
/home/jubayer/Documents/riscV/EnergyHarvestingDeviceTestbed/FE310/blinky/freedom-metal/src/drivers/riscv_plic0.c:197
}
2001390e:	853e                	mv	a0,a5
20013910:	50b2                	lw	ra,44(sp)
20013912:	5422                	lw	s0,40(sp)
20013914:	6145                	addi	sp,sp,48
20013916:	8082                	ret

20013918 <__metal_driver_riscv_plic0_disable>:
__metal_driver_riscv_plic0_disable():
/home/jubayer/Documents/riscV/EnergyHarvestingDeviceTestbed/FE310/blinky/freedom-metal/src/drivers/riscv_plic0.c:200

int __metal_driver_riscv_plic0_disable(struct metal_interrupt *controller,
                                       int id) {
20013918:	7179                	addi	sp,sp,-48
2001391a:	d606                	sw	ra,44(sp)
2001391c:	d422                	sw	s0,40(sp)
2001391e:	1800                	addi	s0,sp,48
20013920:	fca42e23          	sw	a0,-36(s0)
20013924:	fcb42c23          	sw	a1,-40(s0)
/home/jubayer/Documents/riscV/EnergyHarvestingDeviceTestbed/FE310/blinky/freedom-metal/src/drivers/riscv_plic0.c:201
    struct __metal_driver_riscv_plic0 *plic = (void *)(controller);
20013928:	fdc42783          	lw	a5,-36(s0)
2001392c:	fef42623          	sw	a5,-20(s0)
/home/jubayer/Documents/riscV/EnergyHarvestingDeviceTestbed/FE310/blinky/freedom-metal/src/drivers/riscv_plic0.c:203

    if (id >= __metal_driver_sifive_plic0_num_interrupts(controller)) {
20013930:	fdc42503          	lw	a0,-36(s0)
20013934:	9d9ff0ef          	jal	ra,2001330c <__metal_driver_sifive_plic0_num_interrupts>
20013938:	872a                	mv	a4,a0
2001393a:	fd842783          	lw	a5,-40(s0)
2001393e:	00e7c463          	blt	a5,a4,20013946 <__metal_driver_riscv_plic0_disable+0x2e>
/home/jubayer/Documents/riscV/EnergyHarvestingDeviceTestbed/FE310/blinky/freedom-metal/src/drivers/riscv_plic0.c:204
        return -1;
20013942:	57fd                	li	a5,-1
20013944:	a821                	j	2001395c <__metal_driver_riscv_plic0_disable+0x44>
/home/jubayer/Documents/riscV/EnergyHarvestingDeviceTestbed/FE310/blinky/freedom-metal/src/drivers/riscv_plic0.c:206
    }
    __metal_plic0_enable(plic, __metal_myhart_id(), id, METAL_DISABLE);
20013946:	84afe0ef          	jal	ra,20011990 <__metal_myhart_id>
2001394a:	87aa                	mv	a5,a0
2001394c:	4681                	li	a3,0
2001394e:	fd842603          	lw	a2,-40(s0)
20013952:	85be                	mv	a1,a5
20013954:	fec42503          	lw	a0,-20(s0)
20013958:	3119                	jal	2001355e <__metal_plic0_enable>
/home/jubayer/Documents/riscV/EnergyHarvestingDeviceTestbed/FE310/blinky/freedom-metal/src/drivers/riscv_plic0.c:207
    return 0;
2001395a:	4781                	li	a5,0
/home/jubayer/Documents/riscV/EnergyHarvestingDeviceTestbed/FE310/blinky/freedom-metal/src/drivers/riscv_plic0.c:208
}
2001395c:	853e                	mv	a0,a5
2001395e:	50b2                	lw	ra,44(sp)
20013960:	5422                	lw	s0,40(sp)
20013962:	6145                	addi	sp,sp,48
20013964:	8082                	ret

20013966 <__metal_driver_riscv_plic0_set_threshold>:
__metal_driver_riscv_plic0_set_threshold():
/home/jubayer/Documents/riscV/EnergyHarvestingDeviceTestbed/FE310/blinky/freedom-metal/src/drivers/riscv_plic0.c:211

int __metal_driver_riscv_plic0_set_threshold(struct metal_interrupt *controller,
                                             unsigned int threshold) {
20013966:	1101                	addi	sp,sp,-32
20013968:	ce06                	sw	ra,28(sp)
2001396a:	cc22                	sw	s0,24(sp)
2001396c:	1000                	addi	s0,sp,32
2001396e:	fea42623          	sw	a0,-20(s0)
20013972:	feb42423          	sw	a1,-24(s0)
/home/jubayer/Documents/riscV/EnergyHarvestingDeviceTestbed/FE310/blinky/freedom-metal/src/drivers/riscv_plic0.c:212
    return __metal_plic0_set_threshold(controller, __metal_myhart_id(),
20013976:	81afe0ef          	jal	ra,20011990 <__metal_myhart_id>
2001397a:	87aa                	mv	a5,a0
2001397c:	fe842603          	lw	a2,-24(s0)
20013980:	85be                	mv	a1,a5
20013982:	fec42503          	lw	a0,-20(s0)
20013986:	ac3ff0ef          	jal	ra,20013448 <__metal_plic0_set_threshold>
2001398a:	87aa                	mv	a5,a0
/home/jubayer/Documents/riscV/EnergyHarvestingDeviceTestbed/FE310/blinky/freedom-metal/src/drivers/riscv_plic0.c:214
                                       threshold);
}
2001398c:	853e                	mv	a0,a5
2001398e:	40f2                	lw	ra,28(sp)
20013990:	4462                	lw	s0,24(sp)
20013992:	6105                	addi	sp,sp,32
20013994:	8082                	ret

20013996 <__metal_driver_riscv_plic0_get_threshold>:
__metal_driver_riscv_plic0_get_threshold():
/home/jubayer/Documents/riscV/EnergyHarvestingDeviceTestbed/FE310/blinky/freedom-metal/src/drivers/riscv_plic0.c:217

unsigned int
__metal_driver_riscv_plic0_get_threshold(struct metal_interrupt *controller) {
20013996:	1101                	addi	sp,sp,-32
20013998:	ce06                	sw	ra,28(sp)
2001399a:	cc22                	sw	s0,24(sp)
2001399c:	1000                	addi	s0,sp,32
2001399e:	fea42623          	sw	a0,-20(s0)
/home/jubayer/Documents/riscV/EnergyHarvestingDeviceTestbed/FE310/blinky/freedom-metal/src/drivers/riscv_plic0.c:218
    return __metal_plic0_get_threshold(controller, __metal_myhart_id());
200139a2:	feffd0ef          	jal	ra,20011990 <__metal_myhart_id>
200139a6:	87aa                	mv	a5,a0
200139a8:	85be                	mv	a1,a5
200139aa:	fec42503          	lw	a0,-20(s0)
200139ae:	ae1ff0ef          	jal	ra,2001348e <__metal_plic0_get_threshold>
200139b2:	87aa                	mv	a5,a0
/home/jubayer/Documents/riscV/EnergyHarvestingDeviceTestbed/FE310/blinky/freedom-metal/src/drivers/riscv_plic0.c:219
}
200139b4:	853e                	mv	a0,a5
200139b6:	40f2                	lw	ra,28(sp)
200139b8:	4462                	lw	s0,24(sp)
200139ba:	6105                	addi	sp,sp,32
200139bc:	8082                	ret

200139be <__metal_driver_riscv_plic0_affinity_enable>:
__metal_driver_riscv_plic0_affinity_enable():
/home/jubayer/Documents/riscV/EnergyHarvestingDeviceTestbed/FE310/blinky/freedom-metal/src/drivers/riscv_plic0.c:223

metal_affinity
__metal_driver_riscv_plic0_affinity_enable(struct metal_interrupt *controller,
                                           metal_affinity bitmask, int id) {
200139be:	7179                	addi	sp,sp,-48
200139c0:	d606                	sw	ra,44(sp)
200139c2:	d422                	sw	s0,40(sp)
200139c4:	1800                	addi	s0,sp,48
200139c6:	fca42e23          	sw	a0,-36(s0)
200139ca:	fcb42c23          	sw	a1,-40(s0)
200139ce:	fcc42a23          	sw	a2,-44(s0)
/home/jubayer/Documents/riscV/EnergyHarvestingDeviceTestbed/FE310/blinky/freedom-metal/src/drivers/riscv_plic0.c:224
    metal_affinity ret = {0};
200139d2:	fe042223          	sw	zero,-28(s0)
/home/jubayer/Documents/riscV/EnergyHarvestingDeviceTestbed/FE310/blinky/freedom-metal/src/drivers/riscv_plic0.c:227
    int context;

    struct __metal_driver_riscv_plic0 *plic = (void *)(controller);
200139d6:	fdc42783          	lw	a5,-36(s0)
200139da:	fef42423          	sw	a5,-24(s0)
/home/jubayer/Documents/riscV/EnergyHarvestingDeviceTestbed/FE310/blinky/freedom-metal/src/drivers/riscv_plic0.c:229

    if (id >= __metal_driver_sifive_plic0_num_interrupts(controller)) {
200139de:	fdc42503          	lw	a0,-36(s0)
200139e2:	92bff0ef          	jal	ra,2001330c <__metal_driver_sifive_plic0_num_interrupts>
200139e6:	872a                	mv	a4,a0
200139e8:	fd442783          	lw	a5,-44(s0)
200139ec:	00e7c863          	blt	a5,a4,200139fc <__metal_driver_riscv_plic0_affinity_enable+0x3e>
/home/jubayer/Documents/riscV/EnergyHarvestingDeviceTestbed/FE310/blinky/freedom-metal/src/drivers/riscv_plic0.c:230
        metal_affinity_set_val(ret, -1);
200139f0:	57fd                	li	a5,-1
200139f2:	fef42223          	sw	a5,-28(s0)
/home/jubayer/Documents/riscV/EnergyHarvestingDeviceTestbed/FE310/blinky/freedom-metal/src/drivers/riscv_plic0.c:231
        return ret;
200139f6:	fe442783          	lw	a5,-28(s0)
200139fa:	a891                	j	20013a4e <__metal_driver_riscv_plic0_affinity_enable+0x90>
/home/jubayer/Documents/riscV/EnergyHarvestingDeviceTestbed/FE310/blinky/freedom-metal/src/drivers/riscv_plic0.c:234
    }

    for_each_metal_affinity(context, bitmask) {
200139fc:	fe042623          	sw	zero,-20(s0)
20013a00:	a091                	j	20013a44 <__metal_driver_riscv_plic0_affinity_enable+0x86>
/home/jubayer/Documents/riscV/EnergyHarvestingDeviceTestbed/FE310/blinky/freedom-metal/src/drivers/riscv_plic0.c:235
        if (context != 0)
20013a02:	fec42783          	lw	a5,-20(s0)
20013a06:	c78d                	beqz	a5,20013a30 <__metal_driver_riscv_plic0_affinity_enable+0x72>
/home/jubayer/Documents/riscV/EnergyHarvestingDeviceTestbed/FE310/blinky/freedom-metal/src/drivers/riscv_plic0.c:236
            metal_affinity_set_bit(
20013a08:	4685                	li	a3,1
20013a0a:	fd442603          	lw	a2,-44(s0)
20013a0e:	fec42583          	lw	a1,-20(s0)
20013a12:	fe842503          	lw	a0,-24(s0)
20013a16:	36a1                	jal	2001355e <__metal_plic0_enable>
20013a18:	87aa                	mv	a5,a0
20013a1a:	0017f713          	andi	a4,a5,1
20013a1e:	fec42783          	lw	a5,-20(s0)
20013a22:	00f71733          	sll	a4,a4,a5
20013a26:	fe442783          	lw	a5,-28(s0)
20013a2a:	8fd9                	or	a5,a5,a4
20013a2c:	fef42223          	sw	a5,-28(s0)
/home/jubayer/Documents/riscV/EnergyHarvestingDeviceTestbed/FE310/blinky/freedom-metal/src/drivers/riscv_plic0.c:234 (discriminator 2)
    for_each_metal_affinity(context, bitmask) {
20013a30:	fec42783          	lw	a5,-20(s0)
20013a34:	0785                	addi	a5,a5,1
20013a36:	fef42623          	sw	a5,-20(s0)
20013a3a:	fd842783          	lw	a5,-40(s0)
20013a3e:	8385                	srli	a5,a5,0x1
20013a40:	fcf42c23          	sw	a5,-40(s0)
/home/jubayer/Documents/riscV/EnergyHarvestingDeviceTestbed/FE310/blinky/freedom-metal/src/drivers/riscv_plic0.c:234 (discriminator 1)
20013a44:	fd842783          	lw	a5,-40(s0)
20013a48:	ffcd                	bnez	a5,20013a02 <__metal_driver_riscv_plic0_affinity_enable+0x44>
/home/jubayer/Documents/riscV/EnergyHarvestingDeviceTestbed/FE310/blinky/freedom-metal/src/drivers/riscv_plic0.c:241
                ret, context,
                __metal_plic0_enable(plic, context, id, METAL_ENABLE));
    }

    return ret;
20013a4a:	fe442783          	lw	a5,-28(s0)
/home/jubayer/Documents/riscV/EnergyHarvestingDeviceTestbed/FE310/blinky/freedom-metal/src/drivers/riscv_plic0.c:242 (discriminator 1)
}
20013a4e:	853e                	mv	a0,a5
20013a50:	50b2                	lw	ra,44(sp)
20013a52:	5422                	lw	s0,40(sp)
20013a54:	6145                	addi	sp,sp,48
20013a56:	8082                	ret

20013a58 <__metal_driver_riscv_plic0_affinity_disable>:
__metal_driver_riscv_plic0_affinity_disable():
/home/jubayer/Documents/riscV/EnergyHarvestingDeviceTestbed/FE310/blinky/freedom-metal/src/drivers/riscv_plic0.c:246

metal_affinity
__metal_driver_riscv_plic0_affinity_disable(struct metal_interrupt *controller,
                                            metal_affinity bitmask, int id) {
20013a58:	7179                	addi	sp,sp,-48
20013a5a:	d606                	sw	ra,44(sp)
20013a5c:	d422                	sw	s0,40(sp)
20013a5e:	1800                	addi	s0,sp,48
20013a60:	fca42e23          	sw	a0,-36(s0)
20013a64:	fcb42c23          	sw	a1,-40(s0)
20013a68:	fcc42a23          	sw	a2,-44(s0)
/home/jubayer/Documents/riscV/EnergyHarvestingDeviceTestbed/FE310/blinky/freedom-metal/src/drivers/riscv_plic0.c:247
    metal_affinity ret = {0};
20013a6c:	fe042223          	sw	zero,-28(s0)
/home/jubayer/Documents/riscV/EnergyHarvestingDeviceTestbed/FE310/blinky/freedom-metal/src/drivers/riscv_plic0.c:250
    int context;

    struct __metal_driver_riscv_plic0 *plic = (void *)(controller);
20013a70:	fdc42783          	lw	a5,-36(s0)
20013a74:	fef42423          	sw	a5,-24(s0)
/home/jubayer/Documents/riscV/EnergyHarvestingDeviceTestbed/FE310/blinky/freedom-metal/src/drivers/riscv_plic0.c:252

    if (id >= __metal_driver_sifive_plic0_num_interrupts(controller)) {
20013a78:	fdc42503          	lw	a0,-36(s0)
20013a7c:	891ff0ef          	jal	ra,2001330c <__metal_driver_sifive_plic0_num_interrupts>
20013a80:	872a                	mv	a4,a0
20013a82:	fd442783          	lw	a5,-44(s0)
20013a86:	00e7c863          	blt	a5,a4,20013a96 <__metal_driver_riscv_plic0_affinity_disable+0x3e>
/home/jubayer/Documents/riscV/EnergyHarvestingDeviceTestbed/FE310/blinky/freedom-metal/src/drivers/riscv_plic0.c:253
        metal_affinity_set_val(ret, -1);
20013a8a:	57fd                	li	a5,-1
20013a8c:	fef42223          	sw	a5,-28(s0)
/home/jubayer/Documents/riscV/EnergyHarvestingDeviceTestbed/FE310/blinky/freedom-metal/src/drivers/riscv_plic0.c:254
        return ret;
20013a90:	fe442783          	lw	a5,-28(s0)
20013a94:	a899                	j	20013aea <__metal_driver_riscv_plic0_affinity_disable+0x92>
/home/jubayer/Documents/riscV/EnergyHarvestingDeviceTestbed/FE310/blinky/freedom-metal/src/drivers/riscv_plic0.c:257
    }

    for_each_metal_affinity(context, bitmask) {
20013a96:	fe042623          	sw	zero,-20(s0)
20013a9a:	a099                	j	20013ae0 <__metal_driver_riscv_plic0_affinity_disable+0x88>
/home/jubayer/Documents/riscV/EnergyHarvestingDeviceTestbed/FE310/blinky/freedom-metal/src/drivers/riscv_plic0.c:258
        if (context != 0)
20013a9c:	fec42783          	lw	a5,-20(s0)
20013aa0:	c795                	beqz	a5,20013acc <__metal_driver_riscv_plic0_affinity_disable+0x74>
/home/jubayer/Documents/riscV/EnergyHarvestingDeviceTestbed/FE310/blinky/freedom-metal/src/drivers/riscv_plic0.c:259
            metal_affinity_set_bit(
20013aa2:	4681                	li	a3,0
20013aa4:	fd442603          	lw	a2,-44(s0)
20013aa8:	fec42583          	lw	a1,-20(s0)
20013aac:	fe842503          	lw	a0,-24(s0)
20013ab0:	aafff0ef          	jal	ra,2001355e <__metal_plic0_enable>
20013ab4:	87aa                	mv	a5,a0
20013ab6:	0017f713          	andi	a4,a5,1
20013aba:	fec42783          	lw	a5,-20(s0)
20013abe:	00f71733          	sll	a4,a4,a5
20013ac2:	fe442783          	lw	a5,-28(s0)
20013ac6:	8fd9                	or	a5,a5,a4
20013ac8:	fef42223          	sw	a5,-28(s0)
/home/jubayer/Documents/riscV/EnergyHarvestingDeviceTestbed/FE310/blinky/freedom-metal/src/drivers/riscv_plic0.c:257 (discriminator 2)
    for_each_metal_affinity(context, bitmask) {
20013acc:	fec42783          	lw	a5,-20(s0)
20013ad0:	0785                	addi	a5,a5,1
20013ad2:	fef42623          	sw	a5,-20(s0)
20013ad6:	fd842783          	lw	a5,-40(s0)
20013ada:	8385                	srli	a5,a5,0x1
20013adc:	fcf42c23          	sw	a5,-40(s0)
/home/jubayer/Documents/riscV/EnergyHarvestingDeviceTestbed/FE310/blinky/freedom-metal/src/drivers/riscv_plic0.c:257 (discriminator 1)
20013ae0:	fd842783          	lw	a5,-40(s0)
20013ae4:	ffc5                	bnez	a5,20013a9c <__metal_driver_riscv_plic0_affinity_disable+0x44>
/home/jubayer/Documents/riscV/EnergyHarvestingDeviceTestbed/FE310/blinky/freedom-metal/src/drivers/riscv_plic0.c:264
                ret, context,
                __metal_plic0_enable(plic, context, id, METAL_DISABLE));
    }

    return ret;
20013ae6:	fe442783          	lw	a5,-28(s0)
/home/jubayer/Documents/riscV/EnergyHarvestingDeviceTestbed/FE310/blinky/freedom-metal/src/drivers/riscv_plic0.c:265 (discriminator 1)
}
20013aea:	853e                	mv	a0,a5
20013aec:	50b2                	lw	ra,44(sp)
20013aee:	5422                	lw	s0,40(sp)
20013af0:	6145                	addi	sp,sp,48
20013af2:	8082                	ret

20013af4 <__metal_driver_riscv_plic0_affinity_set_threshold>:
__metal_driver_riscv_plic0_affinity_set_threshold():
/home/jubayer/Documents/riscV/EnergyHarvestingDeviceTestbed/FE310/blinky/freedom-metal/src/drivers/riscv_plic0.c:269

metal_affinity __metal_driver_riscv_plic0_affinity_set_threshold(
    struct metal_interrupt *controller, metal_affinity bitmask,
    unsigned int threshold) {
20013af4:	7179                	addi	sp,sp,-48
20013af6:	d606                	sw	ra,44(sp)
20013af8:	d422                	sw	s0,40(sp)
20013afa:	1800                	addi	s0,sp,48
20013afc:	fca42e23          	sw	a0,-36(s0)
20013b00:	fcb42c23          	sw	a1,-40(s0)
20013b04:	fcc42a23          	sw	a2,-44(s0)
/home/jubayer/Documents/riscV/EnergyHarvestingDeviceTestbed/FE310/blinky/freedom-metal/src/drivers/riscv_plic0.c:270
    metal_affinity ret = {0};
20013b08:	fe042423          	sw	zero,-24(s0)
/home/jubayer/Documents/riscV/EnergyHarvestingDeviceTestbed/FE310/blinky/freedom-metal/src/drivers/riscv_plic0.c:273
    int context;

    for_each_metal_affinity(context, bitmask) {
20013b0c:	fe042623          	sw	zero,-20(s0)
20013b10:	a091                	j	20013b54 <__metal_driver_riscv_plic0_affinity_set_threshold+0x60>
/home/jubayer/Documents/riscV/EnergyHarvestingDeviceTestbed/FE310/blinky/freedom-metal/src/drivers/riscv_plic0.c:274
        if (context != 0)
20013b12:	fec42783          	lw	a5,-20(s0)
20013b16:	c78d                	beqz	a5,20013b40 <__metal_driver_riscv_plic0_affinity_set_threshold+0x4c>
/home/jubayer/Documents/riscV/EnergyHarvestingDeviceTestbed/FE310/blinky/freedom-metal/src/drivers/riscv_plic0.c:275
            metal_affinity_set_bit(
20013b18:	fd442603          	lw	a2,-44(s0)
20013b1c:	fec42583          	lw	a1,-20(s0)
20013b20:	fdc42503          	lw	a0,-36(s0)
20013b24:	925ff0ef          	jal	ra,20013448 <__metal_plic0_set_threshold>
20013b28:	87aa                	mv	a5,a0
20013b2a:	0017f713          	andi	a4,a5,1
20013b2e:	fec42783          	lw	a5,-20(s0)
20013b32:	00f71733          	sll	a4,a4,a5
20013b36:	fe842783          	lw	a5,-24(s0)
20013b3a:	8fd9                	or	a5,a5,a4
20013b3c:	fef42423          	sw	a5,-24(s0)
/home/jubayer/Documents/riscV/EnergyHarvestingDeviceTestbed/FE310/blinky/freedom-metal/src/drivers/riscv_plic0.c:273 (discriminator 2)
    for_each_metal_affinity(context, bitmask) {
20013b40:	fec42783          	lw	a5,-20(s0)
20013b44:	0785                	addi	a5,a5,1
20013b46:	fef42623          	sw	a5,-20(s0)
20013b4a:	fd842783          	lw	a5,-40(s0)
20013b4e:	8385                	srli	a5,a5,0x1
20013b50:	fcf42c23          	sw	a5,-40(s0)
/home/jubayer/Documents/riscV/EnergyHarvestingDeviceTestbed/FE310/blinky/freedom-metal/src/drivers/riscv_plic0.c:273 (discriminator 1)
20013b54:	fd842783          	lw	a5,-40(s0)
20013b58:	ffcd                	bnez	a5,20013b12 <__metal_driver_riscv_plic0_affinity_set_threshold+0x1e>
/home/jubayer/Documents/riscV/EnergyHarvestingDeviceTestbed/FE310/blinky/freedom-metal/src/drivers/riscv_plic0.c:280
                ret, context,
                __metal_plic0_set_threshold(controller, context, threshold));
    }

    return ret;
20013b5a:	fe842783          	lw	a5,-24(s0)
/home/jubayer/Documents/riscV/EnergyHarvestingDeviceTestbed/FE310/blinky/freedom-metal/src/drivers/riscv_plic0.c:281
}
20013b5e:	853e                	mv	a0,a5
20013b60:	50b2                	lw	ra,44(sp)
20013b62:	5422                	lw	s0,40(sp)
20013b64:	6145                	addi	sp,sp,48
20013b66:	8082                	ret

20013b68 <__metal_driver_riscv_plic0_affinity_get_threshold>:
__metal_driver_riscv_plic0_affinity_get_threshold():
/home/jubayer/Documents/riscV/EnergyHarvestingDeviceTestbed/FE310/blinky/freedom-metal/src/drivers/riscv_plic0.c:284

unsigned int __metal_driver_riscv_plic0_affinity_get_threshold(
    struct metal_interrupt *controller, int context_id) {
20013b68:	1101                	addi	sp,sp,-32
20013b6a:	ce06                	sw	ra,28(sp)
20013b6c:	cc22                	sw	s0,24(sp)
20013b6e:	1000                	addi	s0,sp,32
20013b70:	fea42623          	sw	a0,-20(s0)
20013b74:	feb42423          	sw	a1,-24(s0)
/home/jubayer/Documents/riscV/EnergyHarvestingDeviceTestbed/FE310/blinky/freedom-metal/src/drivers/riscv_plic0.c:285
    __metal_plic0_get_threshold(controller, context_id);
20013b78:	fe842583          	lw	a1,-24(s0)
20013b7c:	fec42503          	lw	a0,-20(s0)
20013b80:	90fff0ef          	jal	ra,2001348e <__metal_plic0_get_threshold>
/home/jubayer/Documents/riscV/EnergyHarvestingDeviceTestbed/FE310/blinky/freedom-metal/src/drivers/riscv_plic0.c:286
    return 0;
20013b84:	4781                	li	a5,0
/home/jubayer/Documents/riscV/EnergyHarvestingDeviceTestbed/FE310/blinky/freedom-metal/src/drivers/riscv_plic0.c:287
}
20013b86:	853e                	mv	a0,a5
20013b88:	40f2                	lw	ra,28(sp)
20013b8a:	4462                	lw	s0,24(sp)
20013b8c:	6105                	addi	sp,sp,32
20013b8e:	8082                	ret

20013b90 <__metal_driver_sifive_fe310_g000_hfrosc_ref>:
__metal_driver_sifive_fe310_g000_hfrosc_ref():
/home/jubayer/Documents/riscV/EnergyHarvestingDeviceTestbed/FE310/blinky/bsp/build/debug/./metal/machine.h:1242



/* --------------------- sifive_fe310_g000_hfrosc ------------ */
static __inline__ struct metal_clock * __metal_driver_sifive_fe310_g000_hfrosc_ref(const struct metal_clock *clock)
{
20013b90:	1101                	addi	sp,sp,-32
20013b92:	ce22                	sw	s0,28(sp)
20013b94:	1000                	addi	s0,sp,32
20013b96:	fea42623          	sw	a0,-20(s0)
/home/jubayer/Documents/riscV/EnergyHarvestingDeviceTestbed/FE310/blinky/bsp/build/debug/./metal/machine.h:1243
		return (struct metal_clock *)&__metal_dt_clock_2.clock;
20013b9a:	800007b7          	lui	a5,0x80000
20013b9e:	06c78793          	addi	a5,a5,108 # 8000006c <__global_pointer$+0xffffee0c>
/home/jubayer/Documents/riscV/EnergyHarvestingDeviceTestbed/FE310/blinky/bsp/build/debug/./metal/machine.h:1244
}
20013ba2:	853e                	mv	a0,a5
20013ba4:	4472                	lw	s0,28(sp)
20013ba6:	6105                	addi	sp,sp,32
20013ba8:	8082                	ret

20013baa <__metal_driver_sifive_fe310_g000_hfrosc_config_base>:
__metal_driver_sifive_fe310_g000_hfrosc_config_base():
/home/jubayer/Documents/riscV/EnergyHarvestingDeviceTestbed/FE310/blinky/bsp/build/debug/./metal/machine.h:1247

static __inline__ struct __metal_driver_sifive_fe310_g000_prci * __metal_driver_sifive_fe310_g000_hfrosc_config_base(const struct metal_clock *clock)
{
20013baa:	1101                	addi	sp,sp,-32
20013bac:	ce22                	sw	s0,28(sp)
20013bae:	1000                	addi	s0,sp,32
20013bb0:	fea42623          	sw	a0,-20(s0)
/home/jubayer/Documents/riscV/EnergyHarvestingDeviceTestbed/FE310/blinky/bsp/build/debug/./metal/machine.h:1248
		return (struct __metal_driver_sifive_fe310_g000_prci *)&__metal_dt_prci_10008000;
20013bb4:	82018793          	addi	a5,gp,-2016 # 80000a80 <__metal_dt_prci_10008000>
/home/jubayer/Documents/riscV/EnergyHarvestingDeviceTestbed/FE310/blinky/bsp/build/debug/./metal/machine.h:1249
}
20013bb8:	853e                	mv	a0,a5
20013bba:	4472                	lw	s0,28(sp)
20013bbc:	6105                	addi	sp,sp,32
20013bbe:	8082                	ret

20013bc0 <__metal_driver_sifive_fe310_g000_hfrosc_config_offset>:
__metal_driver_sifive_fe310_g000_hfrosc_config_offset():
/home/jubayer/Documents/riscV/EnergyHarvestingDeviceTestbed/FE310/blinky/bsp/build/debug/./metal/machine.h:1257
{
		return &__metal_driver_vtable_sifive_fe310_g000_prci;
}

static __inline__ long __metal_driver_sifive_fe310_g000_hfrosc_config_offset(const struct metal_clock *clock)
{
20013bc0:	1101                	addi	sp,sp,-32
20013bc2:	ce22                	sw	s0,28(sp)
20013bc4:	1000                	addi	s0,sp,32
20013bc6:	fea42623          	sw	a0,-20(s0)
/home/jubayer/Documents/riscV/EnergyHarvestingDeviceTestbed/FE310/blinky/bsp/build/debug/./metal/machine.h:1258
		return METAL_SIFIVE_FE310_G000_PRCI_HFROSCCFG;
20013bca:	4781                	li	a5,0
/home/jubayer/Documents/riscV/EnergyHarvestingDeviceTestbed/FE310/blinky/bsp/build/debug/./metal/machine.h:1259
}
20013bcc:	853e                	mv	a0,a5
20013bce:	4472                	lw	s0,28(sp)
20013bd0:	6105                	addi	sp,sp,32
20013bd2:	8082                	ret

20013bd4 <__metal_driver_sifive_fe310_g000_prci_vtable>:
__metal_driver_sifive_fe310_g000_prci_vtable():
/home/jubayer/Documents/riscV/EnergyHarvestingDeviceTestbed/FE310/blinky/bsp/build/debug/./metal/machine.h:1374
{
		return METAL_SIFIVE_FE310_G000_PRCI_10008000_SIZE;
}

static __inline__ const struct __metal_driver_vtable_sifive_fe310_g000_prci * __metal_driver_sifive_fe310_g000_prci_vtable( )
{
20013bd4:	1141                	addi	sp,sp,-16
20013bd6:	c622                	sw	s0,12(sp)
20013bd8:	0800                	addi	s0,sp,16
/home/jubayer/Documents/riscV/EnergyHarvestingDeviceTestbed/FE310/blinky/bsp/build/debug/./metal/machine.h:1375
		return &__metal_driver_vtable_sifive_fe310_g000_prci;
20013bda:	200117b7          	lui	a5,0x20011
20013bde:	f6478793          	addi	a5,a5,-156 # 20010f64 <__metal_driver_vtable_sifive_fe310_g000_prci>
/home/jubayer/Documents/riscV/EnergyHarvestingDeviceTestbed/FE310/blinky/bsp/build/debug/./metal/machine.h:1376
}
20013be2:	853e                	mv	a0,a5
20013be4:	4432                	lw	s0,12(sp)
20013be6:	0141                	addi	sp,sp,16
20013be8:	8082                	ret

20013bea <__metal_driver_sifive_fe310_g000_hfrosc_get_rate_hz>:
__metal_driver_sifive_fe310_g000_hfrosc_get_rate_hz():
/home/jubayer/Documents/riscV/EnergyHarvestingDeviceTestbed/FE310/blinky/freedom-metal/src/drivers/sifive_fe310-g000_hfrosc.c:17
#define CONFIG_TRIM 0x001F0000UL
#define CONFIG_ENABLE 0x40000000UL
#define CONFIG_READY 0x80000000UL

long __metal_driver_sifive_fe310_g000_hfrosc_get_rate_hz(
    const struct metal_clock *clock) {
20013bea:	7139                	addi	sp,sp,-64
20013bec:	de06                	sw	ra,60(sp)
20013bee:	dc22                	sw	s0,56(sp)
20013bf0:	0080                	addi	s0,sp,64
20013bf2:	fca42623          	sw	a0,-52(s0)
/home/jubayer/Documents/riscV/EnergyHarvestingDeviceTestbed/FE310/blinky/freedom-metal/src/drivers/sifive_fe310-g000_hfrosc.c:19
    struct metal_clock *ref =
        __metal_driver_sifive_fe310_g000_hfrosc_ref(clock);
20013bf6:	fcc42503          	lw	a0,-52(s0)
20013bfa:	3f59                	jal	20013b90 <__metal_driver_sifive_fe310_g000_hfrosc_ref>
20013bfc:	fea42623          	sw	a0,-20(s0)
/home/jubayer/Documents/riscV/EnergyHarvestingDeviceTestbed/FE310/blinky/freedom-metal/src/drivers/sifive_fe310-g000_hfrosc.c:21
    long config_offset =
        __metal_driver_sifive_fe310_g000_hfrosc_config_offset(clock);
20013c00:	fcc42503          	lw	a0,-52(s0)
20013c04:	3f75                	jal	20013bc0 <__metal_driver_sifive_fe310_g000_hfrosc_config_offset>
20013c06:	fea42423          	sw	a0,-24(s0)
/home/jubayer/Documents/riscV/EnergyHarvestingDeviceTestbed/FE310/blinky/freedom-metal/src/drivers/sifive_fe310-g000_hfrosc.c:23
    struct __metal_driver_sifive_fe310_g000_prci *config_base =
        __metal_driver_sifive_fe310_g000_hfrosc_config_base(clock);
20013c0a:	fcc42503          	lw	a0,-52(s0)
20013c0e:	3f71                	jal	20013baa <__metal_driver_sifive_fe310_g000_hfrosc_config_base>
20013c10:	fea42223          	sw	a0,-28(s0)
/home/jubayer/Documents/riscV/EnergyHarvestingDeviceTestbed/FE310/blinky/freedom-metal/src/drivers/sifive_fe310-g000_hfrosc.c:25
    const struct __metal_driver_vtable_sifive_fe310_g000_prci *vtable =
        __metal_driver_sifive_fe310_g000_prci_vtable();
20013c14:	37c1                	jal	20013bd4 <__metal_driver_sifive_fe310_g000_prci_vtable>
20013c16:	fea42023          	sw	a0,-32(s0)
/home/jubayer/Documents/riscV/EnergyHarvestingDeviceTestbed/FE310/blinky/freedom-metal/src/drivers/sifive_fe310-g000_hfrosc.c:26
    long cfg = vtable->get_reg(config_base, config_offset);
20013c1a:	fe042783          	lw	a5,-32(s0)
20013c1e:	439c                	lw	a5,0(a5)
20013c20:	fe842583          	lw	a1,-24(s0)
20013c24:	fe442503          	lw	a0,-28(s0)
20013c28:	9782                	jalr	a5
20013c2a:	fca42e23          	sw	a0,-36(s0)
/home/jubayer/Documents/riscV/EnergyHarvestingDeviceTestbed/FE310/blinky/freedom-metal/src/drivers/sifive_fe310-g000_hfrosc.c:28

    if ((cfg & CONFIG_ENABLE) == 0)
20013c2e:	fdc42703          	lw	a4,-36(s0)
20013c32:	400007b7          	lui	a5,0x40000
20013c36:	8ff9                	and	a5,a5,a4
20013c38:	e399                	bnez	a5,20013c3e <__metal_driver_sifive_fe310_g000_hfrosc_get_rate_hz+0x54>
/home/jubayer/Documents/riscV/EnergyHarvestingDeviceTestbed/FE310/blinky/freedom-metal/src/drivers/sifive_fe310-g000_hfrosc.c:29
        return -1;
20013c3a:	57fd                	li	a5,-1
20013c3c:	a025                	j	20013c64 <__metal_driver_sifive_fe310_g000_hfrosc_get_rate_hz+0x7a>
/home/jubayer/Documents/riscV/EnergyHarvestingDeviceTestbed/FE310/blinky/freedom-metal/src/drivers/sifive_fe310-g000_hfrosc.c:30
    if ((cfg & CONFIG_READY) == 0)
20013c3e:	fdc42783          	lw	a5,-36(s0)
20013c42:	0007c463          	bltz	a5,20013c4a <__metal_driver_sifive_fe310_g000_hfrosc_get_rate_hz+0x60>
/home/jubayer/Documents/riscV/EnergyHarvestingDeviceTestbed/FE310/blinky/freedom-metal/src/drivers/sifive_fe310-g000_hfrosc.c:31
        return -1;
20013c46:	57fd                	li	a5,-1
20013c48:	a831                	j	20013c64 <__metal_driver_sifive_fe310_g000_hfrosc_get_rate_hz+0x7a>
/home/jubayer/Documents/riscV/EnergyHarvestingDeviceTestbed/FE310/blinky/freedom-metal/src/drivers/sifive_fe310-g000_hfrosc.c:32
    return metal_clock_get_rate_hz(ref) / ((cfg & CONFIG_DIVIDER) + 1);
20013c4a:	fec42503          	lw	a0,-20(s0)
20013c4e:	326010ef          	jal	ra,20014f74 <metal_clock_get_rate_hz>
20013c52:	87aa                	mv	a5,a0
20013c54:	873e                	mv	a4,a5
20013c56:	fdc42783          	lw	a5,-36(s0)
20013c5a:	03f7f793          	andi	a5,a5,63
20013c5e:	0785                	addi	a5,a5,1
20013c60:	02f757b3          	divu	a5,a4,a5
/home/jubayer/Documents/riscV/EnergyHarvestingDeviceTestbed/FE310/blinky/freedom-metal/src/drivers/sifive_fe310-g000_hfrosc.c:33
}
20013c64:	853e                	mv	a0,a5
20013c66:	50f2                	lw	ra,60(sp)
20013c68:	5462                	lw	s0,56(sp)
20013c6a:	6121                	addi	sp,sp,64
20013c6c:	8082                	ret

20013c6e <__metal_driver_sifive_fe310_g000_hfrosc_set_rate_hz>:
__metal_driver_sifive_fe310_g000_hfrosc_set_rate_hz():
/home/jubayer/Documents/riscV/EnergyHarvestingDeviceTestbed/FE310/blinky/freedom-metal/src/drivers/sifive_fe310-g000_hfrosc.c:36

long __metal_driver_sifive_fe310_g000_hfrosc_set_rate_hz(
    struct metal_clock *clock, long rate) {
20013c6e:	1101                	addi	sp,sp,-32
20013c70:	ce06                	sw	ra,28(sp)
20013c72:	cc22                	sw	s0,24(sp)
20013c74:	1000                	addi	s0,sp,32
20013c76:	fea42623          	sw	a0,-20(s0)
20013c7a:	feb42423          	sw	a1,-24(s0)
/home/jubayer/Documents/riscV/EnergyHarvestingDeviceTestbed/FE310/blinky/freedom-metal/src/drivers/sifive_fe310-g000_hfrosc.c:37
    return __metal_driver_sifive_fe310_g000_hfrosc_get_rate_hz(clock);
20013c7e:	fec42503          	lw	a0,-20(s0)
20013c82:	37a5                	jal	20013bea <__metal_driver_sifive_fe310_g000_hfrosc_get_rate_hz>
20013c84:	87aa                	mv	a5,a0
/home/jubayer/Documents/riscV/EnergyHarvestingDeviceTestbed/FE310/blinky/freedom-metal/src/drivers/sifive_fe310-g000_hfrosc.c:38
}
20013c86:	853e                	mv	a0,a5
20013c88:	40f2                	lw	ra,28(sp)
20013c8a:	4462                	lw	s0,24(sp)
20013c8c:	6105                	addi	sp,sp,32
20013c8e:	8082                	ret

20013c90 <__metal_driver_sifive_fe310_g000_hfxosc_ref>:
__metal_driver_sifive_fe310_g000_hfxosc_ref():
/home/jubayer/Documents/riscV/EnergyHarvestingDeviceTestbed/FE310/blinky/bsp/build/debug/./metal/machine.h:1265
{
20013c90:	1101                	addi	sp,sp,-32
20013c92:	ce22                	sw	s0,28(sp)
20013c94:	1000                	addi	s0,sp,32
20013c96:	fea42623          	sw	a0,-20(s0)
/home/jubayer/Documents/riscV/EnergyHarvestingDeviceTestbed/FE310/blinky/bsp/build/debug/./metal/machine.h:1266
		return (struct metal_clock *)&__metal_dt_clock_0.clock;
20013c9a:	800007b7          	lui	a5,0x80000
20013c9e:	06078793          	addi	a5,a5,96 # 80000060 <__global_pointer$+0xffffee00>
/home/jubayer/Documents/riscV/EnergyHarvestingDeviceTestbed/FE310/blinky/bsp/build/debug/./metal/machine.h:1267
}
20013ca2:	853e                	mv	a0,a5
20013ca4:	4472                	lw	s0,28(sp)
20013ca6:	6105                	addi	sp,sp,32
20013ca8:	8082                	ret

20013caa <__metal_driver_sifive_fe310_g000_hfxosc_config_base>:
__metal_driver_sifive_fe310_g000_hfxosc_config_base():
/home/jubayer/Documents/riscV/EnergyHarvestingDeviceTestbed/FE310/blinky/bsp/build/debug/./metal/machine.h:1270
{
20013caa:	1101                	addi	sp,sp,-32
20013cac:	ce22                	sw	s0,28(sp)
20013cae:	1000                	addi	s0,sp,32
20013cb0:	fea42623          	sw	a0,-20(s0)
/home/jubayer/Documents/riscV/EnergyHarvestingDeviceTestbed/FE310/blinky/bsp/build/debug/./metal/machine.h:1271
		return (struct __metal_driver_sifive_fe310_g000_prci *)&__metal_dt_prci_10008000;
20013cb4:	82018793          	addi	a5,gp,-2016 # 80000a80 <__metal_dt_prci_10008000>
/home/jubayer/Documents/riscV/EnergyHarvestingDeviceTestbed/FE310/blinky/bsp/build/debug/./metal/machine.h:1272
}
20013cb8:	853e                	mv	a0,a5
20013cba:	4472                	lw	s0,28(sp)
20013cbc:	6105                	addi	sp,sp,32
20013cbe:	8082                	ret

20013cc0 <__metal_driver_sifive_fe310_g000_hfxosc_config_offset>:
__metal_driver_sifive_fe310_g000_hfxosc_config_offset():
/home/jubayer/Documents/riscV/EnergyHarvestingDeviceTestbed/FE310/blinky/bsp/build/debug/./metal/machine.h:1275
{
20013cc0:	1101                	addi	sp,sp,-32
20013cc2:	ce22                	sw	s0,28(sp)
20013cc4:	1000                	addi	s0,sp,32
20013cc6:	fea42623          	sw	a0,-20(s0)
/home/jubayer/Documents/riscV/EnergyHarvestingDeviceTestbed/FE310/blinky/bsp/build/debug/./metal/machine.h:1276
		return METAL_SIFIVE_FE310_G000_PRCI_HFXOSCCFG;
20013cca:	4791                	li	a5,4
/home/jubayer/Documents/riscV/EnergyHarvestingDeviceTestbed/FE310/blinky/bsp/build/debug/./metal/machine.h:1277
}
20013ccc:	853e                	mv	a0,a5
20013cce:	4472                	lw	s0,28(sp)
20013cd0:	6105                	addi	sp,sp,32
20013cd2:	8082                	ret

20013cd4 <__metal_driver_sifive_fe310_g000_prci_vtable>:
__metal_driver_sifive_fe310_g000_prci_vtable():
/home/jubayer/Documents/riscV/EnergyHarvestingDeviceTestbed/FE310/blinky/bsp/build/debug/./metal/machine.h:1374
{
20013cd4:	1141                	addi	sp,sp,-16
20013cd6:	c622                	sw	s0,12(sp)
20013cd8:	0800                	addi	s0,sp,16
/home/jubayer/Documents/riscV/EnergyHarvestingDeviceTestbed/FE310/blinky/bsp/build/debug/./metal/machine.h:1375
		return &__metal_driver_vtable_sifive_fe310_g000_prci;
20013cda:	200117b7          	lui	a5,0x20011
20013cde:	f6478793          	addi	a5,a5,-156 # 20010f64 <__metal_driver_vtable_sifive_fe310_g000_prci>
/home/jubayer/Documents/riscV/EnergyHarvestingDeviceTestbed/FE310/blinky/bsp/build/debug/./metal/machine.h:1376
}
20013ce2:	853e                	mv	a0,a5
20013ce4:	4432                	lw	s0,12(sp)
20013ce6:	0141                	addi	sp,sp,16
20013ce8:	8082                	ret

20013cea <__metal_driver_sifive_fe310_g000_hfxosc_get_rate_hz>:
__metal_driver_sifive_fe310_g000_hfxosc_get_rate_hz():
/home/jubayer/Documents/riscV/EnergyHarvestingDeviceTestbed/FE310/blinky/freedom-metal/src/drivers/sifive_fe310-g000_hfxosc.c:15

#define CONFIG_ENABLE 0x40000000UL
#define CONFIG_READY 0x80000000UL

long __metal_driver_sifive_fe310_g000_hfxosc_get_rate_hz(
    const struct metal_clock *clock) {
20013cea:	7139                	addi	sp,sp,-64
20013cec:	de06                	sw	ra,60(sp)
20013cee:	dc22                	sw	s0,56(sp)
20013cf0:	0080                	addi	s0,sp,64
20013cf2:	fca42623          	sw	a0,-52(s0)
/home/jubayer/Documents/riscV/EnergyHarvestingDeviceTestbed/FE310/blinky/freedom-metal/src/drivers/sifive_fe310-g000_hfxosc.c:17
    struct metal_clock *ref =
        __metal_driver_sifive_fe310_g000_hfxosc_ref(clock);
20013cf6:	fcc42503          	lw	a0,-52(s0)
20013cfa:	3f59                	jal	20013c90 <__metal_driver_sifive_fe310_g000_hfxosc_ref>
20013cfc:	fea42623          	sw	a0,-20(s0)
/home/jubayer/Documents/riscV/EnergyHarvestingDeviceTestbed/FE310/blinky/freedom-metal/src/drivers/sifive_fe310-g000_hfxosc.c:19
    long config_offset =
        __metal_driver_sifive_fe310_g000_hfxosc_config_offset(clock);
20013d00:	fcc42503          	lw	a0,-52(s0)
20013d04:	3f75                	jal	20013cc0 <__metal_driver_sifive_fe310_g000_hfxosc_config_offset>
20013d06:	fea42423          	sw	a0,-24(s0)
/home/jubayer/Documents/riscV/EnergyHarvestingDeviceTestbed/FE310/blinky/freedom-metal/src/drivers/sifive_fe310-g000_hfxosc.c:21
    struct __metal_driver_sifive_fe310_g000_prci *config_base =
        __metal_driver_sifive_fe310_g000_hfxosc_config_base(clock);
20013d0a:	fcc42503          	lw	a0,-52(s0)
20013d0e:	3f71                	jal	20013caa <__metal_driver_sifive_fe310_g000_hfxosc_config_base>
20013d10:	fea42223          	sw	a0,-28(s0)
/home/jubayer/Documents/riscV/EnergyHarvestingDeviceTestbed/FE310/blinky/freedom-metal/src/drivers/sifive_fe310-g000_hfxosc.c:23
    const struct __metal_driver_vtable_sifive_fe310_g000_prci *vtable =
        __metal_driver_sifive_fe310_g000_prci_vtable();
20013d14:	37c1                	jal	20013cd4 <__metal_driver_sifive_fe310_g000_prci_vtable>
20013d16:	fea42023          	sw	a0,-32(s0)
/home/jubayer/Documents/riscV/EnergyHarvestingDeviceTestbed/FE310/blinky/freedom-metal/src/drivers/sifive_fe310-g000_hfxosc.c:24
    long cfg = vtable->get_reg(config_base, config_offset);
20013d1a:	fe042783          	lw	a5,-32(s0)
20013d1e:	439c                	lw	a5,0(a5)
20013d20:	fe842583          	lw	a1,-24(s0)
20013d24:	fe442503          	lw	a0,-28(s0)
20013d28:	9782                	jalr	a5
20013d2a:	fca42e23          	sw	a0,-36(s0)
/home/jubayer/Documents/riscV/EnergyHarvestingDeviceTestbed/FE310/blinky/freedom-metal/src/drivers/sifive_fe310-g000_hfxosc.c:26

    if ((cfg & CONFIG_ENABLE) == 0)
20013d2e:	fdc42703          	lw	a4,-36(s0)
20013d32:	400007b7          	lui	a5,0x40000
20013d36:	8ff9                	and	a5,a5,a4
20013d38:	e399                	bnez	a5,20013d3e <__metal_driver_sifive_fe310_g000_hfxosc_get_rate_hz+0x54>
/home/jubayer/Documents/riscV/EnergyHarvestingDeviceTestbed/FE310/blinky/freedom-metal/src/drivers/sifive_fe310-g000_hfxosc.c:27
        return -1;
20013d3a:	57fd                	li	a5,-1
20013d3c:	a821                	j	20013d54 <__metal_driver_sifive_fe310_g000_hfxosc_get_rate_hz+0x6a>
/home/jubayer/Documents/riscV/EnergyHarvestingDeviceTestbed/FE310/blinky/freedom-metal/src/drivers/sifive_fe310-g000_hfxosc.c:28
    if ((cfg & CONFIG_READY) == 0)
20013d3e:	fdc42783          	lw	a5,-36(s0)
20013d42:	0007c463          	bltz	a5,20013d4a <__metal_driver_sifive_fe310_g000_hfxosc_get_rate_hz+0x60>
/home/jubayer/Documents/riscV/EnergyHarvestingDeviceTestbed/FE310/blinky/freedom-metal/src/drivers/sifive_fe310-g000_hfxosc.c:29
        return -1;
20013d46:	57fd                	li	a5,-1
20013d48:	a031                	j	20013d54 <__metal_driver_sifive_fe310_g000_hfxosc_get_rate_hz+0x6a>
/home/jubayer/Documents/riscV/EnergyHarvestingDeviceTestbed/FE310/blinky/freedom-metal/src/drivers/sifive_fe310-g000_hfxosc.c:30
    return metal_clock_get_rate_hz(ref);
20013d4a:	fec42503          	lw	a0,-20(s0)
20013d4e:	226010ef          	jal	ra,20014f74 <metal_clock_get_rate_hz>
20013d52:	87aa                	mv	a5,a0
/home/jubayer/Documents/riscV/EnergyHarvestingDeviceTestbed/FE310/blinky/freedom-metal/src/drivers/sifive_fe310-g000_hfxosc.c:31
}
20013d54:	853e                	mv	a0,a5
20013d56:	50f2                	lw	ra,60(sp)
20013d58:	5462                	lw	s0,56(sp)
20013d5a:	6121                	addi	sp,sp,64
20013d5c:	8082                	ret

20013d5e <__metal_driver_sifive_fe310_g000_hfxosc_set_rate_hz>:
__metal_driver_sifive_fe310_g000_hfxosc_set_rate_hz():
/home/jubayer/Documents/riscV/EnergyHarvestingDeviceTestbed/FE310/blinky/freedom-metal/src/drivers/sifive_fe310-g000_hfxosc.c:34

long __metal_driver_sifive_fe310_g000_hfxosc_set_rate_hz(
    struct metal_clock *clock, long rate) {
20013d5e:	1101                	addi	sp,sp,-32
20013d60:	ce06                	sw	ra,28(sp)
20013d62:	cc22                	sw	s0,24(sp)
20013d64:	1000                	addi	s0,sp,32
20013d66:	fea42623          	sw	a0,-20(s0)
20013d6a:	feb42423          	sw	a1,-24(s0)
/home/jubayer/Documents/riscV/EnergyHarvestingDeviceTestbed/FE310/blinky/freedom-metal/src/drivers/sifive_fe310-g000_hfxosc.c:35
    return __metal_driver_sifive_fe310_g000_hfxosc_get_rate_hz(clock);
20013d6e:	fec42503          	lw	a0,-20(s0)
20013d72:	3fa5                	jal	20013cea <__metal_driver_sifive_fe310_g000_hfxosc_get_rate_hz>
20013d74:	87aa                	mv	a5,a0
/home/jubayer/Documents/riscV/EnergyHarvestingDeviceTestbed/FE310/blinky/freedom-metal/src/drivers/sifive_fe310-g000_hfxosc.c:36
}
20013d76:	853e                	mv	a0,a5
20013d78:	40f2                	lw	ra,28(sp)
20013d7a:	4462                	lw	s0,24(sp)
20013d7c:	6105                	addi	sp,sp,32
20013d7e:	8082                	ret

20013d80 <__metal_driver_sifive_fe310_g000_pll_pllsel0>:
__metal_driver_sifive_fe310_g000_pll_pllsel0():
/home/jubayer/Documents/riscV/EnergyHarvestingDeviceTestbed/FE310/blinky/bsp/build/debug/./metal/machine.h:1326
{
20013d80:	1101                	addi	sp,sp,-32
20013d82:	ce22                	sw	s0,28(sp)
20013d84:	1000                	addi	s0,sp,32
20013d86:	fea42623          	sw	a0,-20(s0)
/home/jubayer/Documents/riscV/EnergyHarvestingDeviceTestbed/FE310/blinky/bsp/build/debug/./metal/machine.h:1327
		return (struct metal_clock *)&__metal_dt_clock_3.clock;
20013d8a:	800017b7          	lui	a5,0x80001
20013d8e:	a3878793          	addi	a5,a5,-1480 # 80000a38 <__global_pointer$+0xfffff7d8>
/home/jubayer/Documents/riscV/EnergyHarvestingDeviceTestbed/FE310/blinky/bsp/build/debug/./metal/machine.h:1328
}
20013d92:	853e                	mv	a0,a5
20013d94:	4472                	lw	s0,28(sp)
20013d96:	6105                	addi	sp,sp,32
20013d98:	8082                	ret

20013d9a <__metal_driver_sifive_fe310_g000_pll_pllref>:
__metal_driver_sifive_fe310_g000_pll_pllref():
/home/jubayer/Documents/riscV/EnergyHarvestingDeviceTestbed/FE310/blinky/bsp/build/debug/./metal/machine.h:1331
{
20013d9a:	1101                	addi	sp,sp,-32
20013d9c:	ce22                	sw	s0,28(sp)
20013d9e:	1000                	addi	s0,sp,32
20013da0:	fea42623          	sw	a0,-20(s0)
/home/jubayer/Documents/riscV/EnergyHarvestingDeviceTestbed/FE310/blinky/bsp/build/debug/./metal/machine.h:1332
		return (struct metal_clock *)&__metal_dt_clock_1.clock;
20013da4:	800017b7          	lui	a5,0x80001
20013da8:	a4478793          	addi	a5,a5,-1468 # 80000a44 <__global_pointer$+0xfffff7e4>
/home/jubayer/Documents/riscV/EnergyHarvestingDeviceTestbed/FE310/blinky/bsp/build/debug/./metal/machine.h:1333
}
20013dac:	853e                	mv	a0,a5
20013dae:	4472                	lw	s0,28(sp)
20013db0:	6105                	addi	sp,sp,32
20013db2:	8082                	ret

20013db4 <__metal_driver_sifive_fe310_g000_pll_divider_base>:
__metal_driver_sifive_fe310_g000_pll_divider_base():
/home/jubayer/Documents/riscV/EnergyHarvestingDeviceTestbed/FE310/blinky/bsp/build/debug/./metal/machine.h:1336
{
20013db4:	1101                	addi	sp,sp,-32
20013db6:	ce22                	sw	s0,28(sp)
20013db8:	1000                	addi	s0,sp,32
20013dba:	fea42623          	sw	a0,-20(s0)
/home/jubayer/Documents/riscV/EnergyHarvestingDeviceTestbed/FE310/blinky/bsp/build/debug/./metal/machine.h:1337
		return (struct __metal_driver_sifive_fe310_g000_prci *)&__metal_dt_prci_10008000;
20013dbe:	82018793          	addi	a5,gp,-2016 # 80000a80 <__metal_dt_prci_10008000>
/home/jubayer/Documents/riscV/EnergyHarvestingDeviceTestbed/FE310/blinky/bsp/build/debug/./metal/machine.h:1338
}
20013dc2:	853e                	mv	a0,a5
20013dc4:	4472                	lw	s0,28(sp)
20013dc6:	6105                	addi	sp,sp,32
20013dc8:	8082                	ret

20013dca <__metal_driver_sifive_fe310_g000_pll_divider_offset>:
__metal_driver_sifive_fe310_g000_pll_divider_offset():
/home/jubayer/Documents/riscV/EnergyHarvestingDeviceTestbed/FE310/blinky/bsp/build/debug/./metal/machine.h:1341
{
20013dca:	1101                	addi	sp,sp,-32
20013dcc:	ce22                	sw	s0,28(sp)
20013dce:	1000                	addi	s0,sp,32
20013dd0:	fea42623          	sw	a0,-20(s0)
/home/jubayer/Documents/riscV/EnergyHarvestingDeviceTestbed/FE310/blinky/bsp/build/debug/./metal/machine.h:1342
		return METAL_SIFIVE_FE310_G000_PRCI_PLLOUTDIV;
20013dd4:	47b1                	li	a5,12
/home/jubayer/Documents/riscV/EnergyHarvestingDeviceTestbed/FE310/blinky/bsp/build/debug/./metal/machine.h:1343
}
20013dd6:	853e                	mv	a0,a5
20013dd8:	4472                	lw	s0,28(sp)
20013dda:	6105                	addi	sp,sp,32
20013ddc:	8082                	ret

20013dde <__metal_driver_sifive_fe310_g000_pll_config_base>:
__metal_driver_sifive_fe310_g000_pll_config_base():
/home/jubayer/Documents/riscV/EnergyHarvestingDeviceTestbed/FE310/blinky/bsp/build/debug/./metal/machine.h:1346
{
20013dde:	1141                	addi	sp,sp,-16
20013de0:	c622                	sw	s0,12(sp)
20013de2:	0800                	addi	s0,sp,16
/home/jubayer/Documents/riscV/EnergyHarvestingDeviceTestbed/FE310/blinky/bsp/build/debug/./metal/machine.h:1347
		return (struct __metal_driver_sifive_fe310_g000_prci *)&__metal_dt_prci_10008000;
20013de4:	82018793          	addi	a5,gp,-2016 # 80000a80 <__metal_dt_prci_10008000>
/home/jubayer/Documents/riscV/EnergyHarvestingDeviceTestbed/FE310/blinky/bsp/build/debug/./metal/machine.h:1348
}
20013de8:	853e                	mv	a0,a5
20013dea:	4432                	lw	s0,12(sp)
20013dec:	0141                	addi	sp,sp,16
20013dee:	8082                	ret

20013df0 <__metal_driver_sifive_fe310_g000_pll_config_offset>:
__metal_driver_sifive_fe310_g000_pll_config_offset():
/home/jubayer/Documents/riscV/EnergyHarvestingDeviceTestbed/FE310/blinky/bsp/build/debug/./metal/machine.h:1351
{
20013df0:	1141                	addi	sp,sp,-16
20013df2:	c622                	sw	s0,12(sp)
20013df4:	0800                	addi	s0,sp,16
/home/jubayer/Documents/riscV/EnergyHarvestingDeviceTestbed/FE310/blinky/bsp/build/debug/./metal/machine.h:1352
		return METAL_SIFIVE_FE310_G000_PRCI_PLLCFG;
20013df6:	47a1                	li	a5,8
/home/jubayer/Documents/riscV/EnergyHarvestingDeviceTestbed/FE310/blinky/bsp/build/debug/./metal/machine.h:1353
}
20013df8:	853e                	mv	a0,a5
20013dfa:	4432                	lw	s0,12(sp)
20013dfc:	0141                	addi	sp,sp,16
20013dfe:	8082                	ret

20013e00 <__metal_driver_sifive_fe310_g000_pll_init_rate>:
__metal_driver_sifive_fe310_g000_pll_init_rate():
/home/jubayer/Documents/riscV/EnergyHarvestingDeviceTestbed/FE310/blinky/bsp/build/debug/./metal/machine.h:1356
{
20013e00:	1141                	addi	sp,sp,-16
20013e02:	c622                	sw	s0,12(sp)
20013e04:	0800                	addi	s0,sp,16
/home/jubayer/Documents/riscV/EnergyHarvestingDeviceTestbed/FE310/blinky/bsp/build/debug/./metal/machine.h:1357
		return 16000000;
20013e06:	00f427b7          	lui	a5,0xf42
20013e0a:	40078793          	addi	a5,a5,1024 # f42400 <__heap_size+0xf41c00>
/home/jubayer/Documents/riscV/EnergyHarvestingDeviceTestbed/FE310/blinky/bsp/build/debug/./metal/machine.h:1358
}
20013e0e:	853e                	mv	a0,a5
20013e10:	4432                	lw	s0,12(sp)
20013e12:	0141                	addi	sp,sp,16
20013e14:	8082                	ret

20013e16 <__metal_driver_sifive_fe310_g000_prci_base>:
__metal_driver_sifive_fe310_g000_prci_base():
/home/jubayer/Documents/riscV/EnergyHarvestingDeviceTestbed/FE310/blinky/bsp/build/debug/./metal/machine.h:1364
{
20013e16:	1141                	addi	sp,sp,-16
20013e18:	c622                	sw	s0,12(sp)
20013e1a:	0800                	addi	s0,sp,16
/home/jubayer/Documents/riscV/EnergyHarvestingDeviceTestbed/FE310/blinky/bsp/build/debug/./metal/machine.h:1365
		return METAL_SIFIVE_FE310_G000_PRCI_10008000_BASE_ADDRESS;
20013e1c:	100087b7          	lui	a5,0x10008
/home/jubayer/Documents/riscV/EnergyHarvestingDeviceTestbed/FE310/blinky/bsp/build/debug/./metal/machine.h:1366
}
20013e20:	853e                	mv	a0,a5
20013e22:	4432                	lw	s0,12(sp)
20013e24:	0141                	addi	sp,sp,16
20013e26:	8082                	ret

20013e28 <__metal_driver_sifive_fe310_g000_prci_vtable>:
__metal_driver_sifive_fe310_g000_prci_vtable():
/home/jubayer/Documents/riscV/EnergyHarvestingDeviceTestbed/FE310/blinky/bsp/build/debug/./metal/machine.h:1374
{
20013e28:	1141                	addi	sp,sp,-16
20013e2a:	c622                	sw	s0,12(sp)
20013e2c:	0800                	addi	s0,sp,16
/home/jubayer/Documents/riscV/EnergyHarvestingDeviceTestbed/FE310/blinky/bsp/build/debug/./metal/machine.h:1375
		return &__metal_driver_vtable_sifive_fe310_g000_prci;
20013e2e:	200117b7          	lui	a5,0x20011
20013e32:	f6478793          	addi	a5,a5,-156 # 20010f64 <__metal_driver_vtable_sifive_fe310_g000_prci>
/home/jubayer/Documents/riscV/EnergyHarvestingDeviceTestbed/FE310/blinky/bsp/build/debug/./metal/machine.h:1376
}
20013e36:	853e                	mv	a0,a5
20013e38:	4432                	lw	s0,12(sp)
20013e3a:	0141                	addi	sp,sp,16
20013e3c:	8082                	ret

20013e3e <get_pll_config_freq>:
get_pll_config_freq():
/home/jubayer/Documents/riscV/EnergyHarvestingDeviceTestbed/FE310/blinky/freedom-metal/src/drivers/sifive_fe310-g000_pll.c:141
                                const struct pll_config_t *config) {
20013e3e:	1101                	addi	sp,sp,-32
20013e40:	ce22                	sw	s0,28(sp)
20013e42:	1000                	addi	s0,sp,32
20013e44:	fea42623          	sw	a0,-20(s0)
20013e48:	feb42423          	sw	a1,-24(s0)
/home/jubayer/Documents/riscV/EnergyHarvestingDeviceTestbed/FE310/blinky/freedom-metal/src/drivers/sifive_fe310-g000_pll.c:142
    if (pll_input_rate < config->min_input_rate ||
20013e4c:	fe842783          	lw	a5,-24(s0)
20013e50:	479c                	lw	a5,8(a5)
20013e52:	fec42703          	lw	a4,-20(s0)
20013e56:	00f76963          	bltu	a4,a5,20013e68 <get_pll_config_freq+0x2a>
/home/jubayer/Documents/riscV/EnergyHarvestingDeviceTestbed/FE310/blinky/freedom-metal/src/drivers/sifive_fe310-g000_pll.c:143 (discriminator 1)
        pll_input_rate > config->max_input_rate)
20013e5a:	fe842783          	lw	a5,-24(s0)
20013e5e:	47dc                	lw	a5,12(a5)
/home/jubayer/Documents/riscV/EnergyHarvestingDeviceTestbed/FE310/blinky/freedom-metal/src/drivers/sifive_fe310-g000_pll.c:142 (discriminator 1)
    if (pll_input_rate < config->min_input_rate ||
20013e60:	fec42703          	lw	a4,-20(s0)
20013e64:	00e7f463          	bgeu	a5,a4,20013e6c <get_pll_config_freq+0x2e>
/home/jubayer/Documents/riscV/EnergyHarvestingDeviceTestbed/FE310/blinky/freedom-metal/src/drivers/sifive_fe310-g000_pll.c:144
        return PLL_CONFIG_NOT_VALID;
20013e68:	57fd                	li	a5,-1
20013e6a:	a829                	j	20013e84 <get_pll_config_freq+0x46>
/home/jubayer/Documents/riscV/EnergyHarvestingDeviceTestbed/FE310/blinky/freedom-metal/src/drivers/sifive_fe310-g000_pll.c:146
    return pll_input_rate * config->multiplier / config->divisor;
20013e6c:	fe842783          	lw	a5,-24(s0)
20013e70:	4398                	lw	a4,0(a5)
20013e72:	fec42783          	lw	a5,-20(s0)
20013e76:	02f70733          	mul	a4,a4,a5
20013e7a:	fe842783          	lw	a5,-24(s0)
20013e7e:	43dc                	lw	a5,4(a5)
20013e80:	02f757b3          	divu	a5,a4,a5
/home/jubayer/Documents/riscV/EnergyHarvestingDeviceTestbed/FE310/blinky/freedom-metal/src/drivers/sifive_fe310-g000_pll.c:147
}
20013e84:	853e                	mv	a0,a5
20013e86:	4472                	lw	s0,28(sp)
20013e88:	6105                	addi	sp,sp,32
20013e8a:	8082                	ret

20013e8c <__metal_driver_sifive_fe310_g000_pll_init>:
__metal_driver_sifive_fe310_g000_pll_init():
/home/jubayer/Documents/riscV/EnergyHarvestingDeviceTestbed/FE310/blinky/freedom-metal/src/drivers/sifive_fe310-g000_pll.c:162
    struct __metal_driver_sifive_fe310_g000_pll *pll) {
20013e8c:	7139                	addi	sp,sp,-64
20013e8e:	de06                	sw	ra,60(sp)
20013e90:	dc22                	sw	s0,56(sp)
20013e92:	0080                	addi	s0,sp,64
20013e94:	fca42623          	sw	a0,-52(s0)
/home/jubayer/Documents/riscV/EnergyHarvestingDeviceTestbed/FE310/blinky/freedom-metal/src/drivers/sifive_fe310-g000_pll.c:164
        __metal_driver_sifive_fe310_g000_pll_pllref(&(pll->clock));
20013e98:	fcc42783          	lw	a5,-52(s0)
20013e9c:	853e                	mv	a0,a5
20013e9e:	3df5                	jal	20013d9a <__metal_driver_sifive_fe310_g000_pll_pllref>
20013ea0:	fea42623          	sw	a0,-20(s0)
/home/jubayer/Documents/riscV/EnergyHarvestingDeviceTestbed/FE310/blinky/freedom-metal/src/drivers/sifive_fe310-g000_pll.c:165
    long init_rate = __metal_driver_sifive_fe310_g000_pll_init_rate();
20013ea4:	3fb1                	jal	20013e00 <__metal_driver_sifive_fe310_g000_pll_init_rate>
20013ea6:	fea42423          	sw	a0,-24(s0)
/home/jubayer/Documents/riscV/EnergyHarvestingDeviceTestbed/FE310/blinky/freedom-metal/src/drivers/sifive_fe310-g000_pll.c:166
    long config_offset = __metal_driver_sifive_fe310_g000_pll_config_offset();
20013eaa:	3799                	jal	20013df0 <__metal_driver_sifive_fe310_g000_pll_config_offset>
20013eac:	fea42223          	sw	a0,-28(s0)
/home/jubayer/Documents/riscV/EnergyHarvestingDeviceTestbed/FE310/blinky/freedom-metal/src/drivers/sifive_fe310-g000_pll.c:167
    long base = __metal_driver_sifive_fe310_g000_prci_base();
20013eb0:	379d                	jal	20013e16 <__metal_driver_sifive_fe310_g000_prci_base>
20013eb2:	fea42023          	sw	a0,-32(s0)
/home/jubayer/Documents/riscV/EnergyHarvestingDeviceTestbed/FE310/blinky/freedom-metal/src/drivers/sifive_fe310-g000_pll.c:169
    __metal_io_u32 *pllcfg = (__metal_io_u32 *)(base + config_offset);
20013eb6:	fe042703          	lw	a4,-32(s0)
20013eba:	fe442783          	lw	a5,-28(s0)
20013ebe:	97ba                	add	a5,a5,a4
20013ec0:	fcf42e23          	sw	a5,-36(s0)
/home/jubayer/Documents/riscV/EnergyHarvestingDeviceTestbed/FE310/blinky/freedom-metal/src/drivers/sifive_fe310-g000_pll.c:173
    _metal_clock_call_all_callbacks(pll->clock._pre_rate_change_callback);
20013ec4:	fcc42783          	lw	a5,-52(s0)
20013ec8:	43dc                	lw	a5,4(a5)
20013eca:	853e                	mv	a0,a5
20013ecc:	066010ef          	jal	ra,20014f32 <_metal_clock_call_all_callbacks>
/home/jubayer/Documents/riscV/EnergyHarvestingDeviceTestbed/FE310/blinky/freedom-metal/src/drivers/sifive_fe310-g000_pll.c:177
    if ((__METAL_ACCESS_ONCE(pllcfg) & PLL_SEL) != 0)
20013ed0:	fdc42783          	lw	a5,-36(s0)
20013ed4:	4398                	lw	a4,0(a5)
20013ed6:	67c1                	lui	a5,0x10
20013ed8:	8ff9                	and	a5,a5,a4
20013eda:	cb91                	beqz	a5,20013eee <__metal_driver_sifive_fe310_g000_pll_init+0x62>
/home/jubayer/Documents/riscV/EnergyHarvestingDeviceTestbed/FE310/blinky/freedom-metal/src/drivers/sifive_fe310-g000_pll.c:178
        __METAL_ACCESS_ONCE(pllcfg) &= ~(PLL_SEL);
20013edc:	fdc42783          	lw	a5,-36(s0)
20013ee0:	4398                	lw	a4,0(a5)
20013ee2:	77c1                	lui	a5,0xffff0
20013ee4:	17fd                	addi	a5,a5,-1
20013ee6:	8f7d                	and	a4,a4,a5
20013ee8:	fdc42783          	lw	a5,-36(s0)
20013eec:	c398                	sw	a4,0(a5)
/home/jubayer/Documents/riscV/EnergyHarvestingDeviceTestbed/FE310/blinky/freedom-metal/src/drivers/sifive_fe310-g000_pll.c:181
    if (pllref != NULL)
20013eee:	fec42783          	lw	a5,-20(s0)
20013ef2:	cb91                	beqz	a5,20013f06 <__metal_driver_sifive_fe310_g000_pll_init+0x7a>
/home/jubayer/Documents/riscV/EnergyHarvestingDeviceTestbed/FE310/blinky/freedom-metal/src/drivers/sifive_fe310-g000_pll.c:182
        __METAL_ACCESS_ONCE(pllcfg) |= PLL_REFSEL;
20013ef4:	fdc42783          	lw	a5,-36(s0)
20013ef8:	4398                	lw	a4,0(a5)
20013efa:	000207b7          	lui	a5,0x20
20013efe:	8f5d                	or	a4,a4,a5
20013f00:	fdc42783          	lw	a5,-36(s0)
20013f04:	c398                	sw	a4,0(a5)
/home/jubayer/Documents/riscV/EnergyHarvestingDeviceTestbed/FE310/blinky/freedom-metal/src/drivers/sifive_fe310-g000_pll.c:187
    pll->clock.vtable->set_rate_hz(&(pll->clock), init_rate);
20013f06:	fcc42783          	lw	a5,-52(s0)
20013f0a:	439c                	lw	a5,0(a5)
20013f0c:	43d8                	lw	a4,4(a5)
20013f0e:	fcc42783          	lw	a5,-52(s0)
20013f12:	fe842583          	lw	a1,-24(s0)
20013f16:	853e                	mv	a0,a5
20013f18:	9702                	jalr	a4
/home/jubayer/Documents/riscV/EnergyHarvestingDeviceTestbed/FE310/blinky/freedom-metal/src/drivers/sifive_fe310-g000_pll.c:190
    _metal_clock_call_all_callbacks(pll->clock._post_rate_change_callback);
20013f1a:	fcc42783          	lw	a5,-52(s0)
20013f1e:	479c                	lw	a5,8(a5)
20013f20:	853e                	mv	a0,a5
20013f22:	010010ef          	jal	ra,20014f32 <_metal_clock_call_all_callbacks>
/home/jubayer/Documents/riscV/EnergyHarvestingDeviceTestbed/FE310/blinky/freedom-metal/src/drivers/sifive_fe310-g000_pll.c:191
}
20013f26:	0001                	nop
20013f28:	50f2                	lw	ra,60(sp)
20013f2a:	5462                	lw	s0,56(sp)
20013f2c:	6121                	addi	sp,sp,64
20013f2e:	8082                	ret

20013f30 <__metal_driver_sifive_fe310_g000_pll_get_rate_hz>:
__metal_driver_sifive_fe310_g000_pll_get_rate_hz():
/home/jubayer/Documents/riscV/EnergyHarvestingDeviceTestbed/FE310/blinky/freedom-metal/src/drivers/sifive_fe310-g000_pll.c:194
    const struct metal_clock *clock) {
20013f30:	711d                	addi	sp,sp,-96
20013f32:	ce86                	sw	ra,92(sp)
20013f34:	cca2                	sw	s0,88(sp)
20013f36:	1080                	addi	s0,sp,96
20013f38:	faa42623          	sw	a0,-84(s0)
/home/jubayer/Documents/riscV/EnergyHarvestingDeviceTestbed/FE310/blinky/freedom-metal/src/drivers/sifive_fe310-g000_pll.c:196
        __metal_driver_sifive_fe310_g000_pll_pllref(clock);
20013f3c:	fac42503          	lw	a0,-84(s0)
20013f40:	3da9                	jal	20013d9a <__metal_driver_sifive_fe310_g000_pll_pllref>
20013f42:	fea42623          	sw	a0,-20(s0)
/home/jubayer/Documents/riscV/EnergyHarvestingDeviceTestbed/FE310/blinky/freedom-metal/src/drivers/sifive_fe310-g000_pll.c:198
        __metal_driver_sifive_fe310_g000_pll_pllsel0(clock);
20013f46:	fac42503          	lw	a0,-84(s0)
20013f4a:	3d1d                	jal	20013d80 <__metal_driver_sifive_fe310_g000_pll_pllsel0>
20013f4c:	fea42423          	sw	a0,-24(s0)
/home/jubayer/Documents/riscV/EnergyHarvestingDeviceTestbed/FE310/blinky/freedom-metal/src/drivers/sifive_fe310-g000_pll.c:200
        __metal_driver_sifive_fe310_g000_pll_config_offset(clock);
20013f50:	fac42503          	lw	a0,-84(s0)
20013f54:	3d71                	jal	20013df0 <__metal_driver_sifive_fe310_g000_pll_config_offset>
20013f56:	fea42223          	sw	a0,-28(s0)
/home/jubayer/Documents/riscV/EnergyHarvestingDeviceTestbed/FE310/blinky/freedom-metal/src/drivers/sifive_fe310-g000_pll.c:202
        __metal_driver_sifive_fe310_g000_pll_config_base(clock);
20013f5a:	fac42503          	lw	a0,-84(s0)
20013f5e:	3541                	jal	20013dde <__metal_driver_sifive_fe310_g000_pll_config_base>
20013f60:	fea42023          	sw	a0,-32(s0)
/home/jubayer/Documents/riscV/EnergyHarvestingDeviceTestbed/FE310/blinky/freedom-metal/src/drivers/sifive_fe310-g000_pll.c:204
        __metal_driver_sifive_fe310_g000_pll_divider_offset(clock);
20013f64:	fac42503          	lw	a0,-84(s0)
20013f68:	358d                	jal	20013dca <__metal_driver_sifive_fe310_g000_pll_divider_offset>
20013f6a:	fca42e23          	sw	a0,-36(s0)
/home/jubayer/Documents/riscV/EnergyHarvestingDeviceTestbed/FE310/blinky/freedom-metal/src/drivers/sifive_fe310-g000_pll.c:206
        __metal_driver_sifive_fe310_g000_pll_divider_base(clock);
20013f6e:	fac42503          	lw	a0,-84(s0)
20013f72:	3589                	jal	20013db4 <__metal_driver_sifive_fe310_g000_pll_divider_base>
20013f74:	fca42c23          	sw	a0,-40(s0)
/home/jubayer/Documents/riscV/EnergyHarvestingDeviceTestbed/FE310/blinky/freedom-metal/src/drivers/sifive_fe310-g000_pll.c:208
        __metal_driver_sifive_fe310_g000_prci_vtable();
20013f78:	3d45                	jal	20013e28 <__metal_driver_sifive_fe310_g000_prci_vtable>
20013f7a:	fca42a23          	sw	a0,-44(s0)
/home/jubayer/Documents/riscV/EnergyHarvestingDeviceTestbed/FE310/blinky/freedom-metal/src/drivers/sifive_fe310-g000_pll.c:210
    long cfg = vtable->get_reg(config_base, config_offset);
20013f7e:	fd442783          	lw	a5,-44(s0)
20013f82:	439c                	lw	a5,0(a5)
20013f84:	fe442583          	lw	a1,-28(s0)
20013f88:	fe042503          	lw	a0,-32(s0)
20013f8c:	9782                	jalr	a5
20013f8e:	fca42823          	sw	a0,-48(s0)
/home/jubayer/Documents/riscV/EnergyHarvestingDeviceTestbed/FE310/blinky/freedom-metal/src/drivers/sifive_fe310-g000_pll.c:211
    long div = vtable->get_reg(divider_base, divider_offset);
20013f92:	fd442783          	lw	a5,-44(s0)
20013f96:	439c                	lw	a5,0(a5)
20013f98:	fdc42583          	lw	a1,-36(s0)
20013f9c:	fd842503          	lw	a0,-40(s0)
20013fa0:	9782                	jalr	a5
20013fa2:	fca42623          	sw	a0,-52(s0)
/home/jubayer/Documents/riscV/EnergyHarvestingDeviceTestbed/FE310/blinky/freedom-metal/src/drivers/sifive_fe310-g000_pll.c:215
    if (__METAL_GET_FIELD(cfg, PLL_SEL) == 0)
20013fa6:	fd042703          	lw	a4,-48(s0)
20013faa:	67c1                	lui	a5,0x10
20013fac:	8f7d                	and	a4,a4,a5
20013fae:	67c1                	lui	a5,0x10
20013fb0:	00f77863          	bgeu	a4,a5,20013fc0 <__metal_driver_sifive_fe310_g000_pll_get_rate_hz+0x90>
/home/jubayer/Documents/riscV/EnergyHarvestingDeviceTestbed/FE310/blinky/freedom-metal/src/drivers/sifive_fe310-g000_pll.c:216
        return metal_clock_get_rate_hz(pllsel0);
20013fb4:	fe842503          	lw	a0,-24(s0)
20013fb8:	7bd000ef          	jal	ra,20014f74 <metal_clock_get_rate_hz>
20013fbc:	87aa                	mv	a5,a0
20013fbe:	a8e1                	j	20014096 <__metal_driver_sifive_fe310_g000_pll_get_rate_hz+0x166>
/home/jubayer/Documents/riscV/EnergyHarvestingDeviceTestbed/FE310/blinky/freedom-metal/src/drivers/sifive_fe310-g000_pll.c:221
        __METAL_GET_FIELD(cfg, PLL_REFSEL) ? pllref : pllsel0);
20013fc0:	fd042703          	lw	a4,-48(s0)
20013fc4:	000207b7          	lui	a5,0x20
20013fc8:	8f7d                	and	a4,a4,a5
/home/jubayer/Documents/riscV/EnergyHarvestingDeviceTestbed/FE310/blinky/freedom-metal/src/drivers/sifive_fe310-g000_pll.c:220
    long ref_hz = metal_clock_get_rate_hz(
20013fca:	000207b7          	lui	a5,0x20
20013fce:	00f76563          	bltu	a4,a5,20013fd8 <__metal_driver_sifive_fe310_g000_pll_get_rate_hz+0xa8>
/home/jubayer/Documents/riscV/EnergyHarvestingDeviceTestbed/FE310/blinky/freedom-metal/src/drivers/sifive_fe310-g000_pll.c:220 (discriminator 1)
20013fd2:	fec42783          	lw	a5,-20(s0)
20013fd6:	a019                	j	20013fdc <__metal_driver_sifive_fe310_g000_pll_get_rate_hz+0xac>
/home/jubayer/Documents/riscV/EnergyHarvestingDeviceTestbed/FE310/blinky/freedom-metal/src/drivers/sifive_fe310-g000_pll.c:220 (discriminator 2)
20013fd8:	fe842783          	lw	a5,-24(s0)
/home/jubayer/Documents/riscV/EnergyHarvestingDeviceTestbed/FE310/blinky/freedom-metal/src/drivers/sifive_fe310-g000_pll.c:220 (discriminator 4)
20013fdc:	853e                	mv	a0,a5
20013fde:	797000ef          	jal	ra,20014f74 <metal_clock_get_rate_hz>
20013fe2:	fca42423          	sw	a0,-56(s0)
/home/jubayer/Documents/riscV/EnergyHarvestingDeviceTestbed/FE310/blinky/freedom-metal/src/drivers/sifive_fe310-g000_pll.c:225 (discriminator 4)
    if (__METAL_GET_FIELD(cfg, PLL_BYPASS))
20013fe6:	fd042703          	lw	a4,-48(s0)
20013fea:	000407b7          	lui	a5,0x40
20013fee:	8f7d                	and	a4,a4,a5
20013ff0:	000407b7          	lui	a5,0x40
20013ff4:	00f76563          	bltu	a4,a5,20013ffe <__metal_driver_sifive_fe310_g000_pll_get_rate_hz+0xce>
/home/jubayer/Documents/riscV/EnergyHarvestingDeviceTestbed/FE310/blinky/freedom-metal/src/drivers/sifive_fe310-g000_pll.c:226
        return ref_hz;
20013ff8:	fc842783          	lw	a5,-56(s0)
20013ffc:	a869                	j	20014096 <__metal_driver_sifive_fe310_g000_pll_get_rate_hz+0x166>
/home/jubayer/Documents/riscV/EnergyHarvestingDeviceTestbed/FE310/blinky/freedom-metal/src/drivers/sifive_fe310-g000_pll.c:229
    long div_r = __METAL_GET_FIELD(cfg, PLL_R) + 1;
20013ffe:	fd042783          	lw	a5,-48(s0)
20014002:	8b9d                	andi	a5,a5,7
20014004:	0785                	addi	a5,a5,1
20014006:	fcf42223          	sw	a5,-60(s0)
/home/jubayer/Documents/riscV/EnergyHarvestingDeviceTestbed/FE310/blinky/freedom-metal/src/drivers/sifive_fe310-g000_pll.c:230
    long mul_f = 2 * (__METAL_GET_FIELD(cfg, PLL_F) + 1);
2001400a:	fd042783          	lw	a5,-48(s0)
2001400e:	3f07f793          	andi	a5,a5,1008
20014012:	8391                	srli	a5,a5,0x4
20014014:	0785                	addi	a5,a5,1
20014016:	0786                	slli	a5,a5,0x1
20014018:	fcf42023          	sw	a5,-64(s0)
/home/jubayer/Documents/riscV/EnergyHarvestingDeviceTestbed/FE310/blinky/freedom-metal/src/drivers/sifive_fe310-g000_pll.c:231
    if (__METAL_GET_FIELD(cfg, PLL_Q) == 0)
2001401c:	fd042703          	lw	a4,-48(s0)
20014020:	6785                	lui	a5,0x1
20014022:	c0078793          	addi	a5,a5,-1024 # c00 <__heap_size+0x400>
20014026:	8f7d                	and	a4,a4,a5
20014028:	3ff00793          	li	a5,1023
2001402c:	00e7e463          	bltu	a5,a4,20014034 <__metal_driver_sifive_fe310_g000_pll_get_rate_hz+0x104>
/home/jubayer/Documents/riscV/EnergyHarvestingDeviceTestbed/FE310/blinky/freedom-metal/src/drivers/sifive_fe310-g000_pll.c:232
        return -1;
20014030:	57fd                	li	a5,-1
20014032:	a095                	j	20014096 <__metal_driver_sifive_fe310_g000_pll_get_rate_hz+0x166>
/home/jubayer/Documents/riscV/EnergyHarvestingDeviceTestbed/FE310/blinky/freedom-metal/src/drivers/sifive_fe310-g000_pll.c:233
    long div_q = 1 << __METAL_GET_FIELD(cfg, PLL_Q);
20014034:	fd042703          	lw	a4,-48(s0)
20014038:	6785                	lui	a5,0x1
2001403a:	c0078793          	addi	a5,a5,-1024 # c00 <__heap_size+0x400>
2001403e:	8ff9                	and	a5,a5,a4
20014040:	83a9                	srli	a5,a5,0xa
20014042:	4705                	li	a4,1
20014044:	00f717b3          	sll	a5,a4,a5
20014048:	faf42e23          	sw	a5,-68(s0)
/home/jubayer/Documents/riscV/EnergyHarvestingDeviceTestbed/FE310/blinky/freedom-metal/src/drivers/sifive_fe310-g000_pll.c:238
    long pllout = (((ref_hz / div_r) * mul_f) / div_q);
2001404c:	fc842703          	lw	a4,-56(s0)
20014050:	fc442783          	lw	a5,-60(s0)
20014054:	02f74733          	div	a4,a4,a5
20014058:	fc042783          	lw	a5,-64(s0)
2001405c:	02f70733          	mul	a4,a4,a5
20014060:	fbc42783          	lw	a5,-68(s0)
20014064:	02f747b3          	div	a5,a4,a5
20014068:	faf42c23          	sw	a5,-72(s0)
/home/jubayer/Documents/riscV/EnergyHarvestingDeviceTestbed/FE310/blinky/freedom-metal/src/drivers/sifive_fe310-g000_pll.c:239
    if (__METAL_GET_FIELD(div, DIV_1))
2001406c:	fcc42783          	lw	a5,-52(s0)
20014070:	1007f713          	andi	a4,a5,256
20014074:	0ff00793          	li	a5,255
20014078:	00e7f563          	bgeu	a5,a4,20014082 <__metal_driver_sifive_fe310_g000_pll_get_rate_hz+0x152>
/home/jubayer/Documents/riscV/EnergyHarvestingDeviceTestbed/FE310/blinky/freedom-metal/src/drivers/sifive_fe310-g000_pll.c:240
        return pllout;
2001407c:	fb842783          	lw	a5,-72(s0)
20014080:	a819                	j	20014096 <__metal_driver_sifive_fe310_g000_pll_get_rate_hz+0x166>
/home/jubayer/Documents/riscV/EnergyHarvestingDeviceTestbed/FE310/blinky/freedom-metal/src/drivers/sifive_fe310-g000_pll.c:242
    return pllout / (2 * (__METAL_GET_FIELD(div, DIV_DIV) + 1));
20014082:	fb842703          	lw	a4,-72(s0)
20014086:	fcc42783          	lw	a5,-52(s0)
2001408a:	03f7f793          	andi	a5,a5,63
2001408e:	0785                	addi	a5,a5,1
20014090:	0786                	slli	a5,a5,0x1
20014092:	02f757b3          	divu	a5,a4,a5
/home/jubayer/Documents/riscV/EnergyHarvestingDeviceTestbed/FE310/blinky/freedom-metal/src/drivers/sifive_fe310-g000_pll.c:243
}
20014096:	853e                	mv	a0,a5
20014098:	40f6                	lw	ra,92(sp)
2001409a:	4466                	lw	s0,88(sp)
2001409c:	6125                	addi	sp,sp,96
2001409e:	8082                	ret

200140a0 <find_closest_config>:
find_closest_config():
/home/jubayer/Documents/riscV/EnergyHarvestingDeviceTestbed/FE310/blinky/freedom-metal/src/drivers/sifive_fe310-g000_pll.c:253
static int find_closest_config(long ref_hz, long rate) {
200140a0:	7139                	addi	sp,sp,-64
200140a2:	de06                	sw	ra,60(sp)
200140a4:	dc22                	sw	s0,56(sp)
200140a6:	0080                	addi	s0,sp,64
200140a8:	fca42623          	sw	a0,-52(s0)
200140ac:	fcb42423          	sw	a1,-56(s0)
/home/jubayer/Documents/riscV/EnergyHarvestingDeviceTestbed/FE310/blinky/freedom-metal/src/drivers/sifive_fe310-g000_pll.c:254
    int closest_index = -1;
200140b0:	57fd                	li	a5,-1
200140b2:	fef42623          	sw	a5,-20(s0)
/home/jubayer/Documents/riscV/EnergyHarvestingDeviceTestbed/FE310/blinky/freedom-metal/src/drivers/sifive_fe310-g000_pll.c:255
    long closest_diff = LONG_MAX;
200140b6:	800007b7          	lui	a5,0x80000
200140ba:	fff7c793          	not	a5,a5
200140be:	fef42423          	sw	a5,-24(s0)
/home/jubayer/Documents/riscV/EnergyHarvestingDeviceTestbed/FE310/blinky/freedom-metal/src/drivers/sifive_fe310-g000_pll.c:259
    for (int i = (sizeof(pll_configs) / sizeof(pll_configs[0])) - 1; i >= 0;
200140c2:	04300793          	li	a5,67
200140c6:	fef42223          	sw	a5,-28(s0)
200140ca:	a0ad                	j	20014134 <find_closest_config+0x94>
/home/jubayer/Documents/riscV/EnergyHarvestingDeviceTestbed/FE310/blinky/freedom-metal/src/drivers/sifive_fe310-g000_pll.c:261
        long config_freq = get_pll_config_freq(ref_hz, &(pll_configs[i]));
200140cc:	fcc42683          	lw	a3,-52(s0)
200140d0:	fe442783          	lw	a5,-28(s0)
200140d4:	00579713          	slli	a4,a5,0x5
200140d8:	200107b7          	lui	a5,0x20010
200140dc:	53078793          	addi	a5,a5,1328 # 20010530 <pll_configs>
200140e0:	97ba                	add	a5,a5,a4
200140e2:	85be                	mv	a1,a5
200140e4:	8536                	mv	a0,a3
200140e6:	3ba1                	jal	20013e3e <get_pll_config_freq>
200140e8:	fea42023          	sw	a0,-32(s0)
/home/jubayer/Documents/riscV/EnergyHarvestingDeviceTestbed/FE310/blinky/freedom-metal/src/drivers/sifive_fe310-g000_pll.c:262
        if (config_freq != PLL_CONFIG_NOT_VALID) {
200140ec:	fe042703          	lw	a4,-32(s0)
200140f0:	57fd                	li	a5,-1
200140f2:	02f70c63          	beq	a4,a5,2001412a <find_closest_config+0x8a>
/home/jubayer/Documents/riscV/EnergyHarvestingDeviceTestbed/FE310/blinky/freedom-metal/src/drivers/sifive_fe310-g000_pll.c:263
            long freq_diff = labs(config_freq - rate);
200140f6:	fe042703          	lw	a4,-32(s0)
200140fa:	fc842783          	lw	a5,-56(s0)
200140fe:	8f1d                	sub	a4,a4,a5
20014100:	41f75793          	srai	a5,a4,0x1f
20014104:	8f3d                	xor	a4,a4,a5
20014106:	40f707b3          	sub	a5,a4,a5
2001410a:	fcf42e23          	sw	a5,-36(s0)
/home/jubayer/Documents/riscV/EnergyHarvestingDeviceTestbed/FE310/blinky/freedom-metal/src/drivers/sifive_fe310-g000_pll.c:265
            if (freq_diff < closest_diff) {
2001410e:	fdc42703          	lw	a4,-36(s0)
20014112:	fe842783          	lw	a5,-24(s0)
20014116:	00f75a63          	bge	a4,a5,2001412a <find_closest_config+0x8a>
/home/jubayer/Documents/riscV/EnergyHarvestingDeviceTestbed/FE310/blinky/freedom-metal/src/drivers/sifive_fe310-g000_pll.c:266
                closest_index = i;
2001411a:	fe442783          	lw	a5,-28(s0)
2001411e:	fef42623          	sw	a5,-20(s0)
/home/jubayer/Documents/riscV/EnergyHarvestingDeviceTestbed/FE310/blinky/freedom-metal/src/drivers/sifive_fe310-g000_pll.c:267
                closest_diff = freq_diff;
20014122:	fdc42783          	lw	a5,-36(s0)
20014126:	fef42423          	sw	a5,-24(s0)
/home/jubayer/Documents/riscV/EnergyHarvestingDeviceTestbed/FE310/blinky/freedom-metal/src/drivers/sifive_fe310-g000_pll.c:260
         i--) {
2001412a:	fe442783          	lw	a5,-28(s0)
2001412e:	17fd                	addi	a5,a5,-1
20014130:	fef42223          	sw	a5,-28(s0)
/home/jubayer/Documents/riscV/EnergyHarvestingDeviceTestbed/FE310/blinky/freedom-metal/src/drivers/sifive_fe310-g000_pll.c:259 (discriminator 1)
    for (int i = (sizeof(pll_configs) / sizeof(pll_configs[0])) - 1; i >= 0;
20014134:	fe442783          	lw	a5,-28(s0)
20014138:	f807dae3          	bgez	a5,200140cc <find_closest_config+0x2c>
/home/jubayer/Documents/riscV/EnergyHarvestingDeviceTestbed/FE310/blinky/freedom-metal/src/drivers/sifive_fe310-g000_pll.c:272
    return closest_index;
2001413c:	fec42783          	lw	a5,-20(s0)
/home/jubayer/Documents/riscV/EnergyHarvestingDeviceTestbed/FE310/blinky/freedom-metal/src/drivers/sifive_fe310-g000_pll.c:273
}
20014140:	853e                	mv	a0,a5
20014142:	50f2                	lw	ra,60(sp)
20014144:	5462                	lw	s0,56(sp)
20014146:	6121                	addi	sp,sp,64
20014148:	8082                	ret

2001414a <configure_pll>:
configure_pll():
/home/jubayer/Documents/riscV/EnergyHarvestingDeviceTestbed/FE310/blinky/freedom-metal/src/drivers/sifive_fe310-g000_pll.c:290
                          const struct pll_config_t *config) {
2001414a:	7179                	addi	sp,sp,-48
2001414c:	d606                	sw	ra,44(sp)
2001414e:	d422                	sw	s0,40(sp)
20014150:	1800                	addi	s0,sp,48
20014152:	fca42e23          	sw	a0,-36(s0)
20014156:	fcb42c23          	sw	a1,-40(s0)
2001415a:	fcc42a23          	sw	a2,-44(s0)
/home/jubayer/Documents/riscV/EnergyHarvestingDeviceTestbed/FE310/blinky/freedom-metal/src/drivers/sifive_fe310-g000_pll.c:291
    __METAL_ACCESS_ONCE(pllcfg) &= ~(PLL_R);
2001415e:	fdc42783          	lw	a5,-36(s0)
20014162:	439c                	lw	a5,0(a5)
20014164:	ff87f713          	andi	a4,a5,-8
20014168:	fdc42783          	lw	a5,-36(s0)
2001416c:	c398                	sw	a4,0(a5)
/home/jubayer/Documents/riscV/EnergyHarvestingDeviceTestbed/FE310/blinky/freedom-metal/src/drivers/sifive_fe310-g000_pll.c:292
    __METAL_ACCESS_ONCE(pllcfg) |= PLL_R_SHIFT(config->r);
2001416e:	fdc42783          	lw	a5,-36(s0)
20014172:	4398                	lw	a4,0(a5)
20014174:	fd442783          	lw	a5,-44(s0)
20014178:	4b9c                	lw	a5,16(a5)
2001417a:	8b9d                	andi	a5,a5,7
2001417c:	8f5d                	or	a4,a4,a5
2001417e:	fdc42783          	lw	a5,-36(s0)
20014182:	c398                	sw	a4,0(a5)
/home/jubayer/Documents/riscV/EnergyHarvestingDeviceTestbed/FE310/blinky/freedom-metal/src/drivers/sifive_fe310-g000_pll.c:294
    __METAL_ACCESS_ONCE(pllcfg) &= ~(PLL_F);
20014184:	fdc42783          	lw	a5,-36(s0)
20014188:	439c                	lw	a5,0(a5)
2001418a:	c0f7f713          	andi	a4,a5,-1009
2001418e:	fdc42783          	lw	a5,-36(s0)
20014192:	c398                	sw	a4,0(a5)
/home/jubayer/Documents/riscV/EnergyHarvestingDeviceTestbed/FE310/blinky/freedom-metal/src/drivers/sifive_fe310-g000_pll.c:295
    __METAL_ACCESS_ONCE(pllcfg) |= PLL_F_SHIFT(config->f);
20014194:	fdc42783          	lw	a5,-36(s0)
20014198:	4398                	lw	a4,0(a5)
2001419a:	fd442783          	lw	a5,-44(s0)
2001419e:	4bdc                	lw	a5,20(a5)
200141a0:	0792                	slli	a5,a5,0x4
200141a2:	3f07f793          	andi	a5,a5,1008
200141a6:	8f5d                	or	a4,a4,a5
200141a8:	fdc42783          	lw	a5,-36(s0)
200141ac:	c398                	sw	a4,0(a5)
/home/jubayer/Documents/riscV/EnergyHarvestingDeviceTestbed/FE310/blinky/freedom-metal/src/drivers/sifive_fe310-g000_pll.c:297
    __METAL_ACCESS_ONCE(pllcfg) &= ~(PLL_Q);
200141ae:	fdc42783          	lw	a5,-36(s0)
200141b2:	4398                	lw	a4,0(a5)
200141b4:	77fd                	lui	a5,0xfffff
200141b6:	3ff78793          	addi	a5,a5,1023 # fffff3ff <__global_pointer$+0x7fffe19f>
200141ba:	8f7d                	and	a4,a4,a5
200141bc:	fdc42783          	lw	a5,-36(s0)
200141c0:	c398                	sw	a4,0(a5)
/home/jubayer/Documents/riscV/EnergyHarvestingDeviceTestbed/FE310/blinky/freedom-metal/src/drivers/sifive_fe310-g000_pll.c:298
    __METAL_ACCESS_ONCE(pllcfg) |= PLL_Q_SHIFT(config->q);
200141c2:	fdc42783          	lw	a5,-36(s0)
200141c6:	4398                	lw	a4,0(a5)
200141c8:	fd442783          	lw	a5,-44(s0)
200141cc:	4f9c                	lw	a5,24(a5)
200141ce:	00a79693          	slli	a3,a5,0xa
200141d2:	6785                	lui	a5,0x1
200141d4:	c0078793          	addi	a5,a5,-1024 # c00 <__heap_size+0x400>
200141d8:	8ff5                	and	a5,a5,a3
200141da:	8f5d                	or	a4,a4,a5
200141dc:	fdc42783          	lw	a5,-36(s0)
200141e0:	c398                	sw	a4,0(a5)
/home/jubayer/Documents/riscV/EnergyHarvestingDeviceTestbed/FE310/blinky/freedom-metal/src/drivers/sifive_fe310-g000_pll.c:300
    if (config->d < 0) {
200141e2:	fd442783          	lw	a5,-44(s0)
200141e6:	4fdc                	lw	a5,28(a5)
200141e8:	0207db63          	bgez	a5,2001421e <configure_pll+0xd4>
/home/jubayer/Documents/riscV/EnergyHarvestingDeviceTestbed/FE310/blinky/freedom-metal/src/drivers/sifive_fe310-g000_pll.c:302
        __METAL_ACCESS_ONCE(plloutdiv) |= DIV_1;
200141ec:	fd842783          	lw	a5,-40(s0)
200141f0:	439c                	lw	a5,0(a5)
200141f2:	1007e713          	ori	a4,a5,256
200141f6:	fd842783          	lw	a5,-40(s0)
200141fa:	c398                	sw	a4,0(a5)
/home/jubayer/Documents/riscV/EnergyHarvestingDeviceTestbed/FE310/blinky/freedom-metal/src/drivers/sifive_fe310-g000_pll.c:304
        __METAL_ACCESS_ONCE(plloutdiv) &= ~(DIV_DIV);
200141fc:	fd842783          	lw	a5,-40(s0)
20014200:	439c                	lw	a5,0(a5)
20014202:	fc07f713          	andi	a4,a5,-64
20014206:	fd842783          	lw	a5,-40(s0)
2001420a:	c398                	sw	a4,0(a5)
/home/jubayer/Documents/riscV/EnergyHarvestingDeviceTestbed/FE310/blinky/freedom-metal/src/drivers/sifive_fe310-g000_pll.c:305
        __METAL_ACCESS_ONCE(plloutdiv) |= PLL_DIV_SHIFT(1);
2001420c:	fd842783          	lw	a5,-40(s0)
20014210:	439c                	lw	a5,0(a5)
20014212:	0017e713          	ori	a4,a5,1
20014216:	fd842783          	lw	a5,-40(s0)
2001421a:	c398                	sw	a4,0(a5)
2001421c:	a82d                	j	20014256 <configure_pll+0x10c>
/home/jubayer/Documents/riscV/EnergyHarvestingDeviceTestbed/FE310/blinky/freedom-metal/src/drivers/sifive_fe310-g000_pll.c:307
        __METAL_ACCESS_ONCE(plloutdiv) &= ~(DIV_1);
2001421e:	fd842783          	lw	a5,-40(s0)
20014222:	439c                	lw	a5,0(a5)
20014224:	eff7f713          	andi	a4,a5,-257
20014228:	fd842783          	lw	a5,-40(s0)
2001422c:	c398                	sw	a4,0(a5)
/home/jubayer/Documents/riscV/EnergyHarvestingDeviceTestbed/FE310/blinky/freedom-metal/src/drivers/sifive_fe310-g000_pll.c:309
        __METAL_ACCESS_ONCE(plloutdiv) &= ~(DIV_DIV);
2001422e:	fd842783          	lw	a5,-40(s0)
20014232:	439c                	lw	a5,0(a5)
20014234:	fc07f713          	andi	a4,a5,-64
20014238:	fd842783          	lw	a5,-40(s0)
2001423c:	c398                	sw	a4,0(a5)
/home/jubayer/Documents/riscV/EnergyHarvestingDeviceTestbed/FE310/blinky/freedom-metal/src/drivers/sifive_fe310-g000_pll.c:310
        __METAL_ACCESS_ONCE(plloutdiv) |= PLL_DIV_SHIFT(config->d);
2001423e:	fd842783          	lw	a5,-40(s0)
20014242:	4398                	lw	a4,0(a5)
20014244:	fd442783          	lw	a5,-44(s0)
20014248:	4fdc                	lw	a5,28(a5)
2001424a:	03f7f793          	andi	a5,a5,63
2001424e:	8f5d                	or	a4,a4,a5
20014250:	fd842783          	lw	a5,-40(s0)
20014254:	c398                	sw	a4,0(a5)
/home/jubayer/Documents/riscV/EnergyHarvestingDeviceTestbed/FE310/blinky/freedom-metal/src/drivers/sifive_fe310-g000_pll.c:313
    __METAL_ACCESS_ONCE(pllcfg) &= ~(PLL_BYPASS);
20014256:	fdc42783          	lw	a5,-36(s0)
2001425a:	4398                	lw	a4,0(a5)
2001425c:	fffc07b7          	lui	a5,0xfffc0
20014260:	17fd                	addi	a5,a5,-1
20014262:	8f7d                	and	a4,a4,a5
20014264:	fdc42783          	lw	a5,-36(s0)
20014268:	c398                	sw	a4,0(a5)
/home/jubayer/Documents/riscV/EnergyHarvestingDeviceTestbed/FE310/blinky/freedom-metal/src/drivers/sifive_fe310-g000_pll.c:318
    __metal_driver_riscv_clint0_command_request(__METAL_DT_RISCV_CLINT0_HANDLE,
2001426a:	fe040793          	addi	a5,s0,-32
2001426e:	863e                	mv	a2,a5
20014270:	4585                	li	a1,1
20014272:	800017b7          	lui	a5,0x80001
20014276:	a6c78513          	addi	a0,a5,-1428 # 80000a6c <__global_pointer$+0xfffff80c>
2001427a:	ca6fd0ef          	jal	ra,20011720 <__metal_driver_riscv_clint0_command_request>
/home/jubayer/Documents/riscV/EnergyHarvestingDeviceTestbed/FE310/blinky/freedom-metal/src/drivers/sifive_fe310-g000_pll.c:320
    mtime_end = mtime + PLL_LOCK_WAIT_TICKS;
2001427e:	fe042603          	lw	a2,-32(s0)
20014282:	fe442683          	lw	a3,-28(s0)
20014286:	4511                	li	a0,4
20014288:	4581                	li	a1,0
2001428a:	00a60733          	add	a4,a2,a0
2001428e:	883a                	mv	a6,a4
20014290:	00c83833          	sltu	a6,a6,a2
20014294:	00b687b3          	add	a5,a3,a1
20014298:	00f806b3          	add	a3,a6,a5
2001429c:	87b6                	mv	a5,a3
2001429e:	fee42423          	sw	a4,-24(s0)
200142a2:	fef42623          	sw	a5,-20(s0)
/home/jubayer/Documents/riscV/EnergyHarvestingDeviceTestbed/FE310/blinky/freedom-metal/src/drivers/sifive_fe310-g000_pll.c:321
    while (mtime <= mtime_end) {
200142a6:	a819                	j	200142bc <configure_pll+0x172>
/home/jubayer/Documents/riscV/EnergyHarvestingDeviceTestbed/FE310/blinky/freedom-metal/src/drivers/sifive_fe310-g000_pll.c:322
        __metal_driver_riscv_clint0_command_request(
200142a8:	fe040793          	addi	a5,s0,-32
200142ac:	863e                	mv	a2,a5
200142ae:	4585                	li	a1,1
200142b0:	800017b7          	lui	a5,0x80001
200142b4:	a6c78513          	addi	a0,a5,-1428 # 80000a6c <__global_pointer$+0xfffff80c>
200142b8:	c68fd0ef          	jal	ra,20011720 <__metal_driver_riscv_clint0_command_request>
/home/jubayer/Documents/riscV/EnergyHarvestingDeviceTestbed/FE310/blinky/freedom-metal/src/drivers/sifive_fe310-g000_pll.c:321
    while (mtime <= mtime_end) {
200142bc:	fe042703          	lw	a4,-32(s0)
200142c0:	fe442783          	lw	a5,-28(s0)
200142c4:	fec42683          	lw	a3,-20(s0)
200142c8:	863e                	mv	a2,a5
200142ca:	00c6ec63          	bltu	a3,a2,200142e2 <configure_pll+0x198>
200142ce:	fec42683          	lw	a3,-20(s0)
200142d2:	863e                	mv	a2,a5
200142d4:	fcc69ae3          	bne	a3,a2,200142a8 <configure_pll+0x15e>
200142d8:	fe842683          	lw	a3,-24(s0)
200142dc:	87ba                	mv	a5,a4
200142de:	fcf6f5e3          	bgeu	a3,a5,200142a8 <configure_pll+0x15e>
/home/jubayer/Documents/riscV/EnergyHarvestingDeviceTestbed/FE310/blinky/freedom-metal/src/drivers/sifive_fe310-g000_pll.c:340
    while ((__METAL_ACCESS_ONCE(pllcfg) & PLL_LOCK) == 0)
200142e2:	0001                	nop
/home/jubayer/Documents/riscV/EnergyHarvestingDeviceTestbed/FE310/blinky/freedom-metal/src/drivers/sifive_fe310-g000_pll.c:340 (discriminator 1)
200142e4:	fdc42783          	lw	a5,-36(s0)
200142e8:	439c                	lw	a5,0(a5)
200142ea:	fe07dde3          	bgez	a5,200142e4 <configure_pll+0x19a>
/home/jubayer/Documents/riscV/EnergyHarvestingDeviceTestbed/FE310/blinky/freedom-metal/src/drivers/sifive_fe310-g000_pll.c:342
}
200142ee:	0001                	nop
200142f0:	0001                	nop
200142f2:	50b2                	lw	ra,44(sp)
200142f4:	5422                	lw	s0,40(sp)
200142f6:	6145                	addi	sp,sp,48
200142f8:	8082                	ret

200142fa <__metal_driver_sifive_fe310_g000_pll_set_rate_hz>:
__metal_driver_sifive_fe310_g000_pll_set_rate_hz():
/home/jubayer/Documents/riscV/EnergyHarvestingDeviceTestbed/FE310/blinky/freedom-metal/src/drivers/sifive_fe310-g000_pll.c:345
                                                      long rate) {
200142fa:	715d                	addi	sp,sp,-80
200142fc:	c686                	sw	ra,76(sp)
200142fe:	c4a2                	sw	s0,72(sp)
20014300:	0880                	addi	s0,sp,80
20014302:	faa42e23          	sw	a0,-68(s0)
20014306:	fab42c23          	sw	a1,-72(s0)
/home/jubayer/Documents/riscV/EnergyHarvestingDeviceTestbed/FE310/blinky/freedom-metal/src/drivers/sifive_fe310-g000_pll.c:347
        __metal_driver_sifive_fe310_g000_pll_pllref(clock);
2001430a:	fbc42503          	lw	a0,-68(s0)
2001430e:	a8dff0ef          	jal	ra,20013d9a <__metal_driver_sifive_fe310_g000_pll_pllref>
20014312:	fea42623          	sw	a0,-20(s0)
/home/jubayer/Documents/riscV/EnergyHarvestingDeviceTestbed/FE310/blinky/freedom-metal/src/drivers/sifive_fe310-g000_pll.c:349
        __metal_driver_sifive_fe310_g000_pll_pllsel0(clock);
20014316:	fbc42503          	lw	a0,-68(s0)
2001431a:	a67ff0ef          	jal	ra,20013d80 <__metal_driver_sifive_fe310_g000_pll_pllsel0>
2001431e:	fea42423          	sw	a0,-24(s0)
/home/jubayer/Documents/riscV/EnergyHarvestingDeviceTestbed/FE310/blinky/freedom-metal/src/drivers/sifive_fe310-g000_pll.c:351
        __metal_driver_sifive_fe310_g000_pll_config_offset(clock);
20014322:	fbc42503          	lw	a0,-68(s0)
20014326:	acbff0ef          	jal	ra,20013df0 <__metal_driver_sifive_fe310_g000_pll_config_offset>
2001432a:	fea42223          	sw	a0,-28(s0)
/home/jubayer/Documents/riscV/EnergyHarvestingDeviceTestbed/FE310/blinky/freedom-metal/src/drivers/sifive_fe310-g000_pll.c:353
        __metal_driver_sifive_fe310_g000_pll_divider_offset(clock);
2001432e:	fbc42503          	lw	a0,-68(s0)
20014332:	a99ff0ef          	jal	ra,20013dca <__metal_driver_sifive_fe310_g000_pll_divider_offset>
20014336:	fea42023          	sw	a0,-32(s0)
/home/jubayer/Documents/riscV/EnergyHarvestingDeviceTestbed/FE310/blinky/freedom-metal/src/drivers/sifive_fe310-g000_pll.c:354
    long base = __metal_driver_sifive_fe310_g000_prci_base();
2001433a:	addff0ef          	jal	ra,20013e16 <__metal_driver_sifive_fe310_g000_prci_base>
2001433e:	fca42e23          	sw	a0,-36(s0)
/home/jubayer/Documents/riscV/EnergyHarvestingDeviceTestbed/FE310/blinky/freedom-metal/src/drivers/sifive_fe310-g000_pll.c:356
    __metal_io_u32 *pllcfg = (__metal_io_u32 *)(base + config_offset);
20014342:	fdc42703          	lw	a4,-36(s0)
20014346:	fe442783          	lw	a5,-28(s0)
2001434a:	97ba                	add	a5,a5,a4
2001434c:	fcf42c23          	sw	a5,-40(s0)
/home/jubayer/Documents/riscV/EnergyHarvestingDeviceTestbed/FE310/blinky/freedom-metal/src/drivers/sifive_fe310-g000_pll.c:357
    __metal_io_u32 *plloutdiv = (__metal_io_u32 *)(base + divider_offset);
20014350:	fdc42703          	lw	a4,-36(s0)
20014354:	fe042783          	lw	a5,-32(s0)
20014358:	97ba                	add	a5,a5,a4
2001435a:	fcf42a23          	sw	a5,-44(s0)
/home/jubayer/Documents/riscV/EnergyHarvestingDeviceTestbed/FE310/blinky/freedom-metal/src/drivers/sifive_fe310-g000_pll.c:360
    if (__METAL_ACCESS_ONCE(pllcfg) & PLL_SEL)
2001435e:	fd842783          	lw	a5,-40(s0)
20014362:	4398                	lw	a4,0(a5)
20014364:	67c1                	lui	a5,0x10
20014366:	8ff9                	and	a5,a5,a4
20014368:	cb91                	beqz	a5,2001437c <__metal_driver_sifive_fe310_g000_pll_set_rate_hz+0x82>
/home/jubayer/Documents/riscV/EnergyHarvestingDeviceTestbed/FE310/blinky/freedom-metal/src/drivers/sifive_fe310-g000_pll.c:361
        __METAL_ACCESS_ONCE(pllcfg) &= ~(PLL_SEL);
2001436a:	fd842783          	lw	a5,-40(s0)
2001436e:	4398                	lw	a4,0(a5)
20014370:	77c1                	lui	a5,0xffff0
20014372:	17fd                	addi	a5,a5,-1
20014374:	8f7d                	and	a4,a4,a5
20014376:	fd842783          	lw	a5,-40(s0)
2001437a:	c398                	sw	a4,0(a5)
/home/jubayer/Documents/riscV/EnergyHarvestingDeviceTestbed/FE310/blinky/freedom-metal/src/drivers/sifive_fe310-g000_pll.c:366
        __METAL_ACCESS_ONCE(pllcfg) & PLL_REFSEL ? pllref : pllsel0);
2001437c:	fd842783          	lw	a5,-40(s0)
20014380:	4398                	lw	a4,0(a5)
20014382:	000207b7          	lui	a5,0x20
20014386:	8ff9                	and	a5,a5,a4
/home/jubayer/Documents/riscV/EnergyHarvestingDeviceTestbed/FE310/blinky/freedom-metal/src/drivers/sifive_fe310-g000_pll.c:365
    long ref_hz = metal_clock_get_rate_hz(
20014388:	c781                	beqz	a5,20014390 <__metal_driver_sifive_fe310_g000_pll_set_rate_hz+0x96>
/home/jubayer/Documents/riscV/EnergyHarvestingDeviceTestbed/FE310/blinky/freedom-metal/src/drivers/sifive_fe310-g000_pll.c:365 (discriminator 1)
2001438a:	fec42783          	lw	a5,-20(s0)
2001438e:	a019                	j	20014394 <__metal_driver_sifive_fe310_g000_pll_set_rate_hz+0x9a>
/home/jubayer/Documents/riscV/EnergyHarvestingDeviceTestbed/FE310/blinky/freedom-metal/src/drivers/sifive_fe310-g000_pll.c:365 (discriminator 2)
20014390:	fe842783          	lw	a5,-24(s0)
/home/jubayer/Documents/riscV/EnergyHarvestingDeviceTestbed/FE310/blinky/freedom-metal/src/drivers/sifive_fe310-g000_pll.c:365 (discriminator 4)
20014394:	853e                	mv	a0,a5
20014396:	3df000ef          	jal	ra,20014f74 <metal_clock_get_rate_hz>
2001439a:	fca42823          	sw	a0,-48(s0)
/home/jubayer/Documents/riscV/EnergyHarvestingDeviceTestbed/FE310/blinky/freedom-metal/src/drivers/sifive_fe310-g000_pll.c:370 (discriminator 4)
    if ((ref_hz * 3 / 4) <= rate && (ref_hz * 5 / 4) >= rate) {
2001439e:	fd042703          	lw	a4,-48(s0)
200143a2:	87ba                	mv	a5,a4
200143a4:	0786                	slli	a5,a5,0x1
200143a6:	97ba                	add	a5,a5,a4
200143a8:	41f7d713          	srai	a4,a5,0x1f
200143ac:	8b0d                	andi	a4,a4,3
200143ae:	97ba                	add	a5,a5,a4
200143b0:	8789                	srai	a5,a5,0x2
200143b2:	873e                	mv	a4,a5
200143b4:	fb842783          	lw	a5,-72(s0)
200143b8:	02e7cb63          	blt	a5,a4,200143ee <__metal_driver_sifive_fe310_g000_pll_set_rate_hz+0xf4>
/home/jubayer/Documents/riscV/EnergyHarvestingDeviceTestbed/FE310/blinky/freedom-metal/src/drivers/sifive_fe310-g000_pll.c:370 (discriminator 1)
200143bc:	fd042703          	lw	a4,-48(s0)
200143c0:	87ba                	mv	a5,a4
200143c2:	078a                	slli	a5,a5,0x2
200143c4:	97ba                	add	a5,a5,a4
200143c6:	41f7d713          	srai	a4,a5,0x1f
200143ca:	8b0d                	andi	a4,a4,3
200143cc:	97ba                	add	a5,a5,a4
200143ce:	8789                	srai	a5,a5,0x2
200143d0:	873e                	mv	a4,a5
200143d2:	fb842783          	lw	a5,-72(s0)
200143d6:	00f74c63          	blt	a4,a5,200143ee <__metal_driver_sifive_fe310_g000_pll_set_rate_hz+0xf4>
/home/jubayer/Documents/riscV/EnergyHarvestingDeviceTestbed/FE310/blinky/freedom-metal/src/drivers/sifive_fe310-g000_pll.c:371
        __METAL_ACCESS_ONCE(pllcfg) |= PLL_BYPASS;
200143da:	fd842783          	lw	a5,-40(s0)
200143de:	4398                	lw	a4,0(a5)
200143e0:	000407b7          	lui	a5,0x40
200143e4:	8f5d                	or	a4,a4,a5
200143e6:	fd842783          	lw	a5,-40(s0)
200143ea:	c398                	sw	a4,0(a5)
200143ec:	a0b1                	j	20014438 <__metal_driver_sifive_fe310_g000_pll_set_rate_hz+0x13e>
/home/jubayer/Documents/riscV/EnergyHarvestingDeviceTestbed/FE310/blinky/freedom-metal/src/drivers/sifive_fe310-g000_pll.c:373
        int config_index = find_closest_config(ref_hz, rate);
200143ee:	fb842583          	lw	a1,-72(s0)
200143f2:	fd042503          	lw	a0,-48(s0)
200143f6:	316d                	jal	200140a0 <find_closest_config>
200143f8:	fca42623          	sw	a0,-52(s0)
/home/jubayer/Documents/riscV/EnergyHarvestingDeviceTestbed/FE310/blinky/freedom-metal/src/drivers/sifive_fe310-g000_pll.c:374
        if (config_index != -1) {
200143fc:	fcc42703          	lw	a4,-52(s0)
20014400:	57fd                	li	a5,-1
20014402:	02f70263          	beq	a4,a5,20014426 <__metal_driver_sifive_fe310_g000_pll_set_rate_hz+0x12c>
/home/jubayer/Documents/riscV/EnergyHarvestingDeviceTestbed/FE310/blinky/freedom-metal/src/drivers/sifive_fe310-g000_pll.c:375
            configure_pll(pllcfg, plloutdiv, &(pll_configs[config_index]));
20014406:	fcc42783          	lw	a5,-52(s0)
2001440a:	00579713          	slli	a4,a5,0x5
2001440e:	200107b7          	lui	a5,0x20010
20014412:	53078793          	addi	a5,a5,1328 # 20010530 <pll_configs>
20014416:	97ba                	add	a5,a5,a4
20014418:	863e                	mv	a2,a5
2001441a:	fd442583          	lw	a1,-44(s0)
2001441e:	fd842503          	lw	a0,-40(s0)
20014422:	3325                	jal	2001414a <configure_pll>
20014424:	a811                	j	20014438 <__metal_driver_sifive_fe310_g000_pll_set_rate_hz+0x13e>
/home/jubayer/Documents/riscV/EnergyHarvestingDeviceTestbed/FE310/blinky/freedom-metal/src/drivers/sifive_fe310-g000_pll.c:378
            __METAL_ACCESS_ONCE(pllcfg) |= PLL_BYPASS;
20014426:	fd842783          	lw	a5,-40(s0)
2001442a:	4398                	lw	a4,0(a5)
2001442c:	000407b7          	lui	a5,0x40
20014430:	8f5d                	or	a4,a4,a5
20014432:	fd842783          	lw	a5,-40(s0)
20014436:	c398                	sw	a4,0(a5)
/home/jubayer/Documents/riscV/EnergyHarvestingDeviceTestbed/FE310/blinky/freedom-metal/src/drivers/sifive_fe310-g000_pll.c:383
    __METAL_ACCESS_ONCE(pllcfg) |= PLL_SEL;
20014438:	fd842783          	lw	a5,-40(s0)
2001443c:	4398                	lw	a4,0(a5)
2001443e:	67c1                	lui	a5,0x10
20014440:	8f5d                	or	a4,a4,a5
20014442:	fd842783          	lw	a5,-40(s0)
20014446:	c398                	sw	a4,0(a5)
/home/jubayer/Documents/riscV/EnergyHarvestingDeviceTestbed/FE310/blinky/freedom-metal/src/drivers/sifive_fe310-g000_pll.c:385
    return __metal_driver_sifive_fe310_g000_pll_get_rate_hz(clock);
20014448:	fbc42503          	lw	a0,-68(s0)
2001444c:	ae5ff0ef          	jal	ra,20013f30 <__metal_driver_sifive_fe310_g000_pll_get_rate_hz>
20014450:	87aa                	mv	a5,a0
/home/jubayer/Documents/riscV/EnergyHarvestingDeviceTestbed/FE310/blinky/freedom-metal/src/drivers/sifive_fe310-g000_pll.c:386
}
20014452:	853e                	mv	a0,a5
20014454:	40b6                	lw	ra,76(sp)
20014456:	4426                	lw	s0,72(sp)
20014458:	6161                	addi	sp,sp,80
2001445a:	8082                	ret

2001445c <__metal_driver_sifive_fe310_g000_prci_base>:
__metal_driver_sifive_fe310_g000_prci_base():
/home/jubayer/Documents/riscV/EnergyHarvestingDeviceTestbed/FE310/blinky/bsp/build/debug/./metal/machine.h:1364
{
2001445c:	1141                	addi	sp,sp,-16
2001445e:	c622                	sw	s0,12(sp)
20014460:	0800                	addi	s0,sp,16
/home/jubayer/Documents/riscV/EnergyHarvestingDeviceTestbed/FE310/blinky/bsp/build/debug/./metal/machine.h:1365
		return METAL_SIFIVE_FE310_G000_PRCI_10008000_BASE_ADDRESS;
20014462:	100087b7          	lui	a5,0x10008
/home/jubayer/Documents/riscV/EnergyHarvestingDeviceTestbed/FE310/blinky/bsp/build/debug/./metal/machine.h:1366
}
20014466:	853e                	mv	a0,a5
20014468:	4432                	lw	s0,12(sp)
2001446a:	0141                	addi	sp,sp,16
2001446c:	8082                	ret

2001446e <__metal_driver_sifive_fe310_g000_prci_get_reg>:
__metal_driver_sifive_fe310_g000_prci_get_reg():
/home/jubayer/Documents/riscV/EnergyHarvestingDeviceTestbed/FE310/blinky/freedom-metal/src/drivers/sifive_fe310-g000_prci.c:12

#include <metal/drivers/sifive_fe310-g000_prci.h>
#include <metal/machine.h>

long __metal_driver_sifive_fe310_g000_prci_get_reg(
    const struct __metal_driver_sifive_fe310_g000_prci *prci, long offset) {
2001446e:	7179                	addi	sp,sp,-48
20014470:	d606                	sw	ra,44(sp)
20014472:	d422                	sw	s0,40(sp)
20014474:	1800                	addi	s0,sp,48
20014476:	fca42e23          	sw	a0,-36(s0)
2001447a:	fcb42c23          	sw	a1,-40(s0)
/home/jubayer/Documents/riscV/EnergyHarvestingDeviceTestbed/FE310/blinky/freedom-metal/src/drivers/sifive_fe310-g000_prci.c:13
    unsigned long base = __metal_driver_sifive_fe310_g000_prci_base();
2001447e:	3ff9                	jal	2001445c <__metal_driver_sifive_fe310_g000_prci_base>
20014480:	87aa                	mv	a5,a0
20014482:	fef42623          	sw	a5,-20(s0)
/home/jubayer/Documents/riscV/EnergyHarvestingDeviceTestbed/FE310/blinky/freedom-metal/src/drivers/sifive_fe310-g000_prci.c:14
    return __METAL_ACCESS_ONCE((__metal_io_u32 *)(base + offset));
20014486:	fd842703          	lw	a4,-40(s0)
2001448a:	fec42783          	lw	a5,-20(s0)
2001448e:	97ba                	add	a5,a5,a4
20014490:	439c                	lw	a5,0(a5)
/home/jubayer/Documents/riscV/EnergyHarvestingDeviceTestbed/FE310/blinky/freedom-metal/src/drivers/sifive_fe310-g000_prci.c:15
}
20014492:	853e                	mv	a0,a5
20014494:	50b2                	lw	ra,44(sp)
20014496:	5422                	lw	s0,40(sp)
20014498:	6145                	addi	sp,sp,48
2001449a:	8082                	ret

2001449c <__metal_driver_sifive_fe310_g000_prci_set_reg>:
__metal_driver_sifive_fe310_g000_prci_set_reg():
/home/jubayer/Documents/riscV/EnergyHarvestingDeviceTestbed/FE310/blinky/freedom-metal/src/drivers/sifive_fe310-g000_prci.c:19

long __metal_driver_sifive_fe310_g000_prci_set_reg(
    const struct __metal_driver_sifive_fe310_g000_prci *prci, long offset,
    long value) {
2001449c:	7179                	addi	sp,sp,-48
2001449e:	d606                	sw	ra,44(sp)
200144a0:	d422                	sw	s0,40(sp)
200144a2:	1800                	addi	s0,sp,48
200144a4:	fca42e23          	sw	a0,-36(s0)
200144a8:	fcb42c23          	sw	a1,-40(s0)
200144ac:	fcc42a23          	sw	a2,-44(s0)
/home/jubayer/Documents/riscV/EnergyHarvestingDeviceTestbed/FE310/blinky/freedom-metal/src/drivers/sifive_fe310-g000_prci.c:20
    unsigned long base = __metal_driver_sifive_fe310_g000_prci_base();
200144b0:	3775                	jal	2001445c <__metal_driver_sifive_fe310_g000_prci_base>
200144b2:	87aa                	mv	a5,a0
200144b4:	fef42623          	sw	a5,-20(s0)
/home/jubayer/Documents/riscV/EnergyHarvestingDeviceTestbed/FE310/blinky/freedom-metal/src/drivers/sifive_fe310-g000_prci.c:21
    return __METAL_ACCESS_ONCE((__metal_io_u32 *)(base + offset)) = value;
200144b8:	fd842703          	lw	a4,-40(s0)
200144bc:	fec42783          	lw	a5,-20(s0)
200144c0:	97ba                	add	a5,a5,a4
200144c2:	873e                	mv	a4,a5
200144c4:	fd442783          	lw	a5,-44(s0)
200144c8:	c31c                	sw	a5,0(a4)
/home/jubayer/Documents/riscV/EnergyHarvestingDeviceTestbed/FE310/blinky/freedom-metal/src/drivers/sifive_fe310-g000_prci.c:22
}
200144ca:	853e                	mv	a0,a5
200144cc:	50b2                	lw	ra,44(sp)
200144ce:	5422                	lw	s0,40(sp)
200144d0:	6145                	addi	sp,sp,48
200144d2:	8082                	ret

200144d4 <__metal_driver_sifive_gpio0_base>:
__metal_driver_sifive_gpio0_base():
/home/jubayer/Documents/riscV/EnergyHarvestingDeviceTestbed/FE310/blinky/bsp/build/debug/./metal/machine.h:430
{
200144d4:	1101                	addi	sp,sp,-32
200144d6:	ce22                	sw	s0,28(sp)
200144d8:	1000                	addi	s0,sp,32
200144da:	fea42623          	sw	a0,-20(s0)
/home/jubayer/Documents/riscV/EnergyHarvestingDeviceTestbed/FE310/blinky/bsp/build/debug/./metal/machine.h:431
	if ((uintptr_t)gpio == (uintptr_t)&__metal_dt_gpio_10012000) {
200144de:	fec42703          	lw	a4,-20(s0)
200144e2:	81c18793          	addi	a5,gp,-2020 # 80000a7c <__metal_dt_gpio_10012000>
200144e6:	00f71563          	bne	a4,a5,200144f0 <__metal_driver_sifive_gpio0_base+0x1c>
/home/jubayer/Documents/riscV/EnergyHarvestingDeviceTestbed/FE310/blinky/bsp/build/debug/./metal/machine.h:432
		return METAL_SIFIVE_GPIO0_10012000_BASE_ADDRESS;
200144ea:	100127b7          	lui	a5,0x10012
200144ee:	a011                	j	200144f2 <__metal_driver_sifive_gpio0_base+0x1e>
/home/jubayer/Documents/riscV/EnergyHarvestingDeviceTestbed/FE310/blinky/bsp/build/debug/./metal/machine.h:435
		return 0;
200144f0:	4781                	li	a5,0
/home/jubayer/Documents/riscV/EnergyHarvestingDeviceTestbed/FE310/blinky/bsp/build/debug/./metal/machine.h:437
}
200144f2:	853e                	mv	a0,a5
200144f4:	4472                	lw	s0,28(sp)
200144f6:	6105                	addi	sp,sp,32
200144f8:	8082                	ret

200144fa <__metal_driver_sifive_gpio0_interrupt_parent>:
__metal_driver_sifive_gpio0_interrupt_parent():
/home/jubayer/Documents/riscV/EnergyHarvestingDeviceTestbed/FE310/blinky/bsp/build/debug/./metal/machine.h:460
{
200144fa:	1101                	addi	sp,sp,-32
200144fc:	ce22                	sw	s0,28(sp)
200144fe:	1000                	addi	s0,sp,32
20014500:	fea42623          	sw	a0,-20(s0)
/home/jubayer/Documents/riscV/EnergyHarvestingDeviceTestbed/FE310/blinky/bsp/build/debug/./metal/machine.h:461
	if ((uintptr_t)gpio == (uintptr_t)&__metal_dt_gpio_10012000) {
20014504:	fec42703          	lw	a4,-20(s0)
20014508:	81c18793          	addi	a5,gp,-2020 # 80000a7c <__metal_dt_gpio_10012000>
2001450c:	00f71763          	bne	a4,a5,2001451a <__metal_driver_sifive_gpio0_interrupt_parent+0x20>
/home/jubayer/Documents/riscV/EnergyHarvestingDeviceTestbed/FE310/blinky/bsp/build/debug/./metal/machine.h:462
		return (struct metal_interrupt *)&__metal_dt_interrupt_controller_c000000.controller;
20014510:	800007b7          	lui	a5,0x80000
20014514:	46078793          	addi	a5,a5,1120 # 80000460 <__global_pointer$+0xfffff200>
20014518:	a011                	j	2001451c <__metal_driver_sifive_gpio0_interrupt_parent+0x22>
/home/jubayer/Documents/riscV/EnergyHarvestingDeviceTestbed/FE310/blinky/bsp/build/debug/./metal/machine.h:465
		return 0;
2001451a:	4781                	li	a5,0
/home/jubayer/Documents/riscV/EnergyHarvestingDeviceTestbed/FE310/blinky/bsp/build/debug/./metal/machine.h:467
}
2001451c:	853e                	mv	a0,a5
2001451e:	4472                	lw	s0,28(sp)
20014520:	6105                	addi	sp,sp,32
20014522:	8082                	ret

20014524 <__metal_driver_sifive_gpio0_interrupt_lines>:
__metal_driver_sifive_gpio0_interrupt_lines():
/home/jubayer/Documents/riscV/EnergyHarvestingDeviceTestbed/FE310/blinky/bsp/build/debug/./metal/machine.h:470
{
20014524:	1101                	addi	sp,sp,-32
20014526:	ce22                	sw	s0,28(sp)
20014528:	1000                	addi	s0,sp,32
2001452a:	fea42623          	sw	a0,-20(s0)
2001452e:	feb42423          	sw	a1,-24(s0)
/home/jubayer/Documents/riscV/EnergyHarvestingDeviceTestbed/FE310/blinky/bsp/build/debug/./metal/machine.h:471
	if (((uintptr_t)gpio == (uintptr_t)&__metal_dt_gpio_10012000) && (idx == 0)) {
20014532:	fec42703          	lw	a4,-20(s0)
20014536:	81c18793          	addi	a5,gp,-2020 # 80000a7c <__metal_dt_gpio_10012000>
2001453a:	00f71763          	bne	a4,a5,20014548 <__metal_driver_sifive_gpio0_interrupt_lines+0x24>
/home/jubayer/Documents/riscV/EnergyHarvestingDeviceTestbed/FE310/blinky/bsp/build/debug/./metal/machine.h:471 (discriminator 1)
2001453e:	fe842783          	lw	a5,-24(s0)
20014542:	e399                	bnez	a5,20014548 <__metal_driver_sifive_gpio0_interrupt_lines+0x24>
/home/jubayer/Documents/riscV/EnergyHarvestingDeviceTestbed/FE310/blinky/bsp/build/debug/./metal/machine.h:472
		return 8;
20014544:	47a1                	li	a5,8
20014546:	ae15                	j	2001487a <__metal_driver_sifive_gpio0_interrupt_lines+0x356>
/home/jubayer/Documents/riscV/EnergyHarvestingDeviceTestbed/FE310/blinky/bsp/build/debug/./metal/machine.h:474
	else if ((((uintptr_t)gpio == (uintptr_t)&__metal_dt_gpio_10012000) && (idx == 1))) {
20014548:	fec42703          	lw	a4,-20(s0)
2001454c:	81c18793          	addi	a5,gp,-2020 # 80000a7c <__metal_dt_gpio_10012000>
20014550:	00f71963          	bne	a4,a5,20014562 <__metal_driver_sifive_gpio0_interrupt_lines+0x3e>
/home/jubayer/Documents/riscV/EnergyHarvestingDeviceTestbed/FE310/blinky/bsp/build/debug/./metal/machine.h:474 (discriminator 1)
20014554:	fe842703          	lw	a4,-24(s0)
20014558:	4785                	li	a5,1
2001455a:	00f71463          	bne	a4,a5,20014562 <__metal_driver_sifive_gpio0_interrupt_lines+0x3e>
/home/jubayer/Documents/riscV/EnergyHarvestingDeviceTestbed/FE310/blinky/bsp/build/debug/./metal/machine.h:475
		return 9;
2001455e:	47a5                	li	a5,9
20014560:	ae29                	j	2001487a <__metal_driver_sifive_gpio0_interrupt_lines+0x356>
/home/jubayer/Documents/riscV/EnergyHarvestingDeviceTestbed/FE310/blinky/bsp/build/debug/./metal/machine.h:477
	else if ((((uintptr_t)gpio == (uintptr_t)&__metal_dt_gpio_10012000) && (idx == 2))) {
20014562:	fec42703          	lw	a4,-20(s0)
20014566:	81c18793          	addi	a5,gp,-2020 # 80000a7c <__metal_dt_gpio_10012000>
2001456a:	00f71963          	bne	a4,a5,2001457c <__metal_driver_sifive_gpio0_interrupt_lines+0x58>
/home/jubayer/Documents/riscV/EnergyHarvestingDeviceTestbed/FE310/blinky/bsp/build/debug/./metal/machine.h:477 (discriminator 1)
2001456e:	fe842703          	lw	a4,-24(s0)
20014572:	4789                	li	a5,2
20014574:	00f71463          	bne	a4,a5,2001457c <__metal_driver_sifive_gpio0_interrupt_lines+0x58>
/home/jubayer/Documents/riscV/EnergyHarvestingDeviceTestbed/FE310/blinky/bsp/build/debug/./metal/machine.h:478
		return 10;
20014578:	47a9                	li	a5,10
2001457a:	a601                	j	2001487a <__metal_driver_sifive_gpio0_interrupt_lines+0x356>
/home/jubayer/Documents/riscV/EnergyHarvestingDeviceTestbed/FE310/blinky/bsp/build/debug/./metal/machine.h:480
	else if ((((uintptr_t)gpio == (uintptr_t)&__metal_dt_gpio_10012000) && (idx == 3))) {
2001457c:	fec42703          	lw	a4,-20(s0)
20014580:	81c18793          	addi	a5,gp,-2020 # 80000a7c <__metal_dt_gpio_10012000>
20014584:	00f71963          	bne	a4,a5,20014596 <__metal_driver_sifive_gpio0_interrupt_lines+0x72>
/home/jubayer/Documents/riscV/EnergyHarvestingDeviceTestbed/FE310/blinky/bsp/build/debug/./metal/machine.h:480 (discriminator 1)
20014588:	fe842703          	lw	a4,-24(s0)
2001458c:	478d                	li	a5,3
2001458e:	00f71463          	bne	a4,a5,20014596 <__metal_driver_sifive_gpio0_interrupt_lines+0x72>
/home/jubayer/Documents/riscV/EnergyHarvestingDeviceTestbed/FE310/blinky/bsp/build/debug/./metal/machine.h:481
		return 11;
20014592:	47ad                	li	a5,11
20014594:	a4dd                	j	2001487a <__metal_driver_sifive_gpio0_interrupt_lines+0x356>
/home/jubayer/Documents/riscV/EnergyHarvestingDeviceTestbed/FE310/blinky/bsp/build/debug/./metal/machine.h:483
	else if ((((uintptr_t)gpio == (uintptr_t)&__metal_dt_gpio_10012000) && (idx == 4))) {
20014596:	fec42703          	lw	a4,-20(s0)
2001459a:	81c18793          	addi	a5,gp,-2020 # 80000a7c <__metal_dt_gpio_10012000>
2001459e:	00f71963          	bne	a4,a5,200145b0 <__metal_driver_sifive_gpio0_interrupt_lines+0x8c>
/home/jubayer/Documents/riscV/EnergyHarvestingDeviceTestbed/FE310/blinky/bsp/build/debug/./metal/machine.h:483 (discriminator 1)
200145a2:	fe842703          	lw	a4,-24(s0)
200145a6:	4791                	li	a5,4
200145a8:	00f71463          	bne	a4,a5,200145b0 <__metal_driver_sifive_gpio0_interrupt_lines+0x8c>
/home/jubayer/Documents/riscV/EnergyHarvestingDeviceTestbed/FE310/blinky/bsp/build/debug/./metal/machine.h:484
		return 12;
200145ac:	47b1                	li	a5,12
200145ae:	a4f1                	j	2001487a <__metal_driver_sifive_gpio0_interrupt_lines+0x356>
/home/jubayer/Documents/riscV/EnergyHarvestingDeviceTestbed/FE310/blinky/bsp/build/debug/./metal/machine.h:486
	else if ((((uintptr_t)gpio == (uintptr_t)&__metal_dt_gpio_10012000) && (idx == 5))) {
200145b0:	fec42703          	lw	a4,-20(s0)
200145b4:	81c18793          	addi	a5,gp,-2020 # 80000a7c <__metal_dt_gpio_10012000>
200145b8:	00f71963          	bne	a4,a5,200145ca <__metal_driver_sifive_gpio0_interrupt_lines+0xa6>
/home/jubayer/Documents/riscV/EnergyHarvestingDeviceTestbed/FE310/blinky/bsp/build/debug/./metal/machine.h:486 (discriminator 1)
200145bc:	fe842703          	lw	a4,-24(s0)
200145c0:	4795                	li	a5,5
200145c2:	00f71463          	bne	a4,a5,200145ca <__metal_driver_sifive_gpio0_interrupt_lines+0xa6>
/home/jubayer/Documents/riscV/EnergyHarvestingDeviceTestbed/FE310/blinky/bsp/build/debug/./metal/machine.h:487
		return 13;
200145c6:	47b5                	li	a5,13
200145c8:	ac4d                	j	2001487a <__metal_driver_sifive_gpio0_interrupt_lines+0x356>
/home/jubayer/Documents/riscV/EnergyHarvestingDeviceTestbed/FE310/blinky/bsp/build/debug/./metal/machine.h:489
	else if ((((uintptr_t)gpio == (uintptr_t)&__metal_dt_gpio_10012000) && (idx == 6))) {
200145ca:	fec42703          	lw	a4,-20(s0)
200145ce:	81c18793          	addi	a5,gp,-2020 # 80000a7c <__metal_dt_gpio_10012000>
200145d2:	00f71963          	bne	a4,a5,200145e4 <__metal_driver_sifive_gpio0_interrupt_lines+0xc0>
/home/jubayer/Documents/riscV/EnergyHarvestingDeviceTestbed/FE310/blinky/bsp/build/debug/./metal/machine.h:489 (discriminator 1)
200145d6:	fe842703          	lw	a4,-24(s0)
200145da:	4799                	li	a5,6
200145dc:	00f71463          	bne	a4,a5,200145e4 <__metal_driver_sifive_gpio0_interrupt_lines+0xc0>
/home/jubayer/Documents/riscV/EnergyHarvestingDeviceTestbed/FE310/blinky/bsp/build/debug/./metal/machine.h:490
		return 14;
200145e0:	47b9                	li	a5,14
200145e2:	ac61                	j	2001487a <__metal_driver_sifive_gpio0_interrupt_lines+0x356>
/home/jubayer/Documents/riscV/EnergyHarvestingDeviceTestbed/FE310/blinky/bsp/build/debug/./metal/machine.h:492
	else if ((((uintptr_t)gpio == (uintptr_t)&__metal_dt_gpio_10012000) && (idx == 7))) {
200145e4:	fec42703          	lw	a4,-20(s0)
200145e8:	81c18793          	addi	a5,gp,-2020 # 80000a7c <__metal_dt_gpio_10012000>
200145ec:	00f71963          	bne	a4,a5,200145fe <__metal_driver_sifive_gpio0_interrupt_lines+0xda>
/home/jubayer/Documents/riscV/EnergyHarvestingDeviceTestbed/FE310/blinky/bsp/build/debug/./metal/machine.h:492 (discriminator 1)
200145f0:	fe842703          	lw	a4,-24(s0)
200145f4:	479d                	li	a5,7
200145f6:	00f71463          	bne	a4,a5,200145fe <__metal_driver_sifive_gpio0_interrupt_lines+0xda>
/home/jubayer/Documents/riscV/EnergyHarvestingDeviceTestbed/FE310/blinky/bsp/build/debug/./metal/machine.h:493
		return 15;
200145fa:	47bd                	li	a5,15
200145fc:	acbd                	j	2001487a <__metal_driver_sifive_gpio0_interrupt_lines+0x356>
/home/jubayer/Documents/riscV/EnergyHarvestingDeviceTestbed/FE310/blinky/bsp/build/debug/./metal/machine.h:495
	else if ((((uintptr_t)gpio == (uintptr_t)&__metal_dt_gpio_10012000) && (idx == 8))) {
200145fe:	fec42703          	lw	a4,-20(s0)
20014602:	81c18793          	addi	a5,gp,-2020 # 80000a7c <__metal_dt_gpio_10012000>
20014606:	00f71963          	bne	a4,a5,20014618 <__metal_driver_sifive_gpio0_interrupt_lines+0xf4>
/home/jubayer/Documents/riscV/EnergyHarvestingDeviceTestbed/FE310/blinky/bsp/build/debug/./metal/machine.h:495 (discriminator 1)
2001460a:	fe842703          	lw	a4,-24(s0)
2001460e:	47a1                	li	a5,8
20014610:	00f71463          	bne	a4,a5,20014618 <__metal_driver_sifive_gpio0_interrupt_lines+0xf4>
/home/jubayer/Documents/riscV/EnergyHarvestingDeviceTestbed/FE310/blinky/bsp/build/debug/./metal/machine.h:496
		return 16;
20014614:	47c1                	li	a5,16
20014616:	a495                	j	2001487a <__metal_driver_sifive_gpio0_interrupt_lines+0x356>
/home/jubayer/Documents/riscV/EnergyHarvestingDeviceTestbed/FE310/blinky/bsp/build/debug/./metal/machine.h:498
	else if ((((uintptr_t)gpio == (uintptr_t)&__metal_dt_gpio_10012000) && (idx == 9))) {
20014618:	fec42703          	lw	a4,-20(s0)
2001461c:	81c18793          	addi	a5,gp,-2020 # 80000a7c <__metal_dt_gpio_10012000>
20014620:	00f71963          	bne	a4,a5,20014632 <__metal_driver_sifive_gpio0_interrupt_lines+0x10e>
/home/jubayer/Documents/riscV/EnergyHarvestingDeviceTestbed/FE310/blinky/bsp/build/debug/./metal/machine.h:498 (discriminator 1)
20014624:	fe842703          	lw	a4,-24(s0)
20014628:	47a5                	li	a5,9
2001462a:	00f71463          	bne	a4,a5,20014632 <__metal_driver_sifive_gpio0_interrupt_lines+0x10e>
/home/jubayer/Documents/riscV/EnergyHarvestingDeviceTestbed/FE310/blinky/bsp/build/debug/./metal/machine.h:499
		return 17;
2001462e:	47c5                	li	a5,17
20014630:	a4a9                	j	2001487a <__metal_driver_sifive_gpio0_interrupt_lines+0x356>
/home/jubayer/Documents/riscV/EnergyHarvestingDeviceTestbed/FE310/blinky/bsp/build/debug/./metal/machine.h:501
	else if ((((uintptr_t)gpio == (uintptr_t)&__metal_dt_gpio_10012000) && (idx == 10))) {
20014632:	fec42703          	lw	a4,-20(s0)
20014636:	81c18793          	addi	a5,gp,-2020 # 80000a7c <__metal_dt_gpio_10012000>
2001463a:	00f71963          	bne	a4,a5,2001464c <__metal_driver_sifive_gpio0_interrupt_lines+0x128>
/home/jubayer/Documents/riscV/EnergyHarvestingDeviceTestbed/FE310/blinky/bsp/build/debug/./metal/machine.h:501 (discriminator 1)
2001463e:	fe842703          	lw	a4,-24(s0)
20014642:	47a9                	li	a5,10
20014644:	00f71463          	bne	a4,a5,2001464c <__metal_driver_sifive_gpio0_interrupt_lines+0x128>
/home/jubayer/Documents/riscV/EnergyHarvestingDeviceTestbed/FE310/blinky/bsp/build/debug/./metal/machine.h:502
		return 18;
20014648:	47c9                	li	a5,18
2001464a:	ac05                	j	2001487a <__metal_driver_sifive_gpio0_interrupt_lines+0x356>
/home/jubayer/Documents/riscV/EnergyHarvestingDeviceTestbed/FE310/blinky/bsp/build/debug/./metal/machine.h:504
	else if ((((uintptr_t)gpio == (uintptr_t)&__metal_dt_gpio_10012000) && (idx == 11))) {
2001464c:	fec42703          	lw	a4,-20(s0)
20014650:	81c18793          	addi	a5,gp,-2020 # 80000a7c <__metal_dt_gpio_10012000>
20014654:	00f71963          	bne	a4,a5,20014666 <__metal_driver_sifive_gpio0_interrupt_lines+0x142>
/home/jubayer/Documents/riscV/EnergyHarvestingDeviceTestbed/FE310/blinky/bsp/build/debug/./metal/machine.h:504 (discriminator 1)
20014658:	fe842703          	lw	a4,-24(s0)
2001465c:	47ad                	li	a5,11
2001465e:	00f71463          	bne	a4,a5,20014666 <__metal_driver_sifive_gpio0_interrupt_lines+0x142>
/home/jubayer/Documents/riscV/EnergyHarvestingDeviceTestbed/FE310/blinky/bsp/build/debug/./metal/machine.h:505
		return 19;
20014662:	47cd                	li	a5,19
20014664:	ac19                	j	2001487a <__metal_driver_sifive_gpio0_interrupt_lines+0x356>
/home/jubayer/Documents/riscV/EnergyHarvestingDeviceTestbed/FE310/blinky/bsp/build/debug/./metal/machine.h:507
	else if ((((uintptr_t)gpio == (uintptr_t)&__metal_dt_gpio_10012000) && (idx == 12))) {
20014666:	fec42703          	lw	a4,-20(s0)
2001466a:	81c18793          	addi	a5,gp,-2020 # 80000a7c <__metal_dt_gpio_10012000>
2001466e:	00f71963          	bne	a4,a5,20014680 <__metal_driver_sifive_gpio0_interrupt_lines+0x15c>
/home/jubayer/Documents/riscV/EnergyHarvestingDeviceTestbed/FE310/blinky/bsp/build/debug/./metal/machine.h:507 (discriminator 1)
20014672:	fe842703          	lw	a4,-24(s0)
20014676:	47b1                	li	a5,12
20014678:	00f71463          	bne	a4,a5,20014680 <__metal_driver_sifive_gpio0_interrupt_lines+0x15c>
/home/jubayer/Documents/riscV/EnergyHarvestingDeviceTestbed/FE310/blinky/bsp/build/debug/./metal/machine.h:508
		return 20;
2001467c:	47d1                	li	a5,20
2001467e:	aaf5                	j	2001487a <__metal_driver_sifive_gpio0_interrupt_lines+0x356>
/home/jubayer/Documents/riscV/EnergyHarvestingDeviceTestbed/FE310/blinky/bsp/build/debug/./metal/machine.h:510
	else if ((((uintptr_t)gpio == (uintptr_t)&__metal_dt_gpio_10012000) && (idx == 13))) {
20014680:	fec42703          	lw	a4,-20(s0)
20014684:	81c18793          	addi	a5,gp,-2020 # 80000a7c <__metal_dt_gpio_10012000>
20014688:	00f71963          	bne	a4,a5,2001469a <__metal_driver_sifive_gpio0_interrupt_lines+0x176>
/home/jubayer/Documents/riscV/EnergyHarvestingDeviceTestbed/FE310/blinky/bsp/build/debug/./metal/machine.h:510 (discriminator 1)
2001468c:	fe842703          	lw	a4,-24(s0)
20014690:	47b5                	li	a5,13
20014692:	00f71463          	bne	a4,a5,2001469a <__metal_driver_sifive_gpio0_interrupt_lines+0x176>
/home/jubayer/Documents/riscV/EnergyHarvestingDeviceTestbed/FE310/blinky/bsp/build/debug/./metal/machine.h:511
		return 21;
20014696:	47d5                	li	a5,21
20014698:	a2cd                	j	2001487a <__metal_driver_sifive_gpio0_interrupt_lines+0x356>
/home/jubayer/Documents/riscV/EnergyHarvestingDeviceTestbed/FE310/blinky/bsp/build/debug/./metal/machine.h:513
	else if ((((uintptr_t)gpio == (uintptr_t)&__metal_dt_gpio_10012000) && (idx == 14))) {
2001469a:	fec42703          	lw	a4,-20(s0)
2001469e:	81c18793          	addi	a5,gp,-2020 # 80000a7c <__metal_dt_gpio_10012000>
200146a2:	00f71963          	bne	a4,a5,200146b4 <__metal_driver_sifive_gpio0_interrupt_lines+0x190>
/home/jubayer/Documents/riscV/EnergyHarvestingDeviceTestbed/FE310/blinky/bsp/build/debug/./metal/machine.h:513 (discriminator 1)
200146a6:	fe842703          	lw	a4,-24(s0)
200146aa:	47b9                	li	a5,14
200146ac:	00f71463          	bne	a4,a5,200146b4 <__metal_driver_sifive_gpio0_interrupt_lines+0x190>
/home/jubayer/Documents/riscV/EnergyHarvestingDeviceTestbed/FE310/blinky/bsp/build/debug/./metal/machine.h:514
		return 22;
200146b0:	47d9                	li	a5,22
200146b2:	a2e1                	j	2001487a <__metal_driver_sifive_gpio0_interrupt_lines+0x356>
/home/jubayer/Documents/riscV/EnergyHarvestingDeviceTestbed/FE310/blinky/bsp/build/debug/./metal/machine.h:516
	else if ((((uintptr_t)gpio == (uintptr_t)&__metal_dt_gpio_10012000) && (idx == 15))) {
200146b4:	fec42703          	lw	a4,-20(s0)
200146b8:	81c18793          	addi	a5,gp,-2020 # 80000a7c <__metal_dt_gpio_10012000>
200146bc:	00f71963          	bne	a4,a5,200146ce <__metal_driver_sifive_gpio0_interrupt_lines+0x1aa>
/home/jubayer/Documents/riscV/EnergyHarvestingDeviceTestbed/FE310/blinky/bsp/build/debug/./metal/machine.h:516 (discriminator 1)
200146c0:	fe842703          	lw	a4,-24(s0)
200146c4:	47bd                	li	a5,15
200146c6:	00f71463          	bne	a4,a5,200146ce <__metal_driver_sifive_gpio0_interrupt_lines+0x1aa>
/home/jubayer/Documents/riscV/EnergyHarvestingDeviceTestbed/FE310/blinky/bsp/build/debug/./metal/machine.h:517
		return 23;
200146ca:	47dd                	li	a5,23
200146cc:	a27d                	j	2001487a <__metal_driver_sifive_gpio0_interrupt_lines+0x356>
/home/jubayer/Documents/riscV/EnergyHarvestingDeviceTestbed/FE310/blinky/bsp/build/debug/./metal/machine.h:519
	else if ((((uintptr_t)gpio == (uintptr_t)&__metal_dt_gpio_10012000) && (idx == 16))) {
200146ce:	fec42703          	lw	a4,-20(s0)
200146d2:	81c18793          	addi	a5,gp,-2020 # 80000a7c <__metal_dt_gpio_10012000>
200146d6:	00f71963          	bne	a4,a5,200146e8 <__metal_driver_sifive_gpio0_interrupt_lines+0x1c4>
/home/jubayer/Documents/riscV/EnergyHarvestingDeviceTestbed/FE310/blinky/bsp/build/debug/./metal/machine.h:519 (discriminator 1)
200146da:	fe842703          	lw	a4,-24(s0)
200146de:	47c1                	li	a5,16
200146e0:	00f71463          	bne	a4,a5,200146e8 <__metal_driver_sifive_gpio0_interrupt_lines+0x1c4>
/home/jubayer/Documents/riscV/EnergyHarvestingDeviceTestbed/FE310/blinky/bsp/build/debug/./metal/machine.h:520
		return 24;
200146e4:	47e1                	li	a5,24
200146e6:	aa51                	j	2001487a <__metal_driver_sifive_gpio0_interrupt_lines+0x356>
/home/jubayer/Documents/riscV/EnergyHarvestingDeviceTestbed/FE310/blinky/bsp/build/debug/./metal/machine.h:522
	else if ((((uintptr_t)gpio == (uintptr_t)&__metal_dt_gpio_10012000) && (idx == 17))) {
200146e8:	fec42703          	lw	a4,-20(s0)
200146ec:	81c18793          	addi	a5,gp,-2020 # 80000a7c <__metal_dt_gpio_10012000>
200146f0:	00f71963          	bne	a4,a5,20014702 <__metal_driver_sifive_gpio0_interrupt_lines+0x1de>
/home/jubayer/Documents/riscV/EnergyHarvestingDeviceTestbed/FE310/blinky/bsp/build/debug/./metal/machine.h:522 (discriminator 1)
200146f4:	fe842703          	lw	a4,-24(s0)
200146f8:	47c5                	li	a5,17
200146fa:	00f71463          	bne	a4,a5,20014702 <__metal_driver_sifive_gpio0_interrupt_lines+0x1de>
/home/jubayer/Documents/riscV/EnergyHarvestingDeviceTestbed/FE310/blinky/bsp/build/debug/./metal/machine.h:523
		return 25;
200146fe:	47e5                	li	a5,25
20014700:	aaad                	j	2001487a <__metal_driver_sifive_gpio0_interrupt_lines+0x356>
/home/jubayer/Documents/riscV/EnergyHarvestingDeviceTestbed/FE310/blinky/bsp/build/debug/./metal/machine.h:525
	else if ((((uintptr_t)gpio == (uintptr_t)&__metal_dt_gpio_10012000) && (idx == 18))) {
20014702:	fec42703          	lw	a4,-20(s0)
20014706:	81c18793          	addi	a5,gp,-2020 # 80000a7c <__metal_dt_gpio_10012000>
2001470a:	00f71963          	bne	a4,a5,2001471c <__metal_driver_sifive_gpio0_interrupt_lines+0x1f8>
/home/jubayer/Documents/riscV/EnergyHarvestingDeviceTestbed/FE310/blinky/bsp/build/debug/./metal/machine.h:525 (discriminator 1)
2001470e:	fe842703          	lw	a4,-24(s0)
20014712:	47c9                	li	a5,18
20014714:	00f71463          	bne	a4,a5,2001471c <__metal_driver_sifive_gpio0_interrupt_lines+0x1f8>
/home/jubayer/Documents/riscV/EnergyHarvestingDeviceTestbed/FE310/blinky/bsp/build/debug/./metal/machine.h:526
		return 26;
20014718:	47e9                	li	a5,26
2001471a:	a285                	j	2001487a <__metal_driver_sifive_gpio0_interrupt_lines+0x356>
/home/jubayer/Documents/riscV/EnergyHarvestingDeviceTestbed/FE310/blinky/bsp/build/debug/./metal/machine.h:528
	else if ((((uintptr_t)gpio == (uintptr_t)&__metal_dt_gpio_10012000) && (idx == 19))) {
2001471c:	fec42703          	lw	a4,-20(s0)
20014720:	81c18793          	addi	a5,gp,-2020 # 80000a7c <__metal_dt_gpio_10012000>
20014724:	00f71963          	bne	a4,a5,20014736 <__metal_driver_sifive_gpio0_interrupt_lines+0x212>
/home/jubayer/Documents/riscV/EnergyHarvestingDeviceTestbed/FE310/blinky/bsp/build/debug/./metal/machine.h:528 (discriminator 1)
20014728:	fe842703          	lw	a4,-24(s0)
2001472c:	47cd                	li	a5,19
2001472e:	00f71463          	bne	a4,a5,20014736 <__metal_driver_sifive_gpio0_interrupt_lines+0x212>
/home/jubayer/Documents/riscV/EnergyHarvestingDeviceTestbed/FE310/blinky/bsp/build/debug/./metal/machine.h:529
		return 27;
20014732:	47ed                	li	a5,27
20014734:	a299                	j	2001487a <__metal_driver_sifive_gpio0_interrupt_lines+0x356>
/home/jubayer/Documents/riscV/EnergyHarvestingDeviceTestbed/FE310/blinky/bsp/build/debug/./metal/machine.h:531
	else if ((((uintptr_t)gpio == (uintptr_t)&__metal_dt_gpio_10012000) && (idx == 20))) {
20014736:	fec42703          	lw	a4,-20(s0)
2001473a:	81c18793          	addi	a5,gp,-2020 # 80000a7c <__metal_dt_gpio_10012000>
2001473e:	00f71963          	bne	a4,a5,20014750 <__metal_driver_sifive_gpio0_interrupt_lines+0x22c>
/home/jubayer/Documents/riscV/EnergyHarvestingDeviceTestbed/FE310/blinky/bsp/build/debug/./metal/machine.h:531 (discriminator 1)
20014742:	fe842703          	lw	a4,-24(s0)
20014746:	47d1                	li	a5,20
20014748:	00f71463          	bne	a4,a5,20014750 <__metal_driver_sifive_gpio0_interrupt_lines+0x22c>
/home/jubayer/Documents/riscV/EnergyHarvestingDeviceTestbed/FE310/blinky/bsp/build/debug/./metal/machine.h:532
		return 28;
2001474c:	47f1                	li	a5,28
2001474e:	a235                	j	2001487a <__metal_driver_sifive_gpio0_interrupt_lines+0x356>
/home/jubayer/Documents/riscV/EnergyHarvestingDeviceTestbed/FE310/blinky/bsp/build/debug/./metal/machine.h:534
	else if ((((uintptr_t)gpio == (uintptr_t)&__metal_dt_gpio_10012000) && (idx == 21))) {
20014750:	fec42703          	lw	a4,-20(s0)
20014754:	81c18793          	addi	a5,gp,-2020 # 80000a7c <__metal_dt_gpio_10012000>
20014758:	00f71963          	bne	a4,a5,2001476a <__metal_driver_sifive_gpio0_interrupt_lines+0x246>
/home/jubayer/Documents/riscV/EnergyHarvestingDeviceTestbed/FE310/blinky/bsp/build/debug/./metal/machine.h:534 (discriminator 1)
2001475c:	fe842703          	lw	a4,-24(s0)
20014760:	47d5                	li	a5,21
20014762:	00f71463          	bne	a4,a5,2001476a <__metal_driver_sifive_gpio0_interrupt_lines+0x246>
/home/jubayer/Documents/riscV/EnergyHarvestingDeviceTestbed/FE310/blinky/bsp/build/debug/./metal/machine.h:535
		return 29;
20014766:	47f5                	li	a5,29
20014768:	aa09                	j	2001487a <__metal_driver_sifive_gpio0_interrupt_lines+0x356>
/home/jubayer/Documents/riscV/EnergyHarvestingDeviceTestbed/FE310/blinky/bsp/build/debug/./metal/machine.h:537
	else if ((((uintptr_t)gpio == (uintptr_t)&__metal_dt_gpio_10012000) && (idx == 22))) {
2001476a:	fec42703          	lw	a4,-20(s0)
2001476e:	81c18793          	addi	a5,gp,-2020 # 80000a7c <__metal_dt_gpio_10012000>
20014772:	00f71963          	bne	a4,a5,20014784 <__metal_driver_sifive_gpio0_interrupt_lines+0x260>
/home/jubayer/Documents/riscV/EnergyHarvestingDeviceTestbed/FE310/blinky/bsp/build/debug/./metal/machine.h:537 (discriminator 1)
20014776:	fe842703          	lw	a4,-24(s0)
2001477a:	47d9                	li	a5,22
2001477c:	00f71463          	bne	a4,a5,20014784 <__metal_driver_sifive_gpio0_interrupt_lines+0x260>
/home/jubayer/Documents/riscV/EnergyHarvestingDeviceTestbed/FE310/blinky/bsp/build/debug/./metal/machine.h:538
		return 30;
20014780:	47f9                	li	a5,30
20014782:	a8e5                	j	2001487a <__metal_driver_sifive_gpio0_interrupt_lines+0x356>
/home/jubayer/Documents/riscV/EnergyHarvestingDeviceTestbed/FE310/blinky/bsp/build/debug/./metal/machine.h:540
	else if ((((uintptr_t)gpio == (uintptr_t)&__metal_dt_gpio_10012000) && (idx == 23))) {
20014784:	fec42703          	lw	a4,-20(s0)
20014788:	81c18793          	addi	a5,gp,-2020 # 80000a7c <__metal_dt_gpio_10012000>
2001478c:	00f71963          	bne	a4,a5,2001479e <__metal_driver_sifive_gpio0_interrupt_lines+0x27a>
/home/jubayer/Documents/riscV/EnergyHarvestingDeviceTestbed/FE310/blinky/bsp/build/debug/./metal/machine.h:540 (discriminator 1)
20014790:	fe842703          	lw	a4,-24(s0)
20014794:	47dd                	li	a5,23
20014796:	00f71463          	bne	a4,a5,2001479e <__metal_driver_sifive_gpio0_interrupt_lines+0x27a>
/home/jubayer/Documents/riscV/EnergyHarvestingDeviceTestbed/FE310/blinky/bsp/build/debug/./metal/machine.h:541
		return 31;
2001479a:	47fd                	li	a5,31
2001479c:	a8f9                	j	2001487a <__metal_driver_sifive_gpio0_interrupt_lines+0x356>
/home/jubayer/Documents/riscV/EnergyHarvestingDeviceTestbed/FE310/blinky/bsp/build/debug/./metal/machine.h:543
	else if ((((uintptr_t)gpio == (uintptr_t)&__metal_dt_gpio_10012000) && (idx == 24))) {
2001479e:	fec42703          	lw	a4,-20(s0)
200147a2:	81c18793          	addi	a5,gp,-2020 # 80000a7c <__metal_dt_gpio_10012000>
200147a6:	00f71a63          	bne	a4,a5,200147ba <__metal_driver_sifive_gpio0_interrupt_lines+0x296>
/home/jubayer/Documents/riscV/EnergyHarvestingDeviceTestbed/FE310/blinky/bsp/build/debug/./metal/machine.h:543 (discriminator 1)
200147aa:	fe842703          	lw	a4,-24(s0)
200147ae:	47e1                	li	a5,24
200147b0:	00f71563          	bne	a4,a5,200147ba <__metal_driver_sifive_gpio0_interrupt_lines+0x296>
/home/jubayer/Documents/riscV/EnergyHarvestingDeviceTestbed/FE310/blinky/bsp/build/debug/./metal/machine.h:544
		return 32;
200147b4:	02000793          	li	a5,32
200147b8:	a0c9                	j	2001487a <__metal_driver_sifive_gpio0_interrupt_lines+0x356>
/home/jubayer/Documents/riscV/EnergyHarvestingDeviceTestbed/FE310/blinky/bsp/build/debug/./metal/machine.h:546
	else if ((((uintptr_t)gpio == (uintptr_t)&__metal_dt_gpio_10012000) && (idx == 25))) {
200147ba:	fec42703          	lw	a4,-20(s0)
200147be:	81c18793          	addi	a5,gp,-2020 # 80000a7c <__metal_dt_gpio_10012000>
200147c2:	00f71a63          	bne	a4,a5,200147d6 <__metal_driver_sifive_gpio0_interrupt_lines+0x2b2>
/home/jubayer/Documents/riscV/EnergyHarvestingDeviceTestbed/FE310/blinky/bsp/build/debug/./metal/machine.h:546 (discriminator 1)
200147c6:	fe842703          	lw	a4,-24(s0)
200147ca:	47e5                	li	a5,25
200147cc:	00f71563          	bne	a4,a5,200147d6 <__metal_driver_sifive_gpio0_interrupt_lines+0x2b2>
/home/jubayer/Documents/riscV/EnergyHarvestingDeviceTestbed/FE310/blinky/bsp/build/debug/./metal/machine.h:547
		return 33;
200147d0:	02100793          	li	a5,33
200147d4:	a05d                	j	2001487a <__metal_driver_sifive_gpio0_interrupt_lines+0x356>
/home/jubayer/Documents/riscV/EnergyHarvestingDeviceTestbed/FE310/blinky/bsp/build/debug/./metal/machine.h:549
	else if ((((uintptr_t)gpio == (uintptr_t)&__metal_dt_gpio_10012000) && (idx == 26))) {
200147d6:	fec42703          	lw	a4,-20(s0)
200147da:	81c18793          	addi	a5,gp,-2020 # 80000a7c <__metal_dt_gpio_10012000>
200147de:	00f71a63          	bne	a4,a5,200147f2 <__metal_driver_sifive_gpio0_interrupt_lines+0x2ce>
/home/jubayer/Documents/riscV/EnergyHarvestingDeviceTestbed/FE310/blinky/bsp/build/debug/./metal/machine.h:549 (discriminator 1)
200147e2:	fe842703          	lw	a4,-24(s0)
200147e6:	47e9                	li	a5,26
200147e8:	00f71563          	bne	a4,a5,200147f2 <__metal_driver_sifive_gpio0_interrupt_lines+0x2ce>
/home/jubayer/Documents/riscV/EnergyHarvestingDeviceTestbed/FE310/blinky/bsp/build/debug/./metal/machine.h:550
		return 34;
200147ec:	02200793          	li	a5,34
200147f0:	a069                	j	2001487a <__metal_driver_sifive_gpio0_interrupt_lines+0x356>
/home/jubayer/Documents/riscV/EnergyHarvestingDeviceTestbed/FE310/blinky/bsp/build/debug/./metal/machine.h:552
	else if ((((uintptr_t)gpio == (uintptr_t)&__metal_dt_gpio_10012000) && (idx == 27))) {
200147f2:	fec42703          	lw	a4,-20(s0)
200147f6:	81c18793          	addi	a5,gp,-2020 # 80000a7c <__metal_dt_gpio_10012000>
200147fa:	00f71a63          	bne	a4,a5,2001480e <__metal_driver_sifive_gpio0_interrupt_lines+0x2ea>
/home/jubayer/Documents/riscV/EnergyHarvestingDeviceTestbed/FE310/blinky/bsp/build/debug/./metal/machine.h:552 (discriminator 1)
200147fe:	fe842703          	lw	a4,-24(s0)
20014802:	47ed                	li	a5,27
20014804:	00f71563          	bne	a4,a5,2001480e <__metal_driver_sifive_gpio0_interrupt_lines+0x2ea>
/home/jubayer/Documents/riscV/EnergyHarvestingDeviceTestbed/FE310/blinky/bsp/build/debug/./metal/machine.h:553
		return 35;
20014808:	02300793          	li	a5,35
2001480c:	a0bd                	j	2001487a <__metal_driver_sifive_gpio0_interrupt_lines+0x356>
/home/jubayer/Documents/riscV/EnergyHarvestingDeviceTestbed/FE310/blinky/bsp/build/debug/./metal/machine.h:555
	else if ((((uintptr_t)gpio == (uintptr_t)&__metal_dt_gpio_10012000) && (idx == 28))) {
2001480e:	fec42703          	lw	a4,-20(s0)
20014812:	81c18793          	addi	a5,gp,-2020 # 80000a7c <__metal_dt_gpio_10012000>
20014816:	00f71a63          	bne	a4,a5,2001482a <__metal_driver_sifive_gpio0_interrupt_lines+0x306>
/home/jubayer/Documents/riscV/EnergyHarvestingDeviceTestbed/FE310/blinky/bsp/build/debug/./metal/machine.h:555 (discriminator 1)
2001481a:	fe842703          	lw	a4,-24(s0)
2001481e:	47f1                	li	a5,28
20014820:	00f71563          	bne	a4,a5,2001482a <__metal_driver_sifive_gpio0_interrupt_lines+0x306>
/home/jubayer/Documents/riscV/EnergyHarvestingDeviceTestbed/FE310/blinky/bsp/build/debug/./metal/machine.h:556
		return 36;
20014824:	02400793          	li	a5,36
20014828:	a889                	j	2001487a <__metal_driver_sifive_gpio0_interrupt_lines+0x356>
/home/jubayer/Documents/riscV/EnergyHarvestingDeviceTestbed/FE310/blinky/bsp/build/debug/./metal/machine.h:558
	else if ((((uintptr_t)gpio == (uintptr_t)&__metal_dt_gpio_10012000) && (idx == 29))) {
2001482a:	fec42703          	lw	a4,-20(s0)
2001482e:	81c18793          	addi	a5,gp,-2020 # 80000a7c <__metal_dt_gpio_10012000>
20014832:	00f71963          	bne	a4,a5,20014844 <__metal_driver_sifive_gpio0_interrupt_lines+0x320>
/home/jubayer/Documents/riscV/EnergyHarvestingDeviceTestbed/FE310/blinky/bsp/build/debug/./metal/machine.h:558 (discriminator 1)
20014836:	fe842703          	lw	a4,-24(s0)
2001483a:	47f5                	li	a5,29
2001483c:	00f71463          	bne	a4,a5,20014844 <__metal_driver_sifive_gpio0_interrupt_lines+0x320>
/home/jubayer/Documents/riscV/EnergyHarvestingDeviceTestbed/FE310/blinky/bsp/build/debug/./metal/machine.h:559
		return 27;
20014840:	47ed                	li	a5,27
20014842:	a825                	j	2001487a <__metal_driver_sifive_gpio0_interrupt_lines+0x356>
/home/jubayer/Documents/riscV/EnergyHarvestingDeviceTestbed/FE310/blinky/bsp/build/debug/./metal/machine.h:561
	else if ((((uintptr_t)gpio == (uintptr_t)&__metal_dt_gpio_10012000) && (idx == 30))) {
20014844:	fec42703          	lw	a4,-20(s0)
20014848:	81c18793          	addi	a5,gp,-2020 # 80000a7c <__metal_dt_gpio_10012000>
2001484c:	00f71963          	bne	a4,a5,2001485e <__metal_driver_sifive_gpio0_interrupt_lines+0x33a>
/home/jubayer/Documents/riscV/EnergyHarvestingDeviceTestbed/FE310/blinky/bsp/build/debug/./metal/machine.h:561 (discriminator 1)
20014850:	fe842703          	lw	a4,-24(s0)
20014854:	47f9                	li	a5,30
20014856:	00f71463          	bne	a4,a5,2001485e <__metal_driver_sifive_gpio0_interrupt_lines+0x33a>
/home/jubayer/Documents/riscV/EnergyHarvestingDeviceTestbed/FE310/blinky/bsp/build/debug/./metal/machine.h:562
		return 28;
2001485a:	47f1                	li	a5,28
2001485c:	a839                	j	2001487a <__metal_driver_sifive_gpio0_interrupt_lines+0x356>
/home/jubayer/Documents/riscV/EnergyHarvestingDeviceTestbed/FE310/blinky/bsp/build/debug/./metal/machine.h:564
	else if ((((uintptr_t)gpio == (uintptr_t)&__metal_dt_gpio_10012000) && (idx == 31))) {
2001485e:	fec42703          	lw	a4,-20(s0)
20014862:	81c18793          	addi	a5,gp,-2020 # 80000a7c <__metal_dt_gpio_10012000>
20014866:	00f71963          	bne	a4,a5,20014878 <__metal_driver_sifive_gpio0_interrupt_lines+0x354>
/home/jubayer/Documents/riscV/EnergyHarvestingDeviceTestbed/FE310/blinky/bsp/build/debug/./metal/machine.h:564 (discriminator 1)
2001486a:	fe842703          	lw	a4,-24(s0)
2001486e:	47fd                	li	a5,31
20014870:	00f71463          	bne	a4,a5,20014878 <__metal_driver_sifive_gpio0_interrupt_lines+0x354>
/home/jubayer/Documents/riscV/EnergyHarvestingDeviceTestbed/FE310/blinky/bsp/build/debug/./metal/machine.h:565
		return 29;
20014874:	47f5                	li	a5,29
20014876:	a011                	j	2001487a <__metal_driver_sifive_gpio0_interrupt_lines+0x356>
/home/jubayer/Documents/riscV/EnergyHarvestingDeviceTestbed/FE310/blinky/bsp/build/debug/./metal/machine.h:568
		return 0;
20014878:	4781                	li	a5,0
/home/jubayer/Documents/riscV/EnergyHarvestingDeviceTestbed/FE310/blinky/bsp/build/debug/./metal/machine.h:570
}
2001487a:	853e                	mv	a0,a5
2001487c:	4472                	lw	s0,28(sp)
2001487e:	6105                	addi	sp,sp,32
20014880:	8082                	ret

20014882 <__metal_driver_sifive_gpio0_enable_input>:
__metal_driver_sifive_gpio0_enable_input():
/home/jubayer/Documents/riscV/EnergyHarvestingDeviceTestbed/FE310/blinky/freedom-metal/src/drivers/sifive_gpio0.c:13
#include <metal/drivers/sifive_gpio0.h>
#include <metal/io.h>
#include <metal/machine.h>

int __metal_driver_sifive_gpio0_enable_input(struct metal_gpio *ggpio,
                                             long source) {
20014882:	7179                	addi	sp,sp,-48
20014884:	d606                	sw	ra,44(sp)
20014886:	d422                	sw	s0,40(sp)
20014888:	1800                	addi	s0,sp,48
2001488a:	fca42e23          	sw	a0,-36(s0)
2001488e:	fcb42c23          	sw	a1,-40(s0)
/home/jubayer/Documents/riscV/EnergyHarvestingDeviceTestbed/FE310/blinky/freedom-metal/src/drivers/sifive_gpio0.c:14
    long base = __metal_driver_sifive_gpio0_base(ggpio);
20014892:	fdc42503          	lw	a0,-36(s0)
20014896:	c3fff0ef          	jal	ra,200144d4 <__metal_driver_sifive_gpio0_base>
2001489a:	87aa                	mv	a5,a0
2001489c:	fef42623          	sw	a5,-20(s0)
/home/jubayer/Documents/riscV/EnergyHarvestingDeviceTestbed/FE310/blinky/freedom-metal/src/drivers/sifive_gpio0.c:17

    __METAL_ACCESS_ONCE(
        (__metal_io_u32 *)(base + METAL_SIFIVE_GPIO0_INPUT_EN)) |= source;
200148a0:	fec42783          	lw	a5,-20(s0)
200148a4:	0791                	addi	a5,a5,4
200148a6:	4398                	lw	a4,0(a5)
200148a8:	fd842783          	lw	a5,-40(s0)
200148ac:	fec42683          	lw	a3,-20(s0)
200148b0:	0691                	addi	a3,a3,4
200148b2:	8fd9                	or	a5,a5,a4
200148b4:	c29c                	sw	a5,0(a3)
/home/jubayer/Documents/riscV/EnergyHarvestingDeviceTestbed/FE310/blinky/freedom-metal/src/drivers/sifive_gpio0.c:19

    return 0;
200148b6:	4781                	li	a5,0
/home/jubayer/Documents/riscV/EnergyHarvestingDeviceTestbed/FE310/blinky/freedom-metal/src/drivers/sifive_gpio0.c:20
}
200148b8:	853e                	mv	a0,a5
200148ba:	50b2                	lw	ra,44(sp)
200148bc:	5422                	lw	s0,40(sp)
200148be:	6145                	addi	sp,sp,48
200148c0:	8082                	ret

200148c2 <__metal_driver_sifive_gpio0_disable_input>:
__metal_driver_sifive_gpio0_disable_input():
/home/jubayer/Documents/riscV/EnergyHarvestingDeviceTestbed/FE310/blinky/freedom-metal/src/drivers/sifive_gpio0.c:23

int __metal_driver_sifive_gpio0_disable_input(struct metal_gpio *ggpio,
                                              long source) {
200148c2:	7179                	addi	sp,sp,-48
200148c4:	d606                	sw	ra,44(sp)
200148c6:	d422                	sw	s0,40(sp)
200148c8:	1800                	addi	s0,sp,48
200148ca:	fca42e23          	sw	a0,-36(s0)
200148ce:	fcb42c23          	sw	a1,-40(s0)
/home/jubayer/Documents/riscV/EnergyHarvestingDeviceTestbed/FE310/blinky/freedom-metal/src/drivers/sifive_gpio0.c:24
    long base = __metal_driver_sifive_gpio0_base(ggpio);
200148d2:	fdc42503          	lw	a0,-36(s0)
200148d6:	bffff0ef          	jal	ra,200144d4 <__metal_driver_sifive_gpio0_base>
200148da:	87aa                	mv	a5,a0
200148dc:	fef42623          	sw	a5,-20(s0)
/home/jubayer/Documents/riscV/EnergyHarvestingDeviceTestbed/FE310/blinky/freedom-metal/src/drivers/sifive_gpio0.c:27

    __METAL_ACCESS_ONCE(
        (__metal_io_u32 *)(base + METAL_SIFIVE_GPIO0_INPUT_EN)) &= ~source;
200148e0:	fec42783          	lw	a5,-20(s0)
200148e4:	0791                	addi	a5,a5,4
200148e6:	439c                	lw	a5,0(a5)
200148e8:	fd842703          	lw	a4,-40(s0)
200148ec:	fff74713          	not	a4,a4
200148f0:	86ba                	mv	a3,a4
200148f2:	fec42703          	lw	a4,-20(s0)
200148f6:	0711                	addi	a4,a4,4
200148f8:	8ff5                	and	a5,a5,a3
200148fa:	c31c                	sw	a5,0(a4)
/home/jubayer/Documents/riscV/EnergyHarvestingDeviceTestbed/FE310/blinky/freedom-metal/src/drivers/sifive_gpio0.c:29

    return 0;
200148fc:	4781                	li	a5,0
/home/jubayer/Documents/riscV/EnergyHarvestingDeviceTestbed/FE310/blinky/freedom-metal/src/drivers/sifive_gpio0.c:30
}
200148fe:	853e                	mv	a0,a5
20014900:	50b2                	lw	ra,44(sp)
20014902:	5422                	lw	s0,40(sp)
20014904:	6145                	addi	sp,sp,48
20014906:	8082                	ret

20014908 <__metal_driver_sifive_gpio0_input>:
__metal_driver_sifive_gpio0_input():
/home/jubayer/Documents/riscV/EnergyHarvestingDeviceTestbed/FE310/blinky/freedom-metal/src/drivers/sifive_gpio0.c:32

long __metal_driver_sifive_gpio0_input(struct metal_gpio *ggpio) {
20014908:	7179                	addi	sp,sp,-48
2001490a:	d606                	sw	ra,44(sp)
2001490c:	d422                	sw	s0,40(sp)
2001490e:	1800                	addi	s0,sp,48
20014910:	fca42e23          	sw	a0,-36(s0)
/home/jubayer/Documents/riscV/EnergyHarvestingDeviceTestbed/FE310/blinky/freedom-metal/src/drivers/sifive_gpio0.c:33
    long base = __metal_driver_sifive_gpio0_base(ggpio);
20014914:	fdc42503          	lw	a0,-36(s0)
20014918:	bbdff0ef          	jal	ra,200144d4 <__metal_driver_sifive_gpio0_base>
2001491c:	87aa                	mv	a5,a0
2001491e:	fef42623          	sw	a5,-20(s0)
/home/jubayer/Documents/riscV/EnergyHarvestingDeviceTestbed/FE310/blinky/freedom-metal/src/drivers/sifive_gpio0.c:35

    return __METAL_ACCESS_ONCE(
20014922:	fec42783          	lw	a5,-20(s0)
20014926:	439c                	lw	a5,0(a5)
/home/jubayer/Documents/riscV/EnergyHarvestingDeviceTestbed/FE310/blinky/freedom-metal/src/drivers/sifive_gpio0.c:37
        (__metal_io_u32 *)(base + METAL_SIFIVE_GPIO0_VALUE));
}
20014928:	853e                	mv	a0,a5
2001492a:	50b2                	lw	ra,44(sp)
2001492c:	5422                	lw	s0,40(sp)
2001492e:	6145                	addi	sp,sp,48
20014930:	8082                	ret

20014932 <__metal_driver_sifive_gpio0_output>:
__metal_driver_sifive_gpio0_output():
/home/jubayer/Documents/riscV/EnergyHarvestingDeviceTestbed/FE310/blinky/freedom-metal/src/drivers/sifive_gpio0.c:39

long __metal_driver_sifive_gpio0_output(struct metal_gpio *ggpio) {
20014932:	7179                	addi	sp,sp,-48
20014934:	d606                	sw	ra,44(sp)
20014936:	d422                	sw	s0,40(sp)
20014938:	1800                	addi	s0,sp,48
2001493a:	fca42e23          	sw	a0,-36(s0)
/home/jubayer/Documents/riscV/EnergyHarvestingDeviceTestbed/FE310/blinky/freedom-metal/src/drivers/sifive_gpio0.c:40
    long base = __metal_driver_sifive_gpio0_base(ggpio);
2001493e:	fdc42503          	lw	a0,-36(s0)
20014942:	b93ff0ef          	jal	ra,200144d4 <__metal_driver_sifive_gpio0_base>
20014946:	87aa                	mv	a5,a0
20014948:	fef42623          	sw	a5,-20(s0)
/home/jubayer/Documents/riscV/EnergyHarvestingDeviceTestbed/FE310/blinky/freedom-metal/src/drivers/sifive_gpio0.c:42

    return __METAL_ACCESS_ONCE(
2001494c:	fec42783          	lw	a5,-20(s0)
20014950:	07b1                	addi	a5,a5,12
20014952:	439c                	lw	a5,0(a5)
/home/jubayer/Documents/riscV/EnergyHarvestingDeviceTestbed/FE310/blinky/freedom-metal/src/drivers/sifive_gpio0.c:44
        (__metal_io_u32 *)(base + METAL_SIFIVE_GPIO0_PORT));
}
20014954:	853e                	mv	a0,a5
20014956:	50b2                	lw	ra,44(sp)
20014958:	5422                	lw	s0,40(sp)
2001495a:	6145                	addi	sp,sp,48
2001495c:	8082                	ret

2001495e <__metal_driver_sifive_gpio0_disable_output>:
__metal_driver_sifive_gpio0_disable_output():
/home/jubayer/Documents/riscV/EnergyHarvestingDeviceTestbed/FE310/blinky/freedom-metal/src/drivers/sifive_gpio0.c:47

int __metal_driver_sifive_gpio0_disable_output(struct metal_gpio *ggpio,
                                               long source) {
2001495e:	7179                	addi	sp,sp,-48
20014960:	d606                	sw	ra,44(sp)
20014962:	d422                	sw	s0,40(sp)
20014964:	1800                	addi	s0,sp,48
20014966:	fca42e23          	sw	a0,-36(s0)
2001496a:	fcb42c23          	sw	a1,-40(s0)
/home/jubayer/Documents/riscV/EnergyHarvestingDeviceTestbed/FE310/blinky/freedom-metal/src/drivers/sifive_gpio0.c:48
    long base = __metal_driver_sifive_gpio0_base(ggpio);
2001496e:	fdc42503          	lw	a0,-36(s0)
20014972:	b63ff0ef          	jal	ra,200144d4 <__metal_driver_sifive_gpio0_base>
20014976:	87aa                	mv	a5,a0
20014978:	fef42623          	sw	a5,-20(s0)
/home/jubayer/Documents/riscV/EnergyHarvestingDeviceTestbed/FE310/blinky/freedom-metal/src/drivers/sifive_gpio0.c:51

    __METAL_ACCESS_ONCE(
        (__metal_io_u32 *)(base + METAL_SIFIVE_GPIO0_OUTPUT_EN)) &= ~source;
2001497c:	fec42783          	lw	a5,-20(s0)
20014980:	07a1                	addi	a5,a5,8
20014982:	439c                	lw	a5,0(a5)
20014984:	fd842703          	lw	a4,-40(s0)
20014988:	fff74713          	not	a4,a4
2001498c:	86ba                	mv	a3,a4
2001498e:	fec42703          	lw	a4,-20(s0)
20014992:	0721                	addi	a4,a4,8
20014994:	8ff5                	and	a5,a5,a3
20014996:	c31c                	sw	a5,0(a4)
/home/jubayer/Documents/riscV/EnergyHarvestingDeviceTestbed/FE310/blinky/freedom-metal/src/drivers/sifive_gpio0.c:53

    return 0;
20014998:	4781                	li	a5,0
/home/jubayer/Documents/riscV/EnergyHarvestingDeviceTestbed/FE310/blinky/freedom-metal/src/drivers/sifive_gpio0.c:54
}
2001499a:	853e                	mv	a0,a5
2001499c:	50b2                	lw	ra,44(sp)
2001499e:	5422                	lw	s0,40(sp)
200149a0:	6145                	addi	sp,sp,48
200149a2:	8082                	ret

200149a4 <__metal_driver_sifive_gpio0_enable_output>:
__metal_driver_sifive_gpio0_enable_output():
/home/jubayer/Documents/riscV/EnergyHarvestingDeviceTestbed/FE310/blinky/freedom-metal/src/drivers/sifive_gpio0.c:57

int __metal_driver_sifive_gpio0_enable_output(struct metal_gpio *ggpio,
                                              long source) {
200149a4:	7179                	addi	sp,sp,-48
200149a6:	d606                	sw	ra,44(sp)
200149a8:	d422                	sw	s0,40(sp)
200149aa:	1800                	addi	s0,sp,48
200149ac:	fca42e23          	sw	a0,-36(s0)
200149b0:	fcb42c23          	sw	a1,-40(s0)
/home/jubayer/Documents/riscV/EnergyHarvestingDeviceTestbed/FE310/blinky/freedom-metal/src/drivers/sifive_gpio0.c:58
    long base = __metal_driver_sifive_gpio0_base(ggpio);
200149b4:	fdc42503          	lw	a0,-36(s0)
200149b8:	b1dff0ef          	jal	ra,200144d4 <__metal_driver_sifive_gpio0_base>
200149bc:	87aa                	mv	a5,a0
200149be:	fef42623          	sw	a5,-20(s0)
/home/jubayer/Documents/riscV/EnergyHarvestingDeviceTestbed/FE310/blinky/freedom-metal/src/drivers/sifive_gpio0.c:61

    __METAL_ACCESS_ONCE(
        (__metal_io_u32 *)(base + METAL_SIFIVE_GPIO0_OUTPUT_EN)) |= source;
200149c2:	fec42783          	lw	a5,-20(s0)
200149c6:	07a1                	addi	a5,a5,8
200149c8:	4398                	lw	a4,0(a5)
200149ca:	fd842783          	lw	a5,-40(s0)
200149ce:	fec42683          	lw	a3,-20(s0)
200149d2:	06a1                	addi	a3,a3,8
200149d4:	8fd9                	or	a5,a5,a4
200149d6:	c29c                	sw	a5,0(a3)
/home/jubayer/Documents/riscV/EnergyHarvestingDeviceTestbed/FE310/blinky/freedom-metal/src/drivers/sifive_gpio0.c:63

    return 0;
200149d8:	4781                	li	a5,0
/home/jubayer/Documents/riscV/EnergyHarvestingDeviceTestbed/FE310/blinky/freedom-metal/src/drivers/sifive_gpio0.c:64
}
200149da:	853e                	mv	a0,a5
200149dc:	50b2                	lw	ra,44(sp)
200149de:	5422                	lw	s0,40(sp)
200149e0:	6145                	addi	sp,sp,48
200149e2:	8082                	ret

200149e4 <__metal_driver_sifive_gpio0_output_set>:
__metal_driver_sifive_gpio0_output_set():
/home/jubayer/Documents/riscV/EnergyHarvestingDeviceTestbed/FE310/blinky/freedom-metal/src/drivers/sifive_gpio0.c:67

int __metal_driver_sifive_gpio0_output_set(struct metal_gpio *ggpio,
                                           long value) {
200149e4:	7179                	addi	sp,sp,-48
200149e6:	d606                	sw	ra,44(sp)
200149e8:	d422                	sw	s0,40(sp)
200149ea:	1800                	addi	s0,sp,48
200149ec:	fca42e23          	sw	a0,-36(s0)
200149f0:	fcb42c23          	sw	a1,-40(s0)
/home/jubayer/Documents/riscV/EnergyHarvestingDeviceTestbed/FE310/blinky/freedom-metal/src/drivers/sifive_gpio0.c:68
    long base = __metal_driver_sifive_gpio0_base(ggpio);
200149f4:	fdc42503          	lw	a0,-36(s0)
200149f8:	addff0ef          	jal	ra,200144d4 <__metal_driver_sifive_gpio0_base>
200149fc:	87aa                	mv	a5,a0
200149fe:	fef42623          	sw	a5,-20(s0)
/home/jubayer/Documents/riscV/EnergyHarvestingDeviceTestbed/FE310/blinky/freedom-metal/src/drivers/sifive_gpio0.c:70

    __METAL_ACCESS_ONCE((__metal_io_u32 *)(base + METAL_SIFIVE_GPIO0_PORT)) |=
20014a02:	fec42783          	lw	a5,-20(s0)
20014a06:	07b1                	addi	a5,a5,12
20014a08:	4398                	lw	a4,0(a5)
20014a0a:	fd842783          	lw	a5,-40(s0)
20014a0e:	fec42683          	lw	a3,-20(s0)
20014a12:	06b1                	addi	a3,a3,12
20014a14:	8fd9                	or	a5,a5,a4
20014a16:	c29c                	sw	a5,0(a3)
/home/jubayer/Documents/riscV/EnergyHarvestingDeviceTestbed/FE310/blinky/freedom-metal/src/drivers/sifive_gpio0.c:73
        value;

    return 0;
20014a18:	4781                	li	a5,0
/home/jubayer/Documents/riscV/EnergyHarvestingDeviceTestbed/FE310/blinky/freedom-metal/src/drivers/sifive_gpio0.c:74
}
20014a1a:	853e                	mv	a0,a5
20014a1c:	50b2                	lw	ra,44(sp)
20014a1e:	5422                	lw	s0,40(sp)
20014a20:	6145                	addi	sp,sp,48
20014a22:	8082                	ret

20014a24 <__metal_driver_sifive_gpio0_output_clear>:
__metal_driver_sifive_gpio0_output_clear():
/home/jubayer/Documents/riscV/EnergyHarvestingDeviceTestbed/FE310/blinky/freedom-metal/src/drivers/sifive_gpio0.c:77

int __metal_driver_sifive_gpio0_output_clear(struct metal_gpio *ggpio,
                                             long value) {
20014a24:	7179                	addi	sp,sp,-48
20014a26:	d606                	sw	ra,44(sp)
20014a28:	d422                	sw	s0,40(sp)
20014a2a:	1800                	addi	s0,sp,48
20014a2c:	fca42e23          	sw	a0,-36(s0)
20014a30:	fcb42c23          	sw	a1,-40(s0)
/home/jubayer/Documents/riscV/EnergyHarvestingDeviceTestbed/FE310/blinky/freedom-metal/src/drivers/sifive_gpio0.c:78
    long base = __metal_driver_sifive_gpio0_base(ggpio);
20014a34:	fdc42503          	lw	a0,-36(s0)
20014a38:	a9dff0ef          	jal	ra,200144d4 <__metal_driver_sifive_gpio0_base>
20014a3c:	87aa                	mv	a5,a0
20014a3e:	fef42623          	sw	a5,-20(s0)
/home/jubayer/Documents/riscV/EnergyHarvestingDeviceTestbed/FE310/blinky/freedom-metal/src/drivers/sifive_gpio0.c:80

    __METAL_ACCESS_ONCE((__metal_io_u32 *)(base + METAL_SIFIVE_GPIO0_PORT)) &=
20014a42:	fec42783          	lw	a5,-20(s0)
20014a46:	07b1                	addi	a5,a5,12
20014a48:	439c                	lw	a5,0(a5)
/home/jubayer/Documents/riscV/EnergyHarvestingDeviceTestbed/FE310/blinky/freedom-metal/src/drivers/sifive_gpio0.c:81
        ~value;
20014a4a:	fd842703          	lw	a4,-40(s0)
20014a4e:	fff74713          	not	a4,a4
20014a52:	86ba                	mv	a3,a4
/home/jubayer/Documents/riscV/EnergyHarvestingDeviceTestbed/FE310/blinky/freedom-metal/src/drivers/sifive_gpio0.c:80
    __METAL_ACCESS_ONCE((__metal_io_u32 *)(base + METAL_SIFIVE_GPIO0_PORT)) &=
20014a54:	fec42703          	lw	a4,-20(s0)
20014a58:	0731                	addi	a4,a4,12
20014a5a:	8ff5                	and	a5,a5,a3
20014a5c:	c31c                	sw	a5,0(a4)
/home/jubayer/Documents/riscV/EnergyHarvestingDeviceTestbed/FE310/blinky/freedom-metal/src/drivers/sifive_gpio0.c:83

    return 0;
20014a5e:	4781                	li	a5,0
/home/jubayer/Documents/riscV/EnergyHarvestingDeviceTestbed/FE310/blinky/freedom-metal/src/drivers/sifive_gpio0.c:84
}
20014a60:	853e                	mv	a0,a5
20014a62:	50b2                	lw	ra,44(sp)
20014a64:	5422                	lw	s0,40(sp)
20014a66:	6145                	addi	sp,sp,48
20014a68:	8082                	ret

20014a6a <__metal_driver_sifive_gpio0_output_toggle>:
__metal_driver_sifive_gpio0_output_toggle():
/home/jubayer/Documents/riscV/EnergyHarvestingDeviceTestbed/FE310/blinky/freedom-metal/src/drivers/sifive_gpio0.c:87

int __metal_driver_sifive_gpio0_output_toggle(struct metal_gpio *ggpio,
                                              long value) {
20014a6a:	7179                	addi	sp,sp,-48
20014a6c:	d606                	sw	ra,44(sp)
20014a6e:	d422                	sw	s0,40(sp)
20014a70:	1800                	addi	s0,sp,48
20014a72:	fca42e23          	sw	a0,-36(s0)
20014a76:	fcb42c23          	sw	a1,-40(s0)
/home/jubayer/Documents/riscV/EnergyHarvestingDeviceTestbed/FE310/blinky/freedom-metal/src/drivers/sifive_gpio0.c:88
    long base = __metal_driver_sifive_gpio0_base(ggpio);
20014a7a:	fdc42503          	lw	a0,-36(s0)
20014a7e:	a57ff0ef          	jal	ra,200144d4 <__metal_driver_sifive_gpio0_base>
20014a82:	87aa                	mv	a5,a0
20014a84:	fef42623          	sw	a5,-20(s0)
/home/jubayer/Documents/riscV/EnergyHarvestingDeviceTestbed/FE310/blinky/freedom-metal/src/drivers/sifive_gpio0.c:91

    __METAL_ACCESS_ONCE((__metal_io_u32 *)(base + METAL_SIFIVE_GPIO0_PORT)) =
        __METAL_ACCESS_ONCE(
20014a88:	fec42783          	lw	a5,-20(s0)
20014a8c:	07b1                	addi	a5,a5,12
20014a8e:	4398                	lw	a4,0(a5)
/home/jubayer/Documents/riscV/EnergyHarvestingDeviceTestbed/FE310/blinky/freedom-metal/src/drivers/sifive_gpio0.c:92
            (__metal_io_u32 *)(base + METAL_SIFIVE_GPIO0_PORT)) ^
20014a90:	fd842783          	lw	a5,-40(s0)
/home/jubayer/Documents/riscV/EnergyHarvestingDeviceTestbed/FE310/blinky/freedom-metal/src/drivers/sifive_gpio0.c:90
    __METAL_ACCESS_ONCE((__metal_io_u32 *)(base + METAL_SIFIVE_GPIO0_PORT)) =
20014a94:	fec42683          	lw	a3,-20(s0)
20014a98:	06b1                	addi	a3,a3,12
/home/jubayer/Documents/riscV/EnergyHarvestingDeviceTestbed/FE310/blinky/freedom-metal/src/drivers/sifive_gpio0.c:92
            (__metal_io_u32 *)(base + METAL_SIFIVE_GPIO0_PORT)) ^
20014a9a:	8fb9                	xor	a5,a5,a4
/home/jubayer/Documents/riscV/EnergyHarvestingDeviceTestbed/FE310/blinky/freedom-metal/src/drivers/sifive_gpio0.c:90
    __METAL_ACCESS_ONCE((__metal_io_u32 *)(base + METAL_SIFIVE_GPIO0_PORT)) =
20014a9c:	c29c                	sw	a5,0(a3)
/home/jubayer/Documents/riscV/EnergyHarvestingDeviceTestbed/FE310/blinky/freedom-metal/src/drivers/sifive_gpio0.c:95
        value;

    return 0;
20014a9e:	4781                	li	a5,0
/home/jubayer/Documents/riscV/EnergyHarvestingDeviceTestbed/FE310/blinky/freedom-metal/src/drivers/sifive_gpio0.c:96
}
20014aa0:	853e                	mv	a0,a5
20014aa2:	50b2                	lw	ra,44(sp)
20014aa4:	5422                	lw	s0,40(sp)
20014aa6:	6145                	addi	sp,sp,48
20014aa8:	8082                	ret

20014aaa <__metal_driver_sifive_gpio0_enable_io>:
__metal_driver_sifive_gpio0_enable_io():
/home/jubayer/Documents/riscV/EnergyHarvestingDeviceTestbed/FE310/blinky/freedom-metal/src/drivers/sifive_gpio0.c:99

int __metal_driver_sifive_gpio0_enable_io(struct metal_gpio *ggpio, long source,
                                          long dest) {
20014aaa:	7179                	addi	sp,sp,-48
20014aac:	d606                	sw	ra,44(sp)
20014aae:	d422                	sw	s0,40(sp)
20014ab0:	1800                	addi	s0,sp,48
20014ab2:	fca42e23          	sw	a0,-36(s0)
20014ab6:	fcb42c23          	sw	a1,-40(s0)
20014aba:	fcc42a23          	sw	a2,-44(s0)
/home/jubayer/Documents/riscV/EnergyHarvestingDeviceTestbed/FE310/blinky/freedom-metal/src/drivers/sifive_gpio0.c:100
    long base = __metal_driver_sifive_gpio0_base(ggpio);
20014abe:	fdc42503          	lw	a0,-36(s0)
20014ac2:	a13ff0ef          	jal	ra,200144d4 <__metal_driver_sifive_gpio0_base>
20014ac6:	87aa                	mv	a5,a0
20014ac8:	fef42623          	sw	a5,-20(s0)
/home/jubayer/Documents/riscV/EnergyHarvestingDeviceTestbed/FE310/blinky/freedom-metal/src/drivers/sifive_gpio0.c:103

    __METAL_ACCESS_ONCE(
        (__metal_io_u32 *)(base + METAL_SIFIVE_GPIO0_IOF_SEL)) |= source;
20014acc:	fec42783          	lw	a5,-20(s0)
20014ad0:	03c78793          	addi	a5,a5,60
20014ad4:	4398                	lw	a4,0(a5)
20014ad6:	fd842783          	lw	a5,-40(s0)
20014ada:	fec42683          	lw	a3,-20(s0)
20014ade:	03c68693          	addi	a3,a3,60
20014ae2:	8fd9                	or	a5,a5,a4
20014ae4:	c29c                	sw	a5,0(a3)
/home/jubayer/Documents/riscV/EnergyHarvestingDeviceTestbed/FE310/blinky/freedom-metal/src/drivers/sifive_gpio0.c:104
    __METAL_ACCESS_ONCE((__metal_io_u32 *)(base + METAL_SIFIVE_GPIO0_IOF_EN)) |=
20014ae6:	fec42783          	lw	a5,-20(s0)
20014aea:	03878793          	addi	a5,a5,56
20014aee:	4398                	lw	a4,0(a5)
20014af0:	fd442783          	lw	a5,-44(s0)
20014af4:	fec42683          	lw	a3,-20(s0)
20014af8:	03868693          	addi	a3,a3,56
20014afc:	8fd9                	or	a5,a5,a4
20014afe:	c29c                	sw	a5,0(a3)
/home/jubayer/Documents/riscV/EnergyHarvestingDeviceTestbed/FE310/blinky/freedom-metal/src/drivers/sifive_gpio0.c:107
        dest;

    return 0;
20014b00:	4781                	li	a5,0
/home/jubayer/Documents/riscV/EnergyHarvestingDeviceTestbed/FE310/blinky/freedom-metal/src/drivers/sifive_gpio0.c:108
}
20014b02:	853e                	mv	a0,a5
20014b04:	50b2                	lw	ra,44(sp)
20014b06:	5422                	lw	s0,40(sp)
20014b08:	6145                	addi	sp,sp,48
20014b0a:	8082                	ret

20014b0c <__metal_driver_sifive_gpio0_disable_io>:
__metal_driver_sifive_gpio0_disable_io():
/home/jubayer/Documents/riscV/EnergyHarvestingDeviceTestbed/FE310/blinky/freedom-metal/src/drivers/sifive_gpio0.c:111

int __metal_driver_sifive_gpio0_disable_io(struct metal_gpio *ggpio,
                                           long source) {
20014b0c:	7179                	addi	sp,sp,-48
20014b0e:	d606                	sw	ra,44(sp)
20014b10:	d422                	sw	s0,40(sp)
20014b12:	1800                	addi	s0,sp,48
20014b14:	fca42e23          	sw	a0,-36(s0)
20014b18:	fcb42c23          	sw	a1,-40(s0)
/home/jubayer/Documents/riscV/EnergyHarvestingDeviceTestbed/FE310/blinky/freedom-metal/src/drivers/sifive_gpio0.c:112
    long base = __metal_driver_sifive_gpio0_base(ggpio);
20014b1c:	fdc42503          	lw	a0,-36(s0)
20014b20:	9b5ff0ef          	jal	ra,200144d4 <__metal_driver_sifive_gpio0_base>
20014b24:	87aa                	mv	a5,a0
20014b26:	fef42623          	sw	a5,-20(s0)
/home/jubayer/Documents/riscV/EnergyHarvestingDeviceTestbed/FE310/blinky/freedom-metal/src/drivers/sifive_gpio0.c:114

    __METAL_ACCESS_ONCE((__metal_io_u32 *)(base + METAL_SIFIVE_GPIO0_IOF_EN)) &=
20014b2a:	fec42783          	lw	a5,-20(s0)
20014b2e:	03878793          	addi	a5,a5,56
20014b32:	439c                	lw	a5,0(a5)
/home/jubayer/Documents/riscV/EnergyHarvestingDeviceTestbed/FE310/blinky/freedom-metal/src/drivers/sifive_gpio0.c:115
        ~source;
20014b34:	fd842703          	lw	a4,-40(s0)
20014b38:	fff74713          	not	a4,a4
20014b3c:	86ba                	mv	a3,a4
/home/jubayer/Documents/riscV/EnergyHarvestingDeviceTestbed/FE310/blinky/freedom-metal/src/drivers/sifive_gpio0.c:114
    __METAL_ACCESS_ONCE((__metal_io_u32 *)(base + METAL_SIFIVE_GPIO0_IOF_EN)) &=
20014b3e:	fec42703          	lw	a4,-20(s0)
20014b42:	03870713          	addi	a4,a4,56
20014b46:	8ff5                	and	a5,a5,a3
20014b48:	c31c                	sw	a5,0(a4)
/home/jubayer/Documents/riscV/EnergyHarvestingDeviceTestbed/FE310/blinky/freedom-metal/src/drivers/sifive_gpio0.c:117

    return 0;
20014b4a:	4781                	li	a5,0
/home/jubayer/Documents/riscV/EnergyHarvestingDeviceTestbed/FE310/blinky/freedom-metal/src/drivers/sifive_gpio0.c:118
}
20014b4c:	853e                	mv	a0,a5
20014b4e:	50b2                	lw	ra,44(sp)
20014b50:	5422                	lw	s0,40(sp)
20014b52:	6145                	addi	sp,sp,48
20014b54:	8082                	ret

20014b56 <__metal_driver_sifive_gpio0_config_int>:
__metal_driver_sifive_gpio0_config_int():
/home/jubayer/Documents/riscV/EnergyHarvestingDeviceTestbed/FE310/blinky/freedom-metal/src/drivers/sifive_gpio0.c:121

int __metal_driver_sifive_gpio0_config_int(struct metal_gpio *ggpio,
                                           long source, int intr_type) {
20014b56:	7179                	addi	sp,sp,-48
20014b58:	d606                	sw	ra,44(sp)
20014b5a:	d422                	sw	s0,40(sp)
20014b5c:	1800                	addi	s0,sp,48
20014b5e:	fca42e23          	sw	a0,-36(s0)
20014b62:	fcb42c23          	sw	a1,-40(s0)
20014b66:	fcc42a23          	sw	a2,-44(s0)
/home/jubayer/Documents/riscV/EnergyHarvestingDeviceTestbed/FE310/blinky/freedom-metal/src/drivers/sifive_gpio0.c:122
    long base = __metal_driver_sifive_gpio0_base(ggpio);
20014b6a:	fdc42503          	lw	a0,-36(s0)
20014b6e:	967ff0ef          	jal	ra,200144d4 <__metal_driver_sifive_gpio0_base>
20014b72:	87aa                	mv	a5,a0
20014b74:	fef42623          	sw	a5,-20(s0)
20014b78:	fd442703          	lw	a4,-44(s0)
20014b7c:	479d                	li	a5,7
20014b7e:	1ce7e963          	bltu	a5,a4,20014d50 <__metal_driver_sifive_gpio0_config_int+0x1fa>
20014b82:	fd442783          	lw	a5,-44(s0)
20014b86:	00279713          	slli	a4,a5,0x2
20014b8a:	200117b7          	lui	a5,0x20011
20014b8e:	dbc78793          	addi	a5,a5,-580 # 20010dbc <__metal_driver_vtable_sifive_fe310_g000_pll+0xc>
20014b92:	97ba                	add	a5,a5,a4
20014b94:	439c                	lw	a5,0(a5)
20014b96:	8782                	jr	a5
/home/jubayer/Documents/riscV/EnergyHarvestingDeviceTestbed/FE310/blinky/freedom-metal/src/drivers/sifive_gpio0.c:127

    switch (intr_type) {
    case METAL_GPIO_INT_DISABLE:
        __METAL_ACCESS_ONCE(
            (__metal_io_u32 *)(base + METAL_SIFIVE_GPIO0_RISE_IE)) &= ~source;
20014b98:	fec42783          	lw	a5,-20(s0)
20014b9c:	07e1                	addi	a5,a5,24
20014b9e:	439c                	lw	a5,0(a5)
20014ba0:	fd842703          	lw	a4,-40(s0)
20014ba4:	fff74713          	not	a4,a4
20014ba8:	86ba                	mv	a3,a4
20014baa:	fec42703          	lw	a4,-20(s0)
20014bae:	0761                	addi	a4,a4,24
20014bb0:	8ff5                	and	a5,a5,a3
20014bb2:	c31c                	sw	a5,0(a4)
/home/jubayer/Documents/riscV/EnergyHarvestingDeviceTestbed/FE310/blinky/freedom-metal/src/drivers/sifive_gpio0.c:129
        __METAL_ACCESS_ONCE(
            (__metal_io_u32 *)(base + METAL_SIFIVE_GPIO0_FALL_IE)) &= ~source;
20014bb4:	fec42783          	lw	a5,-20(s0)
20014bb8:	02078793          	addi	a5,a5,32
20014bbc:	439c                	lw	a5,0(a5)
20014bbe:	fd842703          	lw	a4,-40(s0)
20014bc2:	fff74713          	not	a4,a4
20014bc6:	86ba                	mv	a3,a4
20014bc8:	fec42703          	lw	a4,-20(s0)
20014bcc:	02070713          	addi	a4,a4,32
20014bd0:	8ff5                	and	a5,a5,a3
20014bd2:	c31c                	sw	a5,0(a4)
/home/jubayer/Documents/riscV/EnergyHarvestingDeviceTestbed/FE310/blinky/freedom-metal/src/drivers/sifive_gpio0.c:131
        __METAL_ACCESS_ONCE(
            (__metal_io_u32 *)(base + METAL_SIFIVE_GPIO0_HIGH_IE)) &= ~source;
20014bd4:	fec42783          	lw	a5,-20(s0)
20014bd8:	02878793          	addi	a5,a5,40
20014bdc:	439c                	lw	a5,0(a5)
20014bde:	fd842703          	lw	a4,-40(s0)
20014be2:	fff74713          	not	a4,a4
20014be6:	86ba                	mv	a3,a4
20014be8:	fec42703          	lw	a4,-20(s0)
20014bec:	02870713          	addi	a4,a4,40
20014bf0:	8ff5                	and	a5,a5,a3
20014bf2:	c31c                	sw	a5,0(a4)
/home/jubayer/Documents/riscV/EnergyHarvestingDeviceTestbed/FE310/blinky/freedom-metal/src/drivers/sifive_gpio0.c:133
        __METAL_ACCESS_ONCE(
            (__metal_io_u32 *)(base + METAL_SIFIVE_GPIO0_LOW_IE)) &= ~source;
20014bf4:	fec42783          	lw	a5,-20(s0)
20014bf8:	03078793          	addi	a5,a5,48
20014bfc:	439c                	lw	a5,0(a5)
20014bfe:	fd842703          	lw	a4,-40(s0)
20014c02:	fff74713          	not	a4,a4
20014c06:	86ba                	mv	a3,a4
20014c08:	fec42703          	lw	a4,-20(s0)
20014c0c:	03070713          	addi	a4,a4,48
20014c10:	8ff5                	and	a5,a5,a3
20014c12:	c31c                	sw	a5,0(a4)
/home/jubayer/Documents/riscV/EnergyHarvestingDeviceTestbed/FE310/blinky/freedom-metal/src/drivers/sifive_gpio0.c:134
        break;
20014c14:	aa35                	j	20014d50 <__metal_driver_sifive_gpio0_config_int+0x1fa>
/home/jubayer/Documents/riscV/EnergyHarvestingDeviceTestbed/FE310/blinky/freedom-metal/src/drivers/sifive_gpio0.c:137
    case METAL_GPIO_INT_RISING:
        __METAL_ACCESS_ONCE(
            (__metal_io_u32 *)(base + METAL_SIFIVE_GPIO0_RISE_IE)) |= source;
20014c16:	fec42783          	lw	a5,-20(s0)
20014c1a:	07e1                	addi	a5,a5,24
20014c1c:	4398                	lw	a4,0(a5)
20014c1e:	fd842783          	lw	a5,-40(s0)
20014c22:	fec42683          	lw	a3,-20(s0)
20014c26:	06e1                	addi	a3,a3,24
20014c28:	8fd9                	or	a5,a5,a4
20014c2a:	c29c                	sw	a5,0(a3)
/home/jubayer/Documents/riscV/EnergyHarvestingDeviceTestbed/FE310/blinky/freedom-metal/src/drivers/sifive_gpio0.c:138
        break;
20014c2c:	a215                	j	20014d50 <__metal_driver_sifive_gpio0_config_int+0x1fa>
/home/jubayer/Documents/riscV/EnergyHarvestingDeviceTestbed/FE310/blinky/freedom-metal/src/drivers/sifive_gpio0.c:141
    case METAL_GPIO_INT_FALLING:
        __METAL_ACCESS_ONCE(
            (__metal_io_u32 *)(base + METAL_SIFIVE_GPIO0_FALL_IE)) |= source;
20014c2e:	fec42783          	lw	a5,-20(s0)
20014c32:	02078793          	addi	a5,a5,32
20014c36:	4398                	lw	a4,0(a5)
20014c38:	fd842783          	lw	a5,-40(s0)
20014c3c:	fec42683          	lw	a3,-20(s0)
20014c40:	02068693          	addi	a3,a3,32
20014c44:	8fd9                	or	a5,a5,a4
20014c46:	c29c                	sw	a5,0(a3)
/home/jubayer/Documents/riscV/EnergyHarvestingDeviceTestbed/FE310/blinky/freedom-metal/src/drivers/sifive_gpio0.c:142
        break;
20014c48:	a221                	j	20014d50 <__metal_driver_sifive_gpio0_config_int+0x1fa>
/home/jubayer/Documents/riscV/EnergyHarvestingDeviceTestbed/FE310/blinky/freedom-metal/src/drivers/sifive_gpio0.c:145
    case METAL_GPIO_INT_BOTH_EDGE:
        __METAL_ACCESS_ONCE(
            (__metal_io_u32 *)(base + METAL_SIFIVE_GPIO0_RISE_IE)) |= source;
20014c4a:	fec42783          	lw	a5,-20(s0)
20014c4e:	07e1                	addi	a5,a5,24
20014c50:	4398                	lw	a4,0(a5)
20014c52:	fd842783          	lw	a5,-40(s0)
20014c56:	fec42683          	lw	a3,-20(s0)
20014c5a:	06e1                	addi	a3,a3,24
20014c5c:	8fd9                	or	a5,a5,a4
20014c5e:	c29c                	sw	a5,0(a3)
/home/jubayer/Documents/riscV/EnergyHarvestingDeviceTestbed/FE310/blinky/freedom-metal/src/drivers/sifive_gpio0.c:147
        __METAL_ACCESS_ONCE(
            (__metal_io_u32 *)(base + METAL_SIFIVE_GPIO0_FALL_IE)) |= source;
20014c60:	fec42783          	lw	a5,-20(s0)
20014c64:	02078793          	addi	a5,a5,32
20014c68:	4398                	lw	a4,0(a5)
20014c6a:	fd842783          	lw	a5,-40(s0)
20014c6e:	fec42683          	lw	a3,-20(s0)
20014c72:	02068693          	addi	a3,a3,32
20014c76:	8fd9                	or	a5,a5,a4
20014c78:	c29c                	sw	a5,0(a3)
/home/jubayer/Documents/riscV/EnergyHarvestingDeviceTestbed/FE310/blinky/freedom-metal/src/drivers/sifive_gpio0.c:148
        break;
20014c7a:	a8d9                	j	20014d50 <__metal_driver_sifive_gpio0_config_int+0x1fa>
/home/jubayer/Documents/riscV/EnergyHarvestingDeviceTestbed/FE310/blinky/freedom-metal/src/drivers/sifive_gpio0.c:151
    case METAL_GPIO_INT_HIGH:
        __METAL_ACCESS_ONCE(
            (__metal_io_u32 *)(base + METAL_SIFIVE_GPIO0_HIGH_IE)) |= source;
20014c7c:	fec42783          	lw	a5,-20(s0)
20014c80:	02878793          	addi	a5,a5,40
20014c84:	4398                	lw	a4,0(a5)
20014c86:	fd842783          	lw	a5,-40(s0)
20014c8a:	fec42683          	lw	a3,-20(s0)
20014c8e:	02868693          	addi	a3,a3,40
20014c92:	8fd9                	or	a5,a5,a4
20014c94:	c29c                	sw	a5,0(a3)
/home/jubayer/Documents/riscV/EnergyHarvestingDeviceTestbed/FE310/blinky/freedom-metal/src/drivers/sifive_gpio0.c:152
        break;
20014c96:	a86d                	j	20014d50 <__metal_driver_sifive_gpio0_config_int+0x1fa>
/home/jubayer/Documents/riscV/EnergyHarvestingDeviceTestbed/FE310/blinky/freedom-metal/src/drivers/sifive_gpio0.c:155
    case METAL_GPIO_INT_LOW:
        __METAL_ACCESS_ONCE(
            (__metal_io_u32 *)(base + METAL_SIFIVE_GPIO0_LOW_IE)) |= source;
20014c98:	fec42783          	lw	a5,-20(s0)
20014c9c:	03078793          	addi	a5,a5,48
20014ca0:	4398                	lw	a4,0(a5)
20014ca2:	fd842783          	lw	a5,-40(s0)
20014ca6:	fec42683          	lw	a3,-20(s0)
20014caa:	03068693          	addi	a3,a3,48
20014cae:	8fd9                	or	a5,a5,a4
20014cb0:	c29c                	sw	a5,0(a3)
/home/jubayer/Documents/riscV/EnergyHarvestingDeviceTestbed/FE310/blinky/freedom-metal/src/drivers/sifive_gpio0.c:156
        break;
20014cb2:	a879                	j	20014d50 <__metal_driver_sifive_gpio0_config_int+0x1fa>
/home/jubayer/Documents/riscV/EnergyHarvestingDeviceTestbed/FE310/blinky/freedom-metal/src/drivers/sifive_gpio0.c:159
    case METAL_GPIO_INT_BOTH_LEVEL:
        __METAL_ACCESS_ONCE(
            (__metal_io_u32 *)(base + METAL_SIFIVE_GPIO0_HIGH_IE)) |= source;
20014cb4:	fec42783          	lw	a5,-20(s0)
20014cb8:	02878793          	addi	a5,a5,40
20014cbc:	4398                	lw	a4,0(a5)
20014cbe:	fd842783          	lw	a5,-40(s0)
20014cc2:	fec42683          	lw	a3,-20(s0)
20014cc6:	02868693          	addi	a3,a3,40
20014cca:	8fd9                	or	a5,a5,a4
20014ccc:	c29c                	sw	a5,0(a3)
/home/jubayer/Documents/riscV/EnergyHarvestingDeviceTestbed/FE310/blinky/freedom-metal/src/drivers/sifive_gpio0.c:161
        __METAL_ACCESS_ONCE(
            (__metal_io_u32 *)(base + METAL_SIFIVE_GPIO0_LOW_IE)) |= source;
20014cce:	fec42783          	lw	a5,-20(s0)
20014cd2:	03078793          	addi	a5,a5,48
20014cd6:	4398                	lw	a4,0(a5)
20014cd8:	fd842783          	lw	a5,-40(s0)
20014cdc:	fec42683          	lw	a3,-20(s0)
20014ce0:	03068693          	addi	a3,a3,48
20014ce4:	8fd9                	or	a5,a5,a4
20014ce6:	c29c                	sw	a5,0(a3)
/home/jubayer/Documents/riscV/EnergyHarvestingDeviceTestbed/FE310/blinky/freedom-metal/src/drivers/sifive_gpio0.c:162
        break;
20014ce8:	a0a5                	j	20014d50 <__metal_driver_sifive_gpio0_config_int+0x1fa>
/home/jubayer/Documents/riscV/EnergyHarvestingDeviceTestbed/FE310/blinky/freedom-metal/src/drivers/sifive_gpio0.c:165
    case METAL_GPIO_INT_MAX:
        __METAL_ACCESS_ONCE(
            (__metal_io_u32 *)(base + METAL_SIFIVE_GPIO0_RISE_IE)) |= source;
20014cea:	fec42783          	lw	a5,-20(s0)
20014cee:	07e1                	addi	a5,a5,24
20014cf0:	4398                	lw	a4,0(a5)
20014cf2:	fd842783          	lw	a5,-40(s0)
20014cf6:	fec42683          	lw	a3,-20(s0)
20014cfa:	06e1                	addi	a3,a3,24
20014cfc:	8fd9                	or	a5,a5,a4
20014cfe:	c29c                	sw	a5,0(a3)
/home/jubayer/Documents/riscV/EnergyHarvestingDeviceTestbed/FE310/blinky/freedom-metal/src/drivers/sifive_gpio0.c:167
        __METAL_ACCESS_ONCE(
            (__metal_io_u32 *)(base + METAL_SIFIVE_GPIO0_FALL_IE)) |= source;
20014d00:	fec42783          	lw	a5,-20(s0)
20014d04:	02078793          	addi	a5,a5,32
20014d08:	4398                	lw	a4,0(a5)
20014d0a:	fd842783          	lw	a5,-40(s0)
20014d0e:	fec42683          	lw	a3,-20(s0)
20014d12:	02068693          	addi	a3,a3,32
20014d16:	8fd9                	or	a5,a5,a4
20014d18:	c29c                	sw	a5,0(a3)
/home/jubayer/Documents/riscV/EnergyHarvestingDeviceTestbed/FE310/blinky/freedom-metal/src/drivers/sifive_gpio0.c:169
        __METAL_ACCESS_ONCE(
            (__metal_io_u32 *)(base + METAL_SIFIVE_GPIO0_HIGH_IE)) |= source;
20014d1a:	fec42783          	lw	a5,-20(s0)
20014d1e:	02878793          	addi	a5,a5,40
20014d22:	4398                	lw	a4,0(a5)
20014d24:	fd842783          	lw	a5,-40(s0)
20014d28:	fec42683          	lw	a3,-20(s0)
20014d2c:	02868693          	addi	a3,a3,40
20014d30:	8fd9                	or	a5,a5,a4
20014d32:	c29c                	sw	a5,0(a3)
/home/jubayer/Documents/riscV/EnergyHarvestingDeviceTestbed/FE310/blinky/freedom-metal/src/drivers/sifive_gpio0.c:171
        __METAL_ACCESS_ONCE(
            (__metal_io_u32 *)(base + METAL_SIFIVE_GPIO0_LOW_IE)) |= source;
20014d34:	fec42783          	lw	a5,-20(s0)
20014d38:	03078793          	addi	a5,a5,48
20014d3c:	4398                	lw	a4,0(a5)
20014d3e:	fd842783          	lw	a5,-40(s0)
20014d42:	fec42683          	lw	a3,-20(s0)
20014d46:	03068693          	addi	a3,a3,48
20014d4a:	8fd9                	or	a5,a5,a4
20014d4c:	c29c                	sw	a5,0(a3)
/home/jubayer/Documents/riscV/EnergyHarvestingDeviceTestbed/FE310/blinky/freedom-metal/src/drivers/sifive_gpio0.c:172
        break;
20014d4e:	0001                	nop
/home/jubayer/Documents/riscV/EnergyHarvestingDeviceTestbed/FE310/blinky/freedom-metal/src/drivers/sifive_gpio0.c:174
    }
    return 0;
20014d50:	4781                	li	a5,0
/home/jubayer/Documents/riscV/EnergyHarvestingDeviceTestbed/FE310/blinky/freedom-metal/src/drivers/sifive_gpio0.c:175
}
20014d52:	853e                	mv	a0,a5
20014d54:	50b2                	lw	ra,44(sp)
20014d56:	5422                	lw	s0,40(sp)
20014d58:	6145                	addi	sp,sp,48
20014d5a:	8082                	ret

20014d5c <__metal_driver_sifive_gpio0_clear_int>:
__metal_driver_sifive_gpio0_clear_int():
/home/jubayer/Documents/riscV/EnergyHarvestingDeviceTestbed/FE310/blinky/freedom-metal/src/drivers/sifive_gpio0.c:178

int __metal_driver_sifive_gpio0_clear_int(struct metal_gpio *ggpio, long source,
                                          int intr_type) {
20014d5c:	7179                	addi	sp,sp,-48
20014d5e:	d606                	sw	ra,44(sp)
20014d60:	d422                	sw	s0,40(sp)
20014d62:	1800                	addi	s0,sp,48
20014d64:	fca42e23          	sw	a0,-36(s0)
20014d68:	fcb42c23          	sw	a1,-40(s0)
20014d6c:	fcc42a23          	sw	a2,-44(s0)
/home/jubayer/Documents/riscV/EnergyHarvestingDeviceTestbed/FE310/blinky/freedom-metal/src/drivers/sifive_gpio0.c:179
    long base = __metal_driver_sifive_gpio0_base(ggpio);
20014d70:	fdc42503          	lw	a0,-36(s0)
20014d74:	f60ff0ef          	jal	ra,200144d4 <__metal_driver_sifive_gpio0_base>
20014d78:	87aa                	mv	a5,a0
20014d7a:	fef42623          	sw	a5,-20(s0)
20014d7e:	fd442703          	lw	a4,-44(s0)
20014d82:	479d                	li	a5,7
20014d84:	14e7ea63          	bltu	a5,a4,20014ed8 <__metal_driver_sifive_gpio0_clear_int+0x17c>
20014d88:	fd442783          	lw	a5,-44(s0)
20014d8c:	00279713          	slli	a4,a5,0x2
20014d90:	200117b7          	lui	a5,0x20011
20014d94:	ddc78793          	addi	a5,a5,-548 # 20010ddc <__metal_driver_vtable_sifive_fe310_g000_pll+0x2c>
20014d98:	97ba                	add	a5,a5,a4
20014d9a:	439c                	lw	a5,0(a5)
20014d9c:	8782                	jr	a5
/home/jubayer/Documents/riscV/EnergyHarvestingDeviceTestbed/FE310/blinky/freedom-metal/src/drivers/sifive_gpio0.c:184

    switch (intr_type) {
    case METAL_GPIO_INT_RISING:
        __METAL_ACCESS_ONCE(
            (__metal_io_u32 *)(base + METAL_SIFIVE_GPIO0_RISE_IP)) |= source;
20014d9e:	fec42783          	lw	a5,-20(s0)
20014da2:	07f1                	addi	a5,a5,28
20014da4:	4398                	lw	a4,0(a5)
20014da6:	fd842783          	lw	a5,-40(s0)
20014daa:	fec42683          	lw	a3,-20(s0)
20014dae:	06f1                	addi	a3,a3,28
20014db0:	8fd9                	or	a5,a5,a4
20014db2:	c29c                	sw	a5,0(a3)
/home/jubayer/Documents/riscV/EnergyHarvestingDeviceTestbed/FE310/blinky/freedom-metal/src/drivers/sifive_gpio0.c:185
        break;
20014db4:	a215                	j	20014ed8 <__metal_driver_sifive_gpio0_clear_int+0x17c>
/home/jubayer/Documents/riscV/EnergyHarvestingDeviceTestbed/FE310/blinky/freedom-metal/src/drivers/sifive_gpio0.c:188
    case METAL_GPIO_INT_FALLING:
        __METAL_ACCESS_ONCE(
            (__metal_io_u32 *)(base + METAL_SIFIVE_GPIO0_FALL_IP)) |= source;
20014db6:	fec42783          	lw	a5,-20(s0)
20014dba:	02478793          	addi	a5,a5,36
20014dbe:	4398                	lw	a4,0(a5)
20014dc0:	fd842783          	lw	a5,-40(s0)
20014dc4:	fec42683          	lw	a3,-20(s0)
20014dc8:	02468693          	addi	a3,a3,36
20014dcc:	8fd9                	or	a5,a5,a4
20014dce:	c29c                	sw	a5,0(a3)
/home/jubayer/Documents/riscV/EnergyHarvestingDeviceTestbed/FE310/blinky/freedom-metal/src/drivers/sifive_gpio0.c:189
        break;
20014dd0:	a221                	j	20014ed8 <__metal_driver_sifive_gpio0_clear_int+0x17c>
/home/jubayer/Documents/riscV/EnergyHarvestingDeviceTestbed/FE310/blinky/freedom-metal/src/drivers/sifive_gpio0.c:192
    case METAL_GPIO_INT_BOTH_EDGE:
        __METAL_ACCESS_ONCE(
            (__metal_io_u32 *)(base + METAL_SIFIVE_GPIO0_RISE_IP)) |= source;
20014dd2:	fec42783          	lw	a5,-20(s0)
20014dd6:	07f1                	addi	a5,a5,28
20014dd8:	4398                	lw	a4,0(a5)
20014dda:	fd842783          	lw	a5,-40(s0)
20014dde:	fec42683          	lw	a3,-20(s0)
20014de2:	06f1                	addi	a3,a3,28
20014de4:	8fd9                	or	a5,a5,a4
20014de6:	c29c                	sw	a5,0(a3)
/home/jubayer/Documents/riscV/EnergyHarvestingDeviceTestbed/FE310/blinky/freedom-metal/src/drivers/sifive_gpio0.c:194
        __METAL_ACCESS_ONCE(
            (__metal_io_u32 *)(base + METAL_SIFIVE_GPIO0_FALL_IP)) |= source;
20014de8:	fec42783          	lw	a5,-20(s0)
20014dec:	02478793          	addi	a5,a5,36
20014df0:	4398                	lw	a4,0(a5)
20014df2:	fd842783          	lw	a5,-40(s0)
20014df6:	fec42683          	lw	a3,-20(s0)
20014dfa:	02468693          	addi	a3,a3,36
20014dfe:	8fd9                	or	a5,a5,a4
20014e00:	c29c                	sw	a5,0(a3)
/home/jubayer/Documents/riscV/EnergyHarvestingDeviceTestbed/FE310/blinky/freedom-metal/src/drivers/sifive_gpio0.c:195
        break;
20014e02:	a8d9                	j	20014ed8 <__metal_driver_sifive_gpio0_clear_int+0x17c>
/home/jubayer/Documents/riscV/EnergyHarvestingDeviceTestbed/FE310/blinky/freedom-metal/src/drivers/sifive_gpio0.c:198
    case METAL_GPIO_INT_HIGH:
        __METAL_ACCESS_ONCE(
            (__metal_io_u32 *)(base + METAL_SIFIVE_GPIO0_HIGH_IP)) |= source;
20014e04:	fec42783          	lw	a5,-20(s0)
20014e08:	02c78793          	addi	a5,a5,44
20014e0c:	4398                	lw	a4,0(a5)
20014e0e:	fd842783          	lw	a5,-40(s0)
20014e12:	fec42683          	lw	a3,-20(s0)
20014e16:	02c68693          	addi	a3,a3,44
20014e1a:	8fd9                	or	a5,a5,a4
20014e1c:	c29c                	sw	a5,0(a3)
/home/jubayer/Documents/riscV/EnergyHarvestingDeviceTestbed/FE310/blinky/freedom-metal/src/drivers/sifive_gpio0.c:199
        break;
20014e1e:	a86d                	j	20014ed8 <__metal_driver_sifive_gpio0_clear_int+0x17c>
/home/jubayer/Documents/riscV/EnergyHarvestingDeviceTestbed/FE310/blinky/freedom-metal/src/drivers/sifive_gpio0.c:202
    case METAL_GPIO_INT_LOW:
        __METAL_ACCESS_ONCE(
            (__metal_io_u32 *)(base + METAL_SIFIVE_GPIO0_LOW_IP)) |= source;
20014e20:	fec42783          	lw	a5,-20(s0)
20014e24:	03478793          	addi	a5,a5,52
20014e28:	4398                	lw	a4,0(a5)
20014e2a:	fd842783          	lw	a5,-40(s0)
20014e2e:	fec42683          	lw	a3,-20(s0)
20014e32:	03468693          	addi	a3,a3,52
20014e36:	8fd9                	or	a5,a5,a4
20014e38:	c29c                	sw	a5,0(a3)
/home/jubayer/Documents/riscV/EnergyHarvestingDeviceTestbed/FE310/blinky/freedom-metal/src/drivers/sifive_gpio0.c:203
        break;
20014e3a:	a879                	j	20014ed8 <__metal_driver_sifive_gpio0_clear_int+0x17c>
/home/jubayer/Documents/riscV/EnergyHarvestingDeviceTestbed/FE310/blinky/freedom-metal/src/drivers/sifive_gpio0.c:206
    case METAL_GPIO_INT_BOTH_LEVEL:
        __METAL_ACCESS_ONCE(
            (__metal_io_u32 *)(base + METAL_SIFIVE_GPIO0_HIGH_IP)) |= source;
20014e3c:	fec42783          	lw	a5,-20(s0)
20014e40:	02c78793          	addi	a5,a5,44
20014e44:	4398                	lw	a4,0(a5)
20014e46:	fd842783          	lw	a5,-40(s0)
20014e4a:	fec42683          	lw	a3,-20(s0)
20014e4e:	02c68693          	addi	a3,a3,44
20014e52:	8fd9                	or	a5,a5,a4
20014e54:	c29c                	sw	a5,0(a3)
/home/jubayer/Documents/riscV/EnergyHarvestingDeviceTestbed/FE310/blinky/freedom-metal/src/drivers/sifive_gpio0.c:208
        __METAL_ACCESS_ONCE(
            (__metal_io_u32 *)(base + METAL_SIFIVE_GPIO0_LOW_IP)) |= source;
20014e56:	fec42783          	lw	a5,-20(s0)
20014e5a:	03478793          	addi	a5,a5,52
20014e5e:	4398                	lw	a4,0(a5)
20014e60:	fd842783          	lw	a5,-40(s0)
20014e64:	fec42683          	lw	a3,-20(s0)
20014e68:	03468693          	addi	a3,a3,52
20014e6c:	8fd9                	or	a5,a5,a4
20014e6e:	c29c                	sw	a5,0(a3)
/home/jubayer/Documents/riscV/EnergyHarvestingDeviceTestbed/FE310/blinky/freedom-metal/src/drivers/sifive_gpio0.c:209
        break;
20014e70:	a0a5                	j	20014ed8 <__metal_driver_sifive_gpio0_clear_int+0x17c>
/home/jubayer/Documents/riscV/EnergyHarvestingDeviceTestbed/FE310/blinky/freedom-metal/src/drivers/sifive_gpio0.c:212
    case METAL_GPIO_INT_MAX:
        __METAL_ACCESS_ONCE(
            (__metal_io_u32 *)(base + METAL_SIFIVE_GPIO0_RISE_IP)) |= source;
20014e72:	fec42783          	lw	a5,-20(s0)
20014e76:	07f1                	addi	a5,a5,28
20014e78:	4398                	lw	a4,0(a5)
20014e7a:	fd842783          	lw	a5,-40(s0)
20014e7e:	fec42683          	lw	a3,-20(s0)
20014e82:	06f1                	addi	a3,a3,28
20014e84:	8fd9                	or	a5,a5,a4
20014e86:	c29c                	sw	a5,0(a3)
/home/jubayer/Documents/riscV/EnergyHarvestingDeviceTestbed/FE310/blinky/freedom-metal/src/drivers/sifive_gpio0.c:214
        __METAL_ACCESS_ONCE(
            (__metal_io_u32 *)(base + METAL_SIFIVE_GPIO0_FALL_IP)) |= source;
20014e88:	fec42783          	lw	a5,-20(s0)
20014e8c:	02478793          	addi	a5,a5,36
20014e90:	4398                	lw	a4,0(a5)
20014e92:	fd842783          	lw	a5,-40(s0)
20014e96:	fec42683          	lw	a3,-20(s0)
20014e9a:	02468693          	addi	a3,a3,36
20014e9e:	8fd9                	or	a5,a5,a4
20014ea0:	c29c                	sw	a5,0(a3)
/home/jubayer/Documents/riscV/EnergyHarvestingDeviceTestbed/FE310/blinky/freedom-metal/src/drivers/sifive_gpio0.c:216
        __METAL_ACCESS_ONCE(
            (__metal_io_u32 *)(base + METAL_SIFIVE_GPIO0_HIGH_IP)) |= source;
20014ea2:	fec42783          	lw	a5,-20(s0)
20014ea6:	02c78793          	addi	a5,a5,44
20014eaa:	4398                	lw	a4,0(a5)
20014eac:	fd842783          	lw	a5,-40(s0)
20014eb0:	fec42683          	lw	a3,-20(s0)
20014eb4:	02c68693          	addi	a3,a3,44
20014eb8:	8fd9                	or	a5,a5,a4
20014eba:	c29c                	sw	a5,0(a3)
/home/jubayer/Documents/riscV/EnergyHarvestingDeviceTestbed/FE310/blinky/freedom-metal/src/drivers/sifive_gpio0.c:218
        __METAL_ACCESS_ONCE(
            (__metal_io_u32 *)(base + METAL_SIFIVE_GPIO0_LOW_IP)) |= source;
20014ebc:	fec42783          	lw	a5,-20(s0)
20014ec0:	03478793          	addi	a5,a5,52
20014ec4:	4398                	lw	a4,0(a5)
20014ec6:	fd842783          	lw	a5,-40(s0)
20014eca:	fec42683          	lw	a3,-20(s0)
20014ece:	03468693          	addi	a3,a3,52
20014ed2:	8fd9                	or	a5,a5,a4
20014ed4:	c29c                	sw	a5,0(a3)
/home/jubayer/Documents/riscV/EnergyHarvestingDeviceTestbed/FE310/blinky/freedom-metal/src/drivers/sifive_gpio0.c:219
        break;
20014ed6:	0001                	nop
/home/jubayer/Documents/riscV/EnergyHarvestingDeviceTestbed/FE310/blinky/freedom-metal/src/drivers/sifive_gpio0.c:221
    }
    return 0;
20014ed8:	4781                	li	a5,0
/home/jubayer/Documents/riscV/EnergyHarvestingDeviceTestbed/FE310/blinky/freedom-metal/src/drivers/sifive_gpio0.c:222
}
20014eda:	853e                	mv	a0,a5
20014edc:	50b2                	lw	ra,44(sp)
20014ede:	5422                	lw	s0,40(sp)
20014ee0:	6145                	addi	sp,sp,48
20014ee2:	8082                	ret

20014ee4 <__metal_driver_gpio_interrupt_controller>:
__metal_driver_gpio_interrupt_controller():
/home/jubayer/Documents/riscV/EnergyHarvestingDeviceTestbed/FE310/blinky/freedom-metal/src/drivers/sifive_gpio0.c:225

struct metal_interrupt *
__metal_driver_gpio_interrupt_controller(struct metal_gpio *gpio) {
20014ee4:	1101                	addi	sp,sp,-32
20014ee6:	ce06                	sw	ra,28(sp)
20014ee8:	cc22                	sw	s0,24(sp)
20014eea:	1000                	addi	s0,sp,32
20014eec:	fea42623          	sw	a0,-20(s0)
/home/jubayer/Documents/riscV/EnergyHarvestingDeviceTestbed/FE310/blinky/freedom-metal/src/drivers/sifive_gpio0.c:226
    return __metal_driver_sifive_gpio0_interrupt_parent(gpio);
20014ef0:	fec42503          	lw	a0,-20(s0)
20014ef4:	e06ff0ef          	jal	ra,200144fa <__metal_driver_sifive_gpio0_interrupt_parent>
20014ef8:	87aa                	mv	a5,a0
/home/jubayer/Documents/riscV/EnergyHarvestingDeviceTestbed/FE310/blinky/freedom-metal/src/drivers/sifive_gpio0.c:227
}
20014efa:	853e                	mv	a0,a5
20014efc:	40f2                	lw	ra,28(sp)
20014efe:	4462                	lw	s0,24(sp)
20014f00:	6105                	addi	sp,sp,32
20014f02:	8082                	ret

20014f04 <__metal_driver_gpio_get_interrupt_id>:
__metal_driver_gpio_get_interrupt_id():
/home/jubayer/Documents/riscV/EnergyHarvestingDeviceTestbed/FE310/blinky/freedom-metal/src/drivers/sifive_gpio0.c:229

int __metal_driver_gpio_get_interrupt_id(struct metal_gpio *gpio, int pin) {
20014f04:	7179                	addi	sp,sp,-48
20014f06:	d606                	sw	ra,44(sp)
20014f08:	d422                	sw	s0,40(sp)
20014f0a:	1800                	addi	s0,sp,48
20014f0c:	fca42e23          	sw	a0,-36(s0)
20014f10:	fcb42c23          	sw	a1,-40(s0)
/home/jubayer/Documents/riscV/EnergyHarvestingDeviceTestbed/FE310/blinky/freedom-metal/src/drivers/sifive_gpio0.c:231
    int irq;
    irq = __metal_driver_sifive_gpio0_interrupt_lines(gpio, pin);
20014f14:	fd842583          	lw	a1,-40(s0)
20014f18:	fdc42503          	lw	a0,-36(s0)
20014f1c:	e08ff0ef          	jal	ra,20014524 <__metal_driver_sifive_gpio0_interrupt_lines>
20014f20:	fea42623          	sw	a0,-20(s0)
/home/jubayer/Documents/riscV/EnergyHarvestingDeviceTestbed/FE310/blinky/freedom-metal/src/drivers/sifive_gpio0.c:232
    return irq;
20014f24:	fec42783          	lw	a5,-20(s0)
/home/jubayer/Documents/riscV/EnergyHarvestingDeviceTestbed/FE310/blinky/freedom-metal/src/drivers/sifive_gpio0.c:233
}
20014f28:	853e                	mv	a0,a5
20014f2a:	50b2                	lw	ra,44(sp)
20014f2c:	5422                	lw	s0,40(sp)
20014f2e:	6145                	addi	sp,sp,48
20014f30:	8082                	ret

20014f32 <_metal_clock_call_all_callbacks>:
_metal_clock_call_all_callbacks():
/home/jubayer/Documents/riscV/EnergyHarvestingDeviceTestbed/FE310/blinky/freedom-metal/metal/clock.h:50

/*!
 * @brief Call all callbacks in the linked list, if any are registered
 */
__inline__ void
_metal_clock_call_all_callbacks(const metal_clock_callback *const list) {
20014f32:	7179                	addi	sp,sp,-48
20014f34:	d606                	sw	ra,44(sp)
20014f36:	d422                	sw	s0,40(sp)
20014f38:	1800                	addi	s0,sp,48
20014f3a:	fca42e23          	sw	a0,-36(s0)
/home/jubayer/Documents/riscV/EnergyHarvestingDeviceTestbed/FE310/blinky/freedom-metal/metal/clock.h:51
    const metal_clock_callback *current = list;
20014f3e:	fdc42783          	lw	a5,-36(s0)
20014f42:	fef42623          	sw	a5,-20(s0)
/home/jubayer/Documents/riscV/EnergyHarvestingDeviceTestbed/FE310/blinky/freedom-metal/metal/clock.h:52
    while (current) {
20014f46:	a831                	j	20014f62 <_metal_clock_call_all_callbacks+0x30>
/home/jubayer/Documents/riscV/EnergyHarvestingDeviceTestbed/FE310/blinky/freedom-metal/metal/clock.h:53
        current->callback(current->priv);
20014f48:	fec42783          	lw	a5,-20(s0)
20014f4c:	4398                	lw	a4,0(a5)
20014f4e:	fec42783          	lw	a5,-20(s0)
20014f52:	43dc                	lw	a5,4(a5)
20014f54:	853e                	mv	a0,a5
20014f56:	9702                	jalr	a4
/home/jubayer/Documents/riscV/EnergyHarvestingDeviceTestbed/FE310/blinky/freedom-metal/metal/clock.h:54
        current = current->_next;
20014f58:	fec42783          	lw	a5,-20(s0)
20014f5c:	479c                	lw	a5,8(a5)
20014f5e:	fef42623          	sw	a5,-20(s0)
/home/jubayer/Documents/riscV/EnergyHarvestingDeviceTestbed/FE310/blinky/freedom-metal/metal/clock.h:52
    while (current) {
20014f62:	fec42783          	lw	a5,-20(s0)
20014f66:	f3ed                	bnez	a5,20014f48 <_metal_clock_call_all_callbacks+0x16>
/home/jubayer/Documents/riscV/EnergyHarvestingDeviceTestbed/FE310/blinky/freedom-metal/metal/clock.h:56
    }
}
20014f68:	0001                	nop
20014f6a:	0001                	nop
20014f6c:	50b2                	lw	ra,44(sp)
20014f6e:	5422                	lw	s0,40(sp)
20014f70:	6145                	addi	sp,sp,48
20014f72:	8082                	ret

20014f74 <metal_clock_get_rate_hz>:
metal_clock_get_rate_hz():
/home/jubayer/Documents/riscV/EnergyHarvestingDeviceTestbed/FE310/blinky/freedom-metal/metal/clock.h:110
 * @brief Returns the current rate of the given clock
 *
 * @param clk The handle for the clock
 * @return The current rate of the clock in Hz
 */
__inline__ long metal_clock_get_rate_hz(const struct metal_clock *clk) {
20014f74:	1101                	addi	sp,sp,-32
20014f76:	ce06                	sw	ra,28(sp)
20014f78:	cc22                	sw	s0,24(sp)
20014f7a:	1000                	addi	s0,sp,32
20014f7c:	fea42623          	sw	a0,-20(s0)
/home/jubayer/Documents/riscV/EnergyHarvestingDeviceTestbed/FE310/blinky/freedom-metal/metal/clock.h:111
    return clk->vtable->get_rate_hz(clk);
20014f80:	fec42783          	lw	a5,-20(s0)
20014f84:	439c                	lw	a5,0(a5)
20014f86:	439c                	lw	a5,0(a5)
20014f88:	fec42503          	lw	a0,-20(s0)
20014f8c:	9782                	jalr	a5
20014f8e:	87aa                	mv	a5,a0
/home/jubayer/Documents/riscV/EnergyHarvestingDeviceTestbed/FE310/blinky/freedom-metal/metal/clock.h:112
}
20014f90:	853e                	mv	a0,a5
20014f92:	40f2                	lw	ra,28(sp)
20014f94:	4462                	lw	s0,24(sp)
20014f96:	6105                	addi	sp,sp,32
20014f98:	8082                	ret

20014f9a <metal_clock_set_rate_hz>:
metal_clock_set_rate_hz():
/home/jubayer/Documents/riscV/EnergyHarvestingDeviceTestbed/FE310/blinky/freedom-metal/metal/clock.h:128
 * could be anything!
 *
 * Prior to and after the rate change of the clock, this will call the
 * registered pre- and post-rate change callbacks.
 */
__inline__ long metal_clock_set_rate_hz(struct metal_clock *clk, long hz) {
20014f9a:	7179                	addi	sp,sp,-48
20014f9c:	d606                	sw	ra,44(sp)
20014f9e:	d422                	sw	s0,40(sp)
20014fa0:	1800                	addi	s0,sp,48
20014fa2:	fca42e23          	sw	a0,-36(s0)
20014fa6:	fcb42c23          	sw	a1,-40(s0)
/home/jubayer/Documents/riscV/EnergyHarvestingDeviceTestbed/FE310/blinky/freedom-metal/metal/clock.h:129
    _metal_clock_call_all_callbacks(clk->_pre_rate_change_callback);
20014faa:	fdc42783          	lw	a5,-36(s0)
20014fae:	43dc                	lw	a5,4(a5)
20014fb0:	853e                	mv	a0,a5
20014fb2:	3741                	jal	20014f32 <_metal_clock_call_all_callbacks>
/home/jubayer/Documents/riscV/EnergyHarvestingDeviceTestbed/FE310/blinky/freedom-metal/metal/clock.h:131

    long out = clk->vtable->set_rate_hz(clk, hz);
20014fb4:	fdc42783          	lw	a5,-36(s0)
20014fb8:	439c                	lw	a5,0(a5)
20014fba:	43dc                	lw	a5,4(a5)
20014fbc:	fd842583          	lw	a1,-40(s0)
20014fc0:	fdc42503          	lw	a0,-36(s0)
20014fc4:	9782                	jalr	a5
20014fc6:	fea42623          	sw	a0,-20(s0)
/home/jubayer/Documents/riscV/EnergyHarvestingDeviceTestbed/FE310/blinky/freedom-metal/metal/clock.h:133

    _metal_clock_call_all_callbacks(clk->_post_rate_change_callback);
20014fca:	fdc42783          	lw	a5,-36(s0)
20014fce:	479c                	lw	a5,8(a5)
20014fd0:	853e                	mv	a0,a5
20014fd2:	3785                	jal	20014f32 <_metal_clock_call_all_callbacks>
/home/jubayer/Documents/riscV/EnergyHarvestingDeviceTestbed/FE310/blinky/freedom-metal/metal/clock.h:135

    return out;
20014fd4:	fec42783          	lw	a5,-20(s0)
/home/jubayer/Documents/riscV/EnergyHarvestingDeviceTestbed/FE310/blinky/freedom-metal/metal/clock.h:136
}
20014fd8:	853e                	mv	a0,a5
20014fda:	50b2                	lw	ra,44(sp)
20014fdc:	5422                	lw	s0,40(sp)
20014fde:	6145                	addi	sp,sp,48
20014fe0:	8082                	ret

20014fe2 <metal_cpu_get_timer>:
metal_cpu_get_timer():
/home/jubayer/Documents/riscV/EnergyHarvestingDeviceTestbed/FE310/blinky/freedom-metal/metal/cpu.h:73
 * Get the value of the cycle count timer for a given CPU
 *
 * @param cpu The CPU device handle
 * @return The value of the CPU cycle count timer
 */
__inline__ unsigned long long metal_cpu_get_timer(struct metal_cpu *cpu) {
20014fe2:	1101                	addi	sp,sp,-32
20014fe4:	ce06                	sw	ra,28(sp)
20014fe6:	cc22                	sw	s0,24(sp)
20014fe8:	1000                	addi	s0,sp,32
20014fea:	fea42623          	sw	a0,-20(s0)
/home/jubayer/Documents/riscV/EnergyHarvestingDeviceTestbed/FE310/blinky/freedom-metal/metal/cpu.h:74
    return cpu->vtable->mcycle_get(cpu);
20014fee:	fec42783          	lw	a5,-20(s0)
20014ff2:	439c                	lw	a5,0(a5)
20014ff4:	439c                	lw	a5,0(a5)
20014ff6:	fec42503          	lw	a0,-20(s0)
20014ffa:	9782                	jalr	a5
20014ffc:	872a                	mv	a4,a0
20014ffe:	87ae                	mv	a5,a1
/home/jubayer/Documents/riscV/EnergyHarvestingDeviceTestbed/FE310/blinky/freedom-metal/metal/cpu.h:75
}
20015000:	853a                	mv	a0,a4
20015002:	85be                	mv	a1,a5
20015004:	40f2                	lw	ra,28(sp)
20015006:	4462                	lw	s0,24(sp)
20015008:	6105                	addi	sp,sp,32
2001500a:	8082                	ret

2001500c <metal_cpu_get_timebase>:
metal_cpu_get_timebase():
/home/jubayer/Documents/riscV/EnergyHarvestingDeviceTestbed/FE310/blinky/freedom-metal/metal/cpu.h:84
 * Get the value of the timebase of the cycle count timer
 *
 * @param cpu The CPU device handle
 * @return The value of the cycle count timer timebase
 */
__inline__ unsigned long long metal_cpu_get_timebase(struct metal_cpu *cpu) {
2001500c:	1101                	addi	sp,sp,-32
2001500e:	ce06                	sw	ra,28(sp)
20015010:	cc22                	sw	s0,24(sp)
20015012:	1000                	addi	s0,sp,32
20015014:	fea42623          	sw	a0,-20(s0)
/home/jubayer/Documents/riscV/EnergyHarvestingDeviceTestbed/FE310/blinky/freedom-metal/metal/cpu.h:85
    return cpu->vtable->timebase_get(cpu);
20015018:	fec42783          	lw	a5,-20(s0)
2001501c:	439c                	lw	a5,0(a5)
2001501e:	43dc                	lw	a5,4(a5)
20015020:	fec42503          	lw	a0,-20(s0)
20015024:	9782                	jalr	a5
20015026:	872a                	mv	a4,a0
20015028:	87ae                	mv	a5,a1
/home/jubayer/Documents/riscV/EnergyHarvestingDeviceTestbed/FE310/blinky/freedom-metal/metal/cpu.h:86
}
2001502a:	853a                	mv	a0,a4
2001502c:	85be                	mv	a1,a5
2001502e:	40f2                	lw	ra,28(sp)
20015030:	4462                	lw	s0,24(sp)
20015032:	6105                	addi	sp,sp,32
20015034:	8082                	ret

20015036 <metal_cpu_interrupt_controller>:
metal_cpu_interrupt_controller():
/home/jubayer/Documents/riscV/EnergyHarvestingDeviceTestbed/FE310/blinky/freedom-metal/metal/cpu.h:224
 *
 * @param cpu The CPU device handle
 * @return The handle for the CPU interrupt controller
 */
__inline__ struct metal_interrupt *
metal_cpu_interrupt_controller(struct metal_cpu *cpu) {
20015036:	1101                	addi	sp,sp,-32
20015038:	ce06                	sw	ra,28(sp)
2001503a:	cc22                	sw	s0,24(sp)
2001503c:	1000                	addi	s0,sp,32
2001503e:	fea42623          	sw	a0,-20(s0)
/home/jubayer/Documents/riscV/EnergyHarvestingDeviceTestbed/FE310/blinky/freedom-metal/metal/cpu.h:225
    return cpu->vtable->controller_interrupt(cpu);
20015042:	fec42783          	lw	a5,-20(s0)
20015046:	439c                	lw	a5,0(a5)
20015048:	57dc                	lw	a5,44(a5)
2001504a:	fec42503          	lw	a0,-20(s0)
2001504e:	9782                	jalr	a5
20015050:	87aa                	mv	a5,a0
/home/jubayer/Documents/riscV/EnergyHarvestingDeviceTestbed/FE310/blinky/freedom-metal/metal/cpu.h:226
}
20015052:	853e                	mv	a0,a5
20015054:	40f2                	lw	ra,28(sp)
20015056:	4462                	lw	s0,24(sp)
20015058:	6105                	addi	sp,sp,32
2001505a:	8082                	ret

2001505c <metal_cpu_get>:
metal_cpu_get():
/home/jubayer/Documents/riscV/EnergyHarvestingDeviceTestbed/FE310/blinky/freedom-metal/src/cpu.c:7
/* SPDX-License-Identifier: Apache-2.0 */

#include <metal/cpu.h>
#include <metal/machine.h>

struct metal_cpu *metal_cpu_get(unsigned int hartid) {
2001505c:	1101                	addi	sp,sp,-32
2001505e:	ce22                	sw	s0,28(sp)
20015060:	1000                	addi	s0,sp,32
20015062:	fea42623          	sw	a0,-20(s0)
/home/jubayer/Documents/riscV/EnergyHarvestingDeviceTestbed/FE310/blinky/freedom-metal/src/cpu.c:8
    if (hartid < __METAL_DT_MAX_HARTS) {
20015066:	fec42783          	lw	a5,-20(s0)
2001506a:	eb99                	bnez	a5,20015080 <metal_cpu_get+0x24>
/home/jubayer/Documents/riscV/EnergyHarvestingDeviceTestbed/FE310/blinky/freedom-metal/src/cpu.c:9
        return (struct metal_cpu *)__metal_cpu_table[hartid];
2001506c:	800017b7          	lui	a5,0x80001
20015070:	fec42703          	lw	a4,-20(s0)
20015074:	070a                	slli	a4,a4,0x2
20015076:	a6478793          	addi	a5,a5,-1436 # 80000a64 <__global_pointer$+0xfffff804>
2001507a:	97ba                	add	a5,a5,a4
2001507c:	439c                	lw	a5,0(a5)
2001507e:	a011                	j	20015082 <metal_cpu_get+0x26>
/home/jubayer/Documents/riscV/EnergyHarvestingDeviceTestbed/FE310/blinky/freedom-metal/src/cpu.c:11
    }
    return NULL;
20015080:	4781                	li	a5,0
/home/jubayer/Documents/riscV/EnergyHarvestingDeviceTestbed/FE310/blinky/freedom-metal/src/cpu.c:12
}
20015082:	853e                	mv	a0,a5
20015084:	4472                	lw	s0,28(sp)
20015086:	6105                	addi	sp,sp,32
20015088:	8082                	ret

2001508a <metal_cpu_get_current_hartid>:
metal_cpu_get_current_hartid():
/home/jubayer/Documents/riscV/EnergyHarvestingDeviceTestbed/FE310/blinky/freedom-metal/src/cpu.c:14

int metal_cpu_get_current_hartid() {
2001508a:	1101                	addi	sp,sp,-32
2001508c:	ce22                	sw	s0,28(sp)
2001508e:	1000                	addi	s0,sp,32
/home/jubayer/Documents/riscV/EnergyHarvestingDeviceTestbed/FE310/blinky/freedom-metal/src/cpu.c:17
#ifdef __riscv
    int mhartid;
    __asm__ volatile("csrr %0, mhartid" : "=r"(mhartid));
20015090:	f14027f3          	csrr	a5,mhartid
20015094:	fef42623          	sw	a5,-20(s0)
/home/jubayer/Documents/riscV/EnergyHarvestingDeviceTestbed/FE310/blinky/freedom-metal/src/cpu.c:18
    return mhartid;
20015098:	fec42783          	lw	a5,-20(s0)
/home/jubayer/Documents/riscV/EnergyHarvestingDeviceTestbed/FE310/blinky/freedom-metal/src/cpu.c:20
#endif
}
2001509c:	853e                	mv	a0,a5
2001509e:	4472                	lw	s0,28(sp)
200150a0:	6105                	addi	sp,sp,32
200150a2:	8082                	ret

200150a4 <metal_shutdown>:
metal_shutdown():
/home/jubayer/Documents/riscV/EnergyHarvestingDeviceTestbed/FE310/blinky/freedom-metal/src/shutdown.c:17
    __metal_shutdown_exit(__METAL_DT_SHUTDOWN_HANDLE, code);
}
#else
#pragma message(                                                               \
    "There is no defined shutdown mechanism, metal_shutdown() will spin.")
void metal_shutdown(int code) {
200150a4:	1101                	addi	sp,sp,-32
200150a6:	ce22                	sw	s0,28(sp)
200150a8:	1000                	addi	s0,sp,32
200150aa:	fea42623          	sw	a0,-20(s0)
/home/jubayer/Documents/riscV/EnergyHarvestingDeviceTestbed/FE310/blinky/freedom-metal/src/shutdown.c:19 (discriminator 1)
    while (1) {
        __asm__ volatile("nop");
200150ae:	0001                	nop
200150b0:	bffd                	j	200150ae <metal_shutdown+0xa>
	...

20015100 <__metal_vector_table>:
IRQ_0():
/home/jubayer/Documents/riscV/EnergyHarvestingDeviceTestbed/FE310/blinky/freedom-metal/src/vector.S:96
#endif
.option norvc
.global __metal_vector_table
__metal_vector_table:
IRQ_0:
        j metal_interrupt_vector_handler
20015100:	9fffc06f          	j	20011afe <metal_interrupt_vector_handler>

20015104 <IRQ_1>:
IRQ_1():
/home/jubayer/Documents/riscV/EnergyHarvestingDeviceTestbed/FE310/blinky/freedom-metal/src/vector.S:98
IRQ_1:
        j metal_interrupt_vector_handler
20015104:	9fbfc06f          	j	20011afe <metal_interrupt_vector_handler>

20015108 <IRQ_2>:
IRQ_2():
/home/jubayer/Documents/riscV/EnergyHarvestingDeviceTestbed/FE310/blinky/freedom-metal/src/vector.S:100
IRQ_2:
        j metal_interrupt_vector_handler
20015108:	9f7fc06f          	j	20011afe <metal_interrupt_vector_handler>

2001510c <IRQ_3>:
IRQ_3():
/home/jubayer/Documents/riscV/EnergyHarvestingDeviceTestbed/FE310/blinky/freedom-metal/src/vector.S:102
IRQ_3:
        j metal_software_interrupt_vector_handler
2001510c:	a21fc06f          	j	20011b2c <metal_software_interrupt_vector_handler>

20015110 <IRQ_4>:
IRQ_4():
/home/jubayer/Documents/riscV/EnergyHarvestingDeviceTestbed/FE310/blinky/freedom-metal/src/vector.S:104
IRQ_4:
        j metal_interrupt_vector_handler
20015110:	9effc06f          	j	20011afe <metal_interrupt_vector_handler>

20015114 <IRQ_5>:
IRQ_5():
/home/jubayer/Documents/riscV/EnergyHarvestingDeviceTestbed/FE310/blinky/freedom-metal/src/vector.S:106
IRQ_5:
        j metal_interrupt_vector_handler
20015114:	9ebfc06f          	j	20011afe <metal_interrupt_vector_handler>

20015118 <IRQ_6>:
IRQ_6():
/home/jubayer/Documents/riscV/EnergyHarvestingDeviceTestbed/FE310/blinky/freedom-metal/src/vector.S:108
IRQ_6:
        j metal_interrupt_vector_handler
20015118:	9e7fc06f          	j	20011afe <metal_interrupt_vector_handler>

2001511c <IRQ_7>:
IRQ_7():
/home/jubayer/Documents/riscV/EnergyHarvestingDeviceTestbed/FE310/blinky/freedom-metal/src/vector.S:110
IRQ_7:
        j metal_timer_interrupt_vector_handler
2001511c:	b0bfc06f          	j	20011c26 <metal_timer_interrupt_vector_handler>

20015120 <IRQ_8>:
IRQ_8():
/home/jubayer/Documents/riscV/EnergyHarvestingDeviceTestbed/FE310/blinky/freedom-metal/src/vector.S:112
IRQ_8:
        j metal_interrupt_vector_handler
20015120:	9dffc06f          	j	20011afe <metal_interrupt_vector_handler>

20015124 <IRQ_9>:
IRQ_9():
/home/jubayer/Documents/riscV/EnergyHarvestingDeviceTestbed/FE310/blinky/freedom-metal/src/vector.S:114
IRQ_9:
        j metal_interrupt_vector_handler
20015124:	9dbfc06f          	j	20011afe <metal_interrupt_vector_handler>

20015128 <IRQ_10>:
IRQ_10():
/home/jubayer/Documents/riscV/EnergyHarvestingDeviceTestbed/FE310/blinky/freedom-metal/src/vector.S:116
IRQ_10:
        j metal_interrupt_vector_handler
20015128:	9d7fc06f          	j	20011afe <metal_interrupt_vector_handler>

2001512c <IRQ_11>:
IRQ_11():
/home/jubayer/Documents/riscV/EnergyHarvestingDeviceTestbed/FE310/blinky/freedom-metal/src/vector.S:118
IRQ_11:
        j metal_interrupt_vector_handler
2001512c:	9d3fc06f          	j	20011afe <metal_interrupt_vector_handler>

20015130 <IRQ_12>:
IRQ_12():
/home/jubayer/Documents/riscV/EnergyHarvestingDeviceTestbed/FE310/blinky/freedom-metal/src/vector.S:120
IRQ_12:
        j metal_interrupt_vector_handler
20015130:	9cffc06f          	j	20011afe <metal_interrupt_vector_handler>

20015134 <IRQ_13>:
IRQ_13():
/home/jubayer/Documents/riscV/EnergyHarvestingDeviceTestbed/FE310/blinky/freedom-metal/src/vector.S:122
IRQ_13:
        j metal_interrupt_vector_handler
20015134:	9cbfc06f          	j	20011afe <metal_interrupt_vector_handler>

20015138 <IRQ_14>:
IRQ_14():
/home/jubayer/Documents/riscV/EnergyHarvestingDeviceTestbed/FE310/blinky/freedom-metal/src/vector.S:124
IRQ_14:
        j metal_interrupt_vector_handler
20015138:	9c7fc06f          	j	20011afe <metal_interrupt_vector_handler>

2001513c <IRQ_15>:
IRQ_15():
/home/jubayer/Documents/riscV/EnergyHarvestingDeviceTestbed/FE310/blinky/freedom-metal/src/vector.S:126
IRQ_15:
        j metal_interrupt_vector_handler
2001513c:	9c3fc06f          	j	20011afe <metal_interrupt_vector_handler>

20015140 <IRQ_LC0>:
IRQ_LC0():
/home/jubayer/Documents/riscV/EnergyHarvestingDeviceTestbed/FE310/blinky/freedom-metal/src/vector.S:128
IRQ_LC0:
        j metal_lc0_interrupt_vector_handler
20015140:	e37fc06f          	j	20011f76 <metal_lc0_interrupt_vector_handler>

20015144 <IRQ_LC1>:
IRQ_LC1():
/home/jubayer/Documents/riscV/EnergyHarvestingDeviceTestbed/FE310/blinky/freedom-metal/src/vector.S:130
IRQ_LC1:
        j metal_lc1_interrupt_vector_handler
20015144:	ec9fc06f          	j	2001200c <metal_lc1_interrupt_vector_handler>

20015148 <IRQ_LC2>:
IRQ_LC2():
/home/jubayer/Documents/riscV/EnergyHarvestingDeviceTestbed/FE310/blinky/freedom-metal/src/vector.S:132
IRQ_LC2:
        j metal_lc2_interrupt_vector_handler
20015148:	f5bfc06f          	j	200120a2 <metal_lc2_interrupt_vector_handler>

2001514c <IRQ_LC3>:
IRQ_LC3():
/home/jubayer/Documents/riscV/EnergyHarvestingDeviceTestbed/FE310/blinky/freedom-metal/src/vector.S:134
IRQ_LC3:
        j metal_lc3_interrupt_vector_handler
2001514c:	fedfc06f          	j	20012138 <metal_lc3_interrupt_vector_handler>

20015150 <IRQ_LC4>:
IRQ_LC4():
/home/jubayer/Documents/riscV/EnergyHarvestingDeviceTestbed/FE310/blinky/freedom-metal/src/vector.S:136
IRQ_LC4:
        j metal_lc4_interrupt_vector_handler
20015150:	87efd06f          	j	200121ce <metal_lc4_interrupt_vector_handler>

20015154 <IRQ_LC5>:
IRQ_LC5():
/home/jubayer/Documents/riscV/EnergyHarvestingDeviceTestbed/FE310/blinky/freedom-metal/src/vector.S:138
IRQ_LC5:
        j metal_lc5_interrupt_vector_handler
20015154:	910fd06f          	j	20012264 <metal_lc5_interrupt_vector_handler>

20015158 <IRQ_LC6>:
IRQ_LC6():
/home/jubayer/Documents/riscV/EnergyHarvestingDeviceTestbed/FE310/blinky/freedom-metal/src/vector.S:140
IRQ_LC6:
        j metal_lc6_interrupt_vector_handler
20015158:	9a2fd06f          	j	200122fa <metal_lc6_interrupt_vector_handler>

2001515c <IRQ_LC7>:
IRQ_LC7():
/home/jubayer/Documents/riscV/EnergyHarvestingDeviceTestbed/FE310/blinky/freedom-metal/src/vector.S:142
IRQ_LC7:
        j metal_lc7_interrupt_vector_handler
2001515c:	a34fd06f          	j	20012390 <metal_lc7_interrupt_vector_handler>

20015160 <IRQ_LC8>:
IRQ_LC8():
/home/jubayer/Documents/riscV/EnergyHarvestingDeviceTestbed/FE310/blinky/freedom-metal/src/vector.S:144
IRQ_LC8:
        j metal_lc8_interrupt_vector_handler
20015160:	ac6fd06f          	j	20012426 <metal_lc8_interrupt_vector_handler>

20015164 <IRQ_LC9>:
IRQ_LC9():
/home/jubayer/Documents/riscV/EnergyHarvestingDeviceTestbed/FE310/blinky/freedom-metal/src/vector.S:146
IRQ_LC9:
        j metal_lc9_interrupt_vector_handler
20015164:	b58fd06f          	j	200124bc <metal_lc9_interrupt_vector_handler>

20015168 <IRQ_LC10>:
IRQ_LC10():
/home/jubayer/Documents/riscV/EnergyHarvestingDeviceTestbed/FE310/blinky/freedom-metal/src/vector.S:148
IRQ_LC10:
        j metal_lc10_interrupt_vector_handler
20015168:	beafd06f          	j	20012552 <metal_lc10_interrupt_vector_handler>

2001516c <IRQ_LC11>:
IRQ_LC11():
/home/jubayer/Documents/riscV/EnergyHarvestingDeviceTestbed/FE310/blinky/freedom-metal/src/vector.S:150
IRQ_LC11:
        j metal_lc11_interrupt_vector_handler
2001516c:	c7cfd06f          	j	200125e8 <metal_lc11_interrupt_vector_handler>

20015170 <IRQ_LC12>:
IRQ_LC12():
/home/jubayer/Documents/riscV/EnergyHarvestingDeviceTestbed/FE310/blinky/freedom-metal/src/vector.S:152
IRQ_LC12:
        j metal_lc12_interrupt_vector_handler
20015170:	d0efd06f          	j	2001267e <metal_lc12_interrupt_vector_handler>

20015174 <IRQ_LC13>:
IRQ_LC13():
/home/jubayer/Documents/riscV/EnergyHarvestingDeviceTestbed/FE310/blinky/freedom-metal/src/vector.S:154
IRQ_LC13:
        j metal_lc13_interrupt_vector_handler
20015174:	da0fd06f          	j	20012714 <metal_lc13_interrupt_vector_handler>

20015178 <IRQ_LC14>:
IRQ_LC14():
/home/jubayer/Documents/riscV/EnergyHarvestingDeviceTestbed/FE310/blinky/freedom-metal/src/vector.S:156
IRQ_LC14:
        j metal_lc14_interrupt_vector_handler
20015178:	e32fd06f          	j	200127aa <metal_lc14_interrupt_vector_handler>

2001517c <IRQ_LC15>:
IRQ_LC15():
/home/jubayer/Documents/riscV/EnergyHarvestingDeviceTestbed/FE310/blinky/freedom-metal/src/vector.S:158
IRQ_LC15:
        j metal_lc15_interrupt_vector_handler
2001517c:	ec4fd06f          	j	20012840 <metal_lc15_interrupt_vector_handler>

20015180 <__metal_driver_fixed_clock_rate>:
__metal_driver_fixed_clock_rate():
/home/jubayer/Documents/riscV/EnergyHarvestingDeviceTestbed/FE310/blinky/bsp/build/debug/./metal/machine.h:208
{
20015180:	1101                	addi	sp,sp,-32
20015182:	ce22                	sw	s0,28(sp)
20015184:	1000                	addi	s0,sp,32
20015186:	fea42623          	sw	a0,-20(s0)
/home/jubayer/Documents/riscV/EnergyHarvestingDeviceTestbed/FE310/blinky/bsp/build/debug/./metal/machine.h:209
	if ((uintptr_t)clock == (uintptr_t)&__metal_dt_clock_0) {
2001518a:	fec42703          	lw	a4,-20(s0)
2001518e:	800007b7          	lui	a5,0x80000
20015192:	06078793          	addi	a5,a5,96 # 80000060 <__global_pointer$+0xffffee00>
20015196:	00f71763          	bne	a4,a5,200151a4 <__metal_driver_fixed_clock_rate+0x24>
/home/jubayer/Documents/riscV/EnergyHarvestingDeviceTestbed/FE310/blinky/bsp/build/debug/./metal/machine.h:210
		return METAL_FIXED_CLOCK_0_CLOCK_FREQUENCY;
2001519a:	00f427b7          	lui	a5,0xf42
2001519e:	40078793          	addi	a5,a5,1024 # f42400 <__heap_size+0xf41c00>
200151a2:	a099                	j	200151e8 <__metal_driver_fixed_clock_rate+0x68>
/home/jubayer/Documents/riscV/EnergyHarvestingDeviceTestbed/FE310/blinky/bsp/build/debug/./metal/machine.h:212
	else if ((uintptr_t)clock == (uintptr_t)&__metal_dt_clock_2) {
200151a4:	fec42703          	lw	a4,-20(s0)
200151a8:	800007b7          	lui	a5,0x80000
200151ac:	06c78793          	addi	a5,a5,108 # 8000006c <__global_pointer$+0xffffee0c>
200151b0:	00f71763          	bne	a4,a5,200151be <__metal_driver_fixed_clock_rate+0x3e>
/home/jubayer/Documents/riscV/EnergyHarvestingDeviceTestbed/FE310/blinky/bsp/build/debug/./metal/machine.h:213
		return METAL_FIXED_CLOCK_2_CLOCK_FREQUENCY;
200151b4:	044aa7b7          	lui	a5,0x44aa
200151b8:	20078793          	addi	a5,a5,512 # 44aa200 <__heap_size+0x44a9a00>
200151bc:	a035                	j	200151e8 <__metal_driver_fixed_clock_rate+0x68>
/home/jubayer/Documents/riscV/EnergyHarvestingDeviceTestbed/FE310/blinky/bsp/build/debug/./metal/machine.h:215
	else if ((uintptr_t)clock == (uintptr_t)&__metal_dt_clock_5) {
200151be:	fec42703          	lw	a4,-20(s0)
200151c2:	800007b7          	lui	a5,0x80000
200151c6:	07878793          	addi	a5,a5,120 # 80000078 <__global_pointer$+0xffffee18>
200151ca:	00f71463          	bne	a4,a5,200151d2 <__metal_driver_fixed_clock_rate+0x52>
/home/jubayer/Documents/riscV/EnergyHarvestingDeviceTestbed/FE310/blinky/bsp/build/debug/./metal/machine.h:216
		return METAL_FIXED_CLOCK_5_CLOCK_FREQUENCY;
200151ce:	67a1                	lui	a5,0x8
200151d0:	a821                	j	200151e8 <__metal_driver_fixed_clock_rate+0x68>
/home/jubayer/Documents/riscV/EnergyHarvestingDeviceTestbed/FE310/blinky/bsp/build/debug/./metal/machine.h:218
	else if ((uintptr_t)clock == (uintptr_t)&__metal_dt_clock_6) {
200151d2:	fec42703          	lw	a4,-20(s0)
200151d6:	800007b7          	lui	a5,0x80000
200151da:	08478793          	addi	a5,a5,132 # 80000084 <__global_pointer$+0xffffee24>
200151de:	00f71463          	bne	a4,a5,200151e6 <__metal_driver_fixed_clock_rate+0x66>
/home/jubayer/Documents/riscV/EnergyHarvestingDeviceTestbed/FE310/blinky/bsp/build/debug/./metal/machine.h:219
		return METAL_FIXED_CLOCK_6_CLOCK_FREQUENCY;
200151e2:	67a1                	lui	a5,0x8
200151e4:	a011                	j	200151e8 <__metal_driver_fixed_clock_rate+0x68>
/home/jubayer/Documents/riscV/EnergyHarvestingDeviceTestbed/FE310/blinky/bsp/build/debug/./metal/machine.h:222
		return 0;
200151e6:	4781                	li	a5,0
/home/jubayer/Documents/riscV/EnergyHarvestingDeviceTestbed/FE310/blinky/bsp/build/debug/./metal/machine.h:224
}
200151e8:	853e                	mv	a0,a5
200151ea:	4472                	lw	s0,28(sp)
200151ec:	6105                	addi	sp,sp,32
200151ee:	8082                	ret

200151f0 <__metal_driver_fixed_clock_get_rate_hz>:
__metal_driver_fixed_clock_get_rate_hz():
/home/jubayer/Documents/riscV/EnergyHarvestingDeviceTestbed/FE310/blinky/freedom-metal/src/drivers/fixed-clock.c:12

#include <metal/drivers/fixed-clock.h>
#include <metal/machine.h>
#include <stddef.h>

long __metal_driver_fixed_clock_get_rate_hz(const struct metal_clock *gclk) {
200151f0:	1101                	addi	sp,sp,-32
200151f2:	ce06                	sw	ra,28(sp)
200151f4:	cc22                	sw	s0,24(sp)
200151f6:	1000                	addi	s0,sp,32
200151f8:	fea42623          	sw	a0,-20(s0)
/home/jubayer/Documents/riscV/EnergyHarvestingDeviceTestbed/FE310/blinky/freedom-metal/src/drivers/fixed-clock.c:13
    return __metal_driver_fixed_clock_rate(gclk);
200151fc:	fec42503          	lw	a0,-20(s0)
20015200:	3741                	jal	20015180 <__metal_driver_fixed_clock_rate>
20015202:	87aa                	mv	a5,a0
/home/jubayer/Documents/riscV/EnergyHarvestingDeviceTestbed/FE310/blinky/freedom-metal/src/drivers/fixed-clock.c:14
}
20015204:	853e                	mv	a0,a5
20015206:	40f2                	lw	ra,28(sp)
20015208:	4462                	lw	s0,24(sp)
2001520a:	6105                	addi	sp,sp,32
2001520c:	8082                	ret

2001520e <__metal_driver_fixed_clock_set_rate_hz>:
__metal_driver_fixed_clock_set_rate_hz():
/home/jubayer/Documents/riscV/EnergyHarvestingDeviceTestbed/FE310/blinky/freedom-metal/src/drivers/fixed-clock.c:17

long __metal_driver_fixed_clock_set_rate_hz(struct metal_clock *gclk,
                                            long target_hz) {
2001520e:	1101                	addi	sp,sp,-32
20015210:	ce06                	sw	ra,28(sp)
20015212:	cc22                	sw	s0,24(sp)
20015214:	1000                	addi	s0,sp,32
20015216:	fea42623          	sw	a0,-20(s0)
2001521a:	feb42423          	sw	a1,-24(s0)
/home/jubayer/Documents/riscV/EnergyHarvestingDeviceTestbed/FE310/blinky/freedom-metal/src/drivers/fixed-clock.c:18
    return __metal_driver_fixed_clock_get_rate_hz(gclk);
2001521e:	fec42503          	lw	a0,-20(s0)
20015222:	37f9                	jal	200151f0 <__metal_driver_fixed_clock_get_rate_hz>
20015224:	87aa                	mv	a5,a0
/home/jubayer/Documents/riscV/EnergyHarvestingDeviceTestbed/FE310/blinky/freedom-metal/src/drivers/fixed-clock.c:19
}
20015226:	853e                	mv	a0,a5
20015228:	40f2                	lw	ra,28(sp)
2001522a:	4462                	lw	s0,24(sp)
2001522c:	6105                	addi	sp,sp,32
2001522e:	8082                	ret

20015230 <metal_timer_get_cyclecount>:
metal_timer_get_cyclecount():
/home/jubayer/Documents/riscV/EnergyHarvestingDeviceTestbed/FE310/blinky/freedom-metal/src/timer.c:15
#endif

#if defined(__METAL_DT_MAX_HARTS)
/* This implementation serves as a small shim that interfaces with the first
 * timer on a system. */
int metal_timer_get_cyclecount(int hartid, unsigned long long *mcc) {
20015230:	7179                	addi	sp,sp,-48
20015232:	d606                	sw	ra,44(sp)
20015234:	d422                	sw	s0,40(sp)
20015236:	1800                	addi	s0,sp,48
20015238:	fca42e23          	sw	a0,-36(s0)
2001523c:	fcb42c23          	sw	a1,-40(s0)
/home/jubayer/Documents/riscV/EnergyHarvestingDeviceTestbed/FE310/blinky/freedom-metal/src/timer.c:16
    struct metal_cpu *cpu = metal_cpu_get(hartid);
20015240:	fdc42783          	lw	a5,-36(s0)
20015244:	853e                	mv	a0,a5
20015246:	3d19                	jal	2001505c <metal_cpu_get>
20015248:	fea42623          	sw	a0,-20(s0)
/home/jubayer/Documents/riscV/EnergyHarvestingDeviceTestbed/FE310/blinky/freedom-metal/src/timer.c:18

    if (cpu) {
2001524c:	fec42783          	lw	a5,-20(s0)
20015250:	cf81                	beqz	a5,20015268 <metal_timer_get_cyclecount+0x38>
/home/jubayer/Documents/riscV/EnergyHarvestingDeviceTestbed/FE310/blinky/freedom-metal/src/timer.c:19
        *mcc = metal_cpu_get_timer(cpu);
20015252:	fec42503          	lw	a0,-20(s0)
20015256:	3371                	jal	20014fe2 <metal_cpu_get_timer>
20015258:	872a                	mv	a4,a0
2001525a:	87ae                	mv	a5,a1
2001525c:	fd842683          	lw	a3,-40(s0)
20015260:	c298                	sw	a4,0(a3)
20015262:	c2dc                	sw	a5,4(a3)
/home/jubayer/Documents/riscV/EnergyHarvestingDeviceTestbed/FE310/blinky/freedom-metal/src/timer.c:20
        return 0;
20015264:	4781                	li	a5,0
20015266:	a011                	j	2001526a <metal_timer_get_cyclecount+0x3a>
/home/jubayer/Documents/riscV/EnergyHarvestingDeviceTestbed/FE310/blinky/freedom-metal/src/timer.c:22
    }
    return -1;
20015268:	57fd                	li	a5,-1
/home/jubayer/Documents/riscV/EnergyHarvestingDeviceTestbed/FE310/blinky/freedom-metal/src/timer.c:23
}
2001526a:	853e                	mv	a0,a5
2001526c:	50b2                	lw	ra,44(sp)
2001526e:	5422                	lw	s0,40(sp)
20015270:	6145                	addi	sp,sp,48
20015272:	8082                	ret

20015274 <metal_timer_get_timebase_frequency>:
metal_timer_get_timebase_frequency():
/home/jubayer/Documents/riscV/EnergyHarvestingDeviceTestbed/FE310/blinky/freedom-metal/src/timer.c:26

int metal_timer_get_timebase_frequency(int hartid,
                                       unsigned long long *timebase) {
20015274:	7179                	addi	sp,sp,-48
20015276:	d606                	sw	ra,44(sp)
20015278:	d422                	sw	s0,40(sp)
2001527a:	1800                	addi	s0,sp,48
2001527c:	fca42e23          	sw	a0,-36(s0)
20015280:	fcb42c23          	sw	a1,-40(s0)
/home/jubayer/Documents/riscV/EnergyHarvestingDeviceTestbed/FE310/blinky/freedom-metal/src/timer.c:27
    struct metal_cpu *cpu = metal_cpu_get(hartid);
20015284:	fdc42783          	lw	a5,-36(s0)
20015288:	853e                	mv	a0,a5
2001528a:	3bc9                	jal	2001505c <metal_cpu_get>
2001528c:	fea42623          	sw	a0,-20(s0)
/home/jubayer/Documents/riscV/EnergyHarvestingDeviceTestbed/FE310/blinky/freedom-metal/src/timer.c:29

    if (cpu) {
20015290:	fec42783          	lw	a5,-20(s0)
20015294:	cf81                	beqz	a5,200152ac <metal_timer_get_timebase_frequency+0x38>
/home/jubayer/Documents/riscV/EnergyHarvestingDeviceTestbed/FE310/blinky/freedom-metal/src/timer.c:30
        *timebase = metal_cpu_get_timebase(cpu);
20015296:	fec42503          	lw	a0,-20(s0)
2001529a:	3b8d                	jal	2001500c <metal_cpu_get_timebase>
2001529c:	872a                	mv	a4,a0
2001529e:	87ae                	mv	a5,a1
200152a0:	fd842683          	lw	a3,-40(s0)
200152a4:	c298                	sw	a4,0(a3)
200152a6:	c2dc                	sw	a5,4(a3)
/home/jubayer/Documents/riscV/EnergyHarvestingDeviceTestbed/FE310/blinky/freedom-metal/src/timer.c:31
        return 0;
200152a8:	4781                	li	a5,0
200152aa:	a011                	j	200152ae <metal_timer_get_timebase_frequency+0x3a>
/home/jubayer/Documents/riscV/EnergyHarvestingDeviceTestbed/FE310/blinky/freedom-metal/src/timer.c:33
    }
    return -1;
200152ac:	57fd                	li	a5,-1
/home/jubayer/Documents/riscV/EnergyHarvestingDeviceTestbed/FE310/blinky/freedom-metal/src/timer.c:34
}
200152ae:	853e                	mv	a0,a5
200152b0:	50b2                	lw	ra,44(sp)
200152b2:	5422                	lw	s0,40(sp)
200152b4:	6145                	addi	sp,sp,48
200152b6:	8082                	ret

200152b8 <muldiv>:
muldiv():
/home/jubayer/Documents/riscV/EnergyHarvestingDeviceTestbed/FE310/blinky/freedom-metal/gloss/sys_times.c:27
 * in 64 bits. CLOCKS_PER_SEC is defined as 1,000,000, so we just need
 * timebase to be less than about 4,000,000,000,000 (4 trillion).
 */

static inline unsigned long long
muldiv(unsigned long long v, unsigned long long num, unsigned long long den) {
200152b8:	7139                	addi	sp,sp,-64
200152ba:	de06                	sw	ra,60(sp)
200152bc:	dc22                	sw	s0,56(sp)
200152be:	da4a                	sw	s2,52(sp)
200152c0:	d84e                	sw	s3,48(sp)
200152c2:	d652                	sw	s4,44(sp)
200152c4:	d456                	sw	s5,40(sp)
200152c6:	0080                	addi	s0,sp,64
200152c8:	fca42c23          	sw	a0,-40(s0)
200152cc:	fcb42e23          	sw	a1,-36(s0)
200152d0:	fcc42823          	sw	a2,-48(s0)
200152d4:	fcd42a23          	sw	a3,-44(s0)
200152d8:	fce42423          	sw	a4,-56(s0)
200152dc:	fcf42623          	sw	a5,-52(s0)
/home/jubayer/Documents/riscV/EnergyHarvestingDeviceTestbed/FE310/blinky/freedom-metal/gloss/sys_times.c:28
    return (((v % den) * num) / den) + ((v / den) * num);
200152e0:	fd842703          	lw	a4,-40(s0)
200152e4:	fdc42783          	lw	a5,-36(s0)
200152e8:	fc842603          	lw	a2,-56(s0)
200152ec:	fcc42683          	lw	a3,-52(s0)
200152f0:	853a                	mv	a0,a4
200152f2:	85be                	mv	a1,a5
200152f4:	2d69                	jal	2001598e <__umoddi3>
200152f6:	872a                	mv	a4,a0
200152f8:	87ae                	mv	a5,a1
200152fa:	fd042683          	lw	a3,-48(s0)
200152fe:	02f68633          	mul	a2,a3,a5
20015302:	fd442683          	lw	a3,-44(s0)
20015306:	02e686b3          	mul	a3,a3,a4
2001530a:	9636                	add	a2,a2,a3
2001530c:	fd042683          	lw	a3,-48(s0)
20015310:	02e685b3          	mul	a1,a3,a4
20015314:	02e6bab3          	mulhu	s5,a3,a4
20015318:	8a2e                	mv	s4,a1
2001531a:	015607b3          	add	a5,a2,s5
2001531e:	8abe                	mv	s5,a5
20015320:	fc842603          	lw	a2,-56(s0)
20015324:	fcc42683          	lw	a3,-52(s0)
20015328:	8552                	mv	a0,s4
2001532a:	85d6                	mv	a1,s5
2001532c:	2609                	jal	2001562e <__udivdi3>
2001532e:	872a                	mv	a4,a0
20015330:	87ae                	mv	a5,a1
20015332:	8a3a                	mv	s4,a4
20015334:	8abe                	mv	s5,a5
20015336:	fc842603          	lw	a2,-56(s0)
2001533a:	fcc42683          	lw	a3,-52(s0)
2001533e:	fd842503          	lw	a0,-40(s0)
20015342:	fdc42583          	lw	a1,-36(s0)
20015346:	24e5                	jal	2001562e <__udivdi3>
20015348:	872a                	mv	a4,a0
2001534a:	87ae                	mv	a5,a1
2001534c:	fd042683          	lw	a3,-48(s0)
20015350:	02f68633          	mul	a2,a3,a5
20015354:	fd442683          	lw	a3,-44(s0)
20015358:	02e686b3          	mul	a3,a3,a4
2001535c:	9636                	add	a2,a2,a3
2001535e:	fd042683          	lw	a3,-48(s0)
20015362:	02e685b3          	mul	a1,a3,a4
20015366:	02e6b9b3          	mulhu	s3,a3,a4
2001536a:	892e                	mv	s2,a1
2001536c:	013607b3          	add	a5,a2,s3
20015370:	89be                	mv	s3,a5
20015372:	012a0733          	add	a4,s4,s2
20015376:	86ba                	mv	a3,a4
20015378:	0146b6b3          	sltu	a3,a3,s4
2001537c:	013a87b3          	add	a5,s5,s3
20015380:	96be                	add	a3,a3,a5
20015382:	87b6                	mv	a5,a3
/home/jubayer/Documents/riscV/EnergyHarvestingDeviceTestbed/FE310/blinky/freedom-metal/gloss/sys_times.c:29
}
20015384:	853a                	mv	a0,a4
20015386:	85be                	mv	a1,a5
20015388:	50f2                	lw	ra,60(sp)
2001538a:	5462                	lw	s0,56(sp)
2001538c:	5952                	lw	s2,52(sp)
2001538e:	59c2                	lw	s3,48(sp)
20015390:	5a32                	lw	s4,44(sp)
20015392:	5aa2                	lw	s5,40(sp)
20015394:	6121                	addi	sp,sp,64
20015396:	8082                	ret

20015398 <_times>:
_times():
/home/jubayer/Documents/riscV/EnergyHarvestingDeviceTestbed/FE310/blinky/freedom-metal/gloss/sys_times.c:43

   Since maven does not currently support processes we set both of the
   children's times to zero. Eventually we might want to separately
   account for user vs system time, but for now we just return the total
   number of cycles since starting the program.  */
clock_t _times(struct tms *buf) {
20015398:	7139                	addi	sp,sp,-64
2001539a:	de06                	sw	ra,60(sp)
2001539c:	dc22                	sw	s0,56(sp)
2001539e:	0080                	addi	s0,sp,64
200153a0:	fca42623          	sw	a0,-52(s0)
/home/jubayer/Documents/riscV/EnergyHarvestingDeviceTestbed/FE310/blinky/freedom-metal/gloss/sys_times.c:46
    unsigned long long mcc;
    unsigned long long timebase;
    int hartid = metal_cpu_get_current_hartid();
200153a4:	ce7ff0ef          	jal	ra,2001508a <metal_cpu_get_current_hartid>
200153a8:	fea42623          	sw	a0,-20(s0)
/home/jubayer/Documents/riscV/EnergyHarvestingDeviceTestbed/FE310/blinky/freedom-metal/gloss/sys_times.c:48

    metal_timer_get_timebase_frequency(hartid, &timebase);
200153ac:	fd840793          	addi	a5,s0,-40
200153b0:	85be                	mv	a1,a5
200153b2:	fec42503          	lw	a0,-20(s0)
200153b6:	3d7d                	jal	20015274 <metal_timer_get_timebase_frequency>
/home/jubayer/Documents/riscV/EnergyHarvestingDeviceTestbed/FE310/blinky/freedom-metal/gloss/sys_times.c:49
    metal_timer_get_cyclecount(hartid, &mcc);
200153b8:	fe040793          	addi	a5,s0,-32
200153bc:	85be                	mv	a1,a5
200153be:	fec42503          	lw	a0,-20(s0)
200153c2:	35bd                	jal	20015230 <metal_timer_get_cyclecount>
/home/jubayer/Documents/riscV/EnergyHarvestingDeviceTestbed/FE310/blinky/freedom-metal/gloss/sys_times.c:59
     * Truncating this to 64 bits works because a change of 'c' in
     * cyclecount will change the return value by
     * c * CLOCKS_PER_SEC / timebase, so applications will see
     * time marching forward.
     */
    mcc = muldiv(mcc, CLOCKS_PER_SEC, timebase);
200153c4:	fe042503          	lw	a0,-32(s0)
200153c8:	fe442583          	lw	a1,-28(s0)
200153cc:	fd842703          	lw	a4,-40(s0)
200153d0:	fdc42783          	lw	a5,-36(s0)
200153d4:	000f4637          	lui	a2,0xf4
200153d8:	24060613          	addi	a2,a2,576 # f4240 <__heap_size+0xf3a40>
200153dc:	4681                	li	a3,0
200153de:	3de9                	jal	200152b8 <muldiv>
200153e0:	872a                	mv	a4,a0
200153e2:	87ae                	mv	a5,a1
200153e4:	fee42023          	sw	a4,-32(s0)
200153e8:	fef42223          	sw	a5,-28(s0)
/home/jubayer/Documents/riscV/EnergyHarvestingDeviceTestbed/FE310/blinky/freedom-metal/gloss/sys_times.c:61

    buf->tms_stime = 0;
200153ec:	fcc42783          	lw	a5,-52(s0)
200153f0:	0007a223          	sw	zero,4(a5) # 8004 <__heap_size+0x7804>
/home/jubayer/Documents/riscV/EnergyHarvestingDeviceTestbed/FE310/blinky/freedom-metal/gloss/sys_times.c:62
    buf->tms_cutime = 0;
200153f4:	fcc42783          	lw	a5,-52(s0)
200153f8:	0007a423          	sw	zero,8(a5)
/home/jubayer/Documents/riscV/EnergyHarvestingDeviceTestbed/FE310/blinky/freedom-metal/gloss/sys_times.c:63
    buf->tms_cstime = 0;
200153fc:	fcc42783          	lw	a5,-52(s0)
20015400:	0007a623          	sw	zero,12(a5)
/home/jubayer/Documents/riscV/EnergyHarvestingDeviceTestbed/FE310/blinky/freedom-metal/gloss/sys_times.c:64
    return buf->tms_utime = mcc;
20015404:	fe042703          	lw	a4,-32(s0)
20015408:	fe442783          	lw	a5,-28(s0)
2001540c:	fcc42783          	lw	a5,-52(s0)
20015410:	c398                	sw	a4,0(a5)
20015412:	fcc42783          	lw	a5,-52(s0)
20015416:	439c                	lw	a5,0(a5)
/home/jubayer/Documents/riscV/EnergyHarvestingDeviceTestbed/FE310/blinky/freedom-metal/gloss/sys_times.c:65
}
20015418:	853e                	mv	a0,a5
2001541a:	50f2                	lw	ra,60(sp)
2001541c:	5462                	lw	s0,56(sp)
2001541e:	6121                	addi	sp,sp,64
20015420:	8082                	ret

20015422 <atexit>:
atexit():
20015422:	85aa                	mv	a1,a0
20015424:	4681                	li	a3,0
20015426:	4601                	li	a2,0
20015428:	4501                	li	a0,0
2001542a:	a0c1                	j	200154ea <__register_exitproc>

2001542c <exit>:
exit():
2001542c:	1141                	addi	sp,sp,-16
2001542e:	c422                	sw	s0,8(sp)
20015430:	c606                	sw	ra,12(sp)
20015432:	00000797          	auipc	a5,0x0
20015436:	13478793          	addi	a5,a5,308 # 20015566 <__call_exitprocs>
2001543a:	842a                	mv	s0,a0
2001543c:	c399                	beqz	a5,20015442 <exit+0x16>
2001543e:	4581                	li	a1,0
20015440:	221d                	jal	20015566 <__call_exitprocs>
20015442:	ffffc517          	auipc	a0,0xffffc
20015446:	b0e52503          	lw	a0,-1266(a0) # 20010f50 <_global_impure_ptr>
2001544a:	551c                	lw	a5,40(a0)
2001544c:	c391                	beqz	a5,20015450 <exit+0x24>
2001544e:	9782                	jalr	a5
20015450:	8522                	mv	a0,s0
20015452:	195000ef          	jal	ra,20015de6 <_exit>

20015456 <__libc_fini_array>:
__libc_fini_array():
20015456:	1141                	addi	sp,sp,-16
20015458:	c422                	sw	s0,8(sp)
2001545a:	c226                	sw	s1,4(sp)
2001545c:	ffffb417          	auipc	s0,0xffffb
20015460:	e8c40413          	addi	s0,s0,-372 # 200102e8 <metal_sifive_fe310_g000_pll_init>
20015464:	ffffb497          	auipc	s1,0xffffb
20015468:	e8448493          	addi	s1,s1,-380 # 200102e8 <metal_sifive_fe310_g000_pll_init>
2001546c:	8c05                	sub	s0,s0,s1
2001546e:	c606                	sw	ra,12(sp)
20015470:	8409                	srai	s0,s0,0x2
20015472:	e411                	bnez	s0,2001547e <__libc_fini_array+0x28>
20015474:	40b2                	lw	ra,12(sp)
20015476:	4422                	lw	s0,8(sp)
20015478:	4492                	lw	s1,4(sp)
2001547a:	0141                	addi	sp,sp,16
2001547c:	8082                	ret
2001547e:	147d                	addi	s0,s0,-1
20015480:	00241793          	slli	a5,s0,0x2
20015484:	97a6                	add	a5,a5,s1
20015486:	439c                	lw	a5,0(a5)
20015488:	9782                	jalr	a5
2001548a:	b7e5                	j	20015472 <__libc_fini_array+0x1c>

2001548c <__libc_init_array>:
__libc_init_array():
2001548c:	1141                	addi	sp,sp,-16
2001548e:	c422                	sw	s0,8(sp)
20015490:	c226                	sw	s1,4(sp)
20015492:	ffffb417          	auipc	s0,0xffffb
20015496:	e4e40413          	addi	s0,s0,-434 # 200102e0 <_metal_sifive_fe310_g000_pll_init_ptr>
2001549a:	ffffb497          	auipc	s1,0xffffb
2001549e:	e4648493          	addi	s1,s1,-442 # 200102e0 <_metal_sifive_fe310_g000_pll_init_ptr>
200154a2:	8c81                	sub	s1,s1,s0
200154a4:	c04a                	sw	s2,0(sp)
200154a6:	c606                	sw	ra,12(sp)
200154a8:	8489                	srai	s1,s1,0x2
200154aa:	4901                	li	s2,0
200154ac:	02991563          	bne	s2,s1,200154d6 <__libc_init_array+0x4a>
200154b0:	ffffb417          	auipc	s0,0xffffb
200154b4:	e3040413          	addi	s0,s0,-464 # 200102e0 <_metal_sifive_fe310_g000_pll_init_ptr>
200154b8:	ffffb497          	auipc	s1,0xffffb
200154bc:	e2848493          	addi	s1,s1,-472 # 200102e0 <_metal_sifive_fe310_g000_pll_init_ptr>
200154c0:	8c81                	sub	s1,s1,s0
200154c2:	8489                	srai	s1,s1,0x2
200154c4:	4901                	li	s2,0
200154c6:	00991d63          	bne	s2,s1,200154e0 <__libc_init_array+0x54>
200154ca:	40b2                	lw	ra,12(sp)
200154cc:	4422                	lw	s0,8(sp)
200154ce:	4492                	lw	s1,4(sp)
200154d0:	4902                	lw	s2,0(sp)
200154d2:	0141                	addi	sp,sp,16
200154d4:	8082                	ret
200154d6:	401c                	lw	a5,0(s0)
200154d8:	0905                	addi	s2,s2,1
200154da:	0411                	addi	s0,s0,4
200154dc:	9782                	jalr	a5
200154de:	b7f9                	j	200154ac <__libc_init_array+0x20>
200154e0:	401c                	lw	a5,0(s0)
200154e2:	0905                	addi	s2,s2,1
200154e4:	0411                	addi	s0,s0,4
200154e6:	9782                	jalr	a5
200154e8:	bff9                	j	200154c6 <__libc_init_array+0x3a>

200154ea <__register_exitproc>:
__register_exitproc():
200154ea:	88aa                	mv	a7,a0
200154ec:	5ffeb517          	auipc	a0,0x5ffeb
200154f0:	59c50513          	addi	a0,a0,1436 # 80000a88 <_global_atexit>
200154f4:	411c                	lw	a5,0(a0)
200154f6:	ef91                	bnez	a5,20015512 <__register_exitproc+0x28>
200154f8:	5ffeb717          	auipc	a4,0x5ffeb
200154fc:	59c70713          	addi	a4,a4,1436 # 80000a94 <_global_atexit0>
20015500:	c118                	sw	a4,0(a0)
20015502:	00000513          	li	a0,0
20015506:	87ba                	mv	a5,a4
20015508:	c509                	beqz	a0,20015512 <__register_exitproc+0x28>
2001550a:	411c                	lw	a5,0(a0)
2001550c:	08f72423          	sw	a5,136(a4)
20015510:	87ba                	mv	a5,a4
20015512:	43d8                	lw	a4,4(a5)
20015514:	487d                	li	a6,31
20015516:	557d                	li	a0,-1
20015518:	04e84663          	blt	a6,a4,20015564 <__register_exitproc+0x7a>
2001551c:	02088d63          	beqz	a7,20015556 <__register_exitproc+0x6c>
20015520:	0887a803          	lw	a6,136(a5)
20015524:	04080063          	beqz	a6,20015564 <__register_exitproc+0x7a>
20015528:	00271513          	slli	a0,a4,0x2
2001552c:	9542                	add	a0,a0,a6
2001552e:	c110                	sw	a2,0(a0)
20015530:	10082303          	lw	t1,256(a6)
20015534:	4605                	li	a2,1
20015536:	00e61633          	sll	a2,a2,a4
2001553a:	00c36333          	or	t1,t1,a2
2001553e:	10682023          	sw	t1,256(a6)
20015542:	08d52023          	sw	a3,128(a0)
20015546:	4689                	li	a3,2
20015548:	00d89763          	bne	a7,a3,20015556 <__register_exitproc+0x6c>
2001554c:	10482683          	lw	a3,260(a6)
20015550:	8e55                	or	a2,a2,a3
20015552:	10c82223          	sw	a2,260(a6)
20015556:	00170693          	addi	a3,a4,1
2001555a:	070a                	slli	a4,a4,0x2
2001555c:	c3d4                	sw	a3,4(a5)
2001555e:	97ba                	add	a5,a5,a4
20015560:	c78c                	sw	a1,8(a5)
20015562:	4501                	li	a0,0
20015564:	8082                	ret

20015566 <__call_exitprocs>:
__call_exitprocs():
20015566:	7179                	addi	sp,sp,-48
20015568:	ca56                	sw	s5,20(sp)
2001556a:	c85a                	sw	s6,16(sp)
2001556c:	c65e                	sw	s7,12(sp)
2001556e:	c462                	sw	s8,8(sp)
20015570:	d606                	sw	ra,44(sp)
20015572:	d422                	sw	s0,40(sp)
20015574:	d226                	sw	s1,36(sp)
20015576:	d04a                	sw	s2,32(sp)
20015578:	ce4e                	sw	s3,28(sp)
2001557a:	cc52                	sw	s4,24(sp)
2001557c:	c266                	sw	s9,4(sp)
2001557e:	8b2a                	mv	s6,a0
20015580:	8aae                	mv	s5,a1
20015582:	5ffebb97          	auipc	s7,0x5ffeb
20015586:	506b8b93          	addi	s7,s7,1286 # 80000a88 <_global_atexit>
2001558a:	4c05                	li	s8,1
2001558c:	000ba483          	lw	s1,0(s7)
20015590:	cc81                	beqz	s1,200155a8 <__call_exitprocs+0x42>
20015592:	40c0                	lw	s0,4(s1)
20015594:	0884a983          	lw	s3,136(s1)
20015598:	fff40913          	addi	s2,s0,-1
2001559c:	040a                	slli	s0,s0,0x2
2001559e:	00898a33          	add	s4,s3,s0
200155a2:	9426                	add	s0,s0,s1
200155a4:	00095f63          	bgez	s2,200155c2 <__call_exitprocs+0x5c>
200155a8:	50b2                	lw	ra,44(sp)
200155aa:	5422                	lw	s0,40(sp)
200155ac:	5492                	lw	s1,36(sp)
200155ae:	5902                	lw	s2,32(sp)
200155b0:	49f2                	lw	s3,28(sp)
200155b2:	4a62                	lw	s4,24(sp)
200155b4:	4ad2                	lw	s5,20(sp)
200155b6:	4b42                	lw	s6,16(sp)
200155b8:	4bb2                	lw	s7,12(sp)
200155ba:	4c22                	lw	s8,8(sp)
200155bc:	4c92                	lw	s9,4(sp)
200155be:	6145                	addi	sp,sp,48
200155c0:	8082                	ret
200155c2:	000a8c63          	beqz	s5,200155da <__call_exitprocs+0x74>
200155c6:	00099663          	bnez	s3,200155d2 <__call_exitprocs+0x6c>
200155ca:	197d                	addi	s2,s2,-1
200155cc:	1a71                	addi	s4,s4,-4
200155ce:	1471                	addi	s0,s0,-4
200155d0:	bfd1                	j	200155a4 <__call_exitprocs+0x3e>
200155d2:	07ca2783          	lw	a5,124(s4)
200155d6:	ff579ae3          	bne	a5,s5,200155ca <__call_exitprocs+0x64>
200155da:	40d8                	lw	a4,4(s1)
200155dc:	405c                	lw	a5,4(s0)
200155de:	177d                	addi	a4,a4,-1
200155e0:	03271863          	bne	a4,s2,20015610 <__call_exitprocs+0xaa>
200155e4:	0124a223          	sw	s2,4(s1)
200155e8:	d3ed                	beqz	a5,200155ca <__call_exitprocs+0x64>
200155ea:	0044ac83          	lw	s9,4(s1)
200155ee:	00098863          	beqz	s3,200155fe <__call_exitprocs+0x98>
200155f2:	1009a683          	lw	a3,256(s3)
200155f6:	012c1733          	sll	a4,s8,s2
200155fa:	8ef9                	and	a3,a3,a4
200155fc:	ee89                	bnez	a3,20015616 <__call_exitprocs+0xb0>
200155fe:	9782                	jalr	a5
20015600:	40d8                	lw	a4,4(s1)
20015602:	000ba783          	lw	a5,0(s7)
20015606:	f99713e3          	bne	a4,s9,2001558c <__call_exitprocs+0x26>
2001560a:	fcf480e3          	beq	s1,a5,200155ca <__call_exitprocs+0x64>
2001560e:	bfbd                	j	2001558c <__call_exitprocs+0x26>
20015610:	00042223          	sw	zero,4(s0)
20015614:	bfd1                	j	200155e8 <__call_exitprocs+0x82>
20015616:	1049a683          	lw	a3,260(s3)
2001561a:	ffca2583          	lw	a1,-4(s4)
2001561e:	8f75                	and	a4,a4,a3
20015620:	e701                	bnez	a4,20015628 <__call_exitprocs+0xc2>
20015622:	855a                	mv	a0,s6
20015624:	9782                	jalr	a5
20015626:	bfe9                	j	20015600 <__call_exitprocs+0x9a>
20015628:	852e                	mv	a0,a1
2001562a:	9782                	jalr	a5
2001562c:	bfd1                	j	20015600 <__call_exitprocs+0x9a>

2001562e <__udivdi3>:
__udivdi3():
/home/scratch/jenkins/workspace/tpp-freedom-tools/tpp04--build-binary-packages--parameterized/obj/x86_64-linux-centos6/build/riscv64-unknown-elf-gcc/build-gcc-stage2/riscv64-unknown-elf/rv32imac/ilp32/libgcc/../../../../../riscv-gcc/libgcc/libgcc2.c:1319
2001562e:	88aa                	mv	a7,a0
20015630:	87ae                	mv	a5,a1
__udivmoddi4():
/home/scratch/jenkins/workspace/tpp-freedom-tools/tpp04--build-binary-packages--parameterized/obj/x86_64-linux-centos6/build/riscv64-unknown-elf-gcc/build-gcc-stage2/riscv64-unknown-elf/rv32imac/ilp32/libgcc/../../../../../riscv-gcc/libgcc/libgcc2.c:1024
20015632:	8832                	mv	a6,a2
/home/scratch/jenkins/workspace/tpp-freedom-tools/tpp04--build-binary-packages--parameterized/obj/x86_64-linux-centos6/build/riscv64-unknown-elf-gcc/build-gcc-stage2/riscv64-unknown-elf/rv32imac/ilp32/libgcc/../../../../../riscv-gcc/libgcc/libgcc2.c:1025
20015634:	8536                	mv	a0,a3
/home/scratch/jenkins/workspace/tpp-freedom-tools/tpp04--build-binary-packages--parameterized/obj/x86_64-linux-centos6/build/riscv64-unknown-elf-gcc/build-gcc-stage2/riscv64-unknown-elf/rv32imac/ilp32/libgcc/../../../../../riscv-gcc/libgcc/libgcc2.c:1026
20015636:	8346                	mv	t1,a7
/home/scratch/jenkins/workspace/tpp-freedom-tools/tpp04--build-binary-packages--parameterized/obj/x86_64-linux-centos6/build/riscv64-unknown-elf-gcc/build-gcc-stage2/riscv64-unknown-elf/rv32imac/ilp32/libgcc/../../../../../riscv-gcc/libgcc/libgcc2.c:1064
20015638:	20069663          	bnez	a3,20015844 <__udivdi3+0x216>
/home/scratch/jenkins/workspace/tpp-freedom-tools/tpp04--build-binary-packages--parameterized/obj/x86_64-linux-centos6/build/riscv64-unknown-elf-gcc/build-gcc-stage2/riscv64-unknown-elf/rv32imac/ilp32/libgcc/../../../../../riscv-gcc/libgcc/libgcc2.c:1066
2001563c:	ffffc697          	auipc	a3,0xffffc
20015640:	81068693          	addi	a3,a3,-2032 # 20010e4c <__clz_tab>
20015644:	0ac5ff63          	bgeu	a1,a2,20015702 <__udivdi3+0xd4>
/home/scratch/jenkins/workspace/tpp-freedom-tools/tpp04--build-binary-packages--parameterized/obj/x86_64-linux-centos6/build/riscv64-unknown-elf-gcc/build-gcc-stage2/riscv64-unknown-elf/rv32imac/ilp32/libgcc/../../../../../riscv-gcc/libgcc/libgcc2.c:1070
20015648:	6741                	lui	a4,0x10
2001564a:	0ae67563          	bgeu	a2,a4,200156f4 <__udivdi3+0xc6>
2001564e:	0ff00713          	li	a4,255
20015652:	00c73733          	sltu	a4,a4,a2
20015656:	070e                	slli	a4,a4,0x3
20015658:	00e65533          	srl	a0,a2,a4
2001565c:	96aa                	add	a3,a3,a0
2001565e:	0006c683          	lbu	a3,0(a3)
20015662:	02000513          	li	a0,32
20015666:	9736                	add	a4,a4,a3
20015668:	40e506b3          	sub	a3,a0,a4
/home/scratch/jenkins/workspace/tpp-freedom-tools/tpp04--build-binary-packages--parameterized/obj/x86_64-linux-centos6/build/riscv64-unknown-elf-gcc/build-gcc-stage2/riscv64-unknown-elf/rv32imac/ilp32/libgcc/../../../../../riscv-gcc/libgcc/libgcc2.c:1072
2001566c:	00e50b63          	beq	a0,a4,20015682 <__udivdi3+0x54>
/home/scratch/jenkins/workspace/tpp-freedom-tools/tpp04--build-binary-packages--parameterized/obj/x86_64-linux-centos6/build/riscv64-unknown-elf-gcc/build-gcc-stage2/riscv64-unknown-elf/rv32imac/ilp32/libgcc/../../../../../riscv-gcc/libgcc/libgcc2.c:1078
20015670:	00d795b3          	sll	a1,a5,a3
20015674:	00e8d733          	srl	a4,a7,a4
/home/scratch/jenkins/workspace/tpp-freedom-tools/tpp04--build-binary-packages--parameterized/obj/x86_64-linux-centos6/build/riscv64-unknown-elf-gcc/build-gcc-stage2/riscv64-unknown-elf/rv32imac/ilp32/libgcc/../../../../../riscv-gcc/libgcc/libgcc2.c:1077
20015678:	00d61833          	sll	a6,a2,a3
/home/scratch/jenkins/workspace/tpp-freedom-tools/tpp04--build-binary-packages--parameterized/obj/x86_64-linux-centos6/build/riscv64-unknown-elf-gcc/build-gcc-stage2/riscv64-unknown-elf/rv32imac/ilp32/libgcc/../../../../../riscv-gcc/libgcc/libgcc2.c:1078
2001567c:	8dd9                	or	a1,a1,a4
/home/scratch/jenkins/workspace/tpp-freedom-tools/tpp04--build-binary-packages--parameterized/obj/x86_64-linux-centos6/build/riscv64-unknown-elf-gcc/build-gcc-stage2/riscv64-unknown-elf/rv32imac/ilp32/libgcc/../../../../../riscv-gcc/libgcc/libgcc2.c:1079
2001567e:	00d89333          	sll	t1,a7,a3
/home/scratch/jenkins/workspace/tpp-freedom-tools/tpp04--build-binary-packages--parameterized/obj/x86_64-linux-centos6/build/riscv64-unknown-elf-gcc/build-gcc-stage2/riscv64-unknown-elf/rv32imac/ilp32/libgcc/../../../../../riscv-gcc/libgcc/libgcc2.c:1082
20015682:	01085893          	srli	a7,a6,0x10
20015686:	0315d6b3          	divu	a3,a1,a7
2001568a:	01081613          	slli	a2,a6,0x10
2001568e:	8241                	srli	a2,a2,0x10
20015690:	01035793          	srli	a5,t1,0x10
20015694:	0315f733          	remu	a4,a1,a7
20015698:	8536                	mv	a0,a3
2001569a:	02d605b3          	mul	a1,a2,a3
2001569e:	0742                	slli	a4,a4,0x10
200156a0:	8fd9                	or	a5,a5,a4
200156a2:	00b7fc63          	bgeu	a5,a1,200156ba <__udivdi3+0x8c>
200156a6:	97c2                	add	a5,a5,a6
200156a8:	fff68513          	addi	a0,a3,-1
200156ac:	0107e763          	bltu	a5,a6,200156ba <__udivdi3+0x8c>
200156b0:	00b7f563          	bgeu	a5,a1,200156ba <__udivdi3+0x8c>
200156b4:	ffe68513          	addi	a0,a3,-2
200156b8:	97c2                	add	a5,a5,a6
200156ba:	8f8d                	sub	a5,a5,a1
200156bc:	0317f733          	remu	a4,a5,a7
200156c0:	0342                	slli	t1,t1,0x10
200156c2:	01035313          	srli	t1,t1,0x10
200156c6:	0317d7b3          	divu	a5,a5,a7
200156ca:	0742                	slli	a4,a4,0x10
200156cc:	00676333          	or	t1,a4,t1
200156d0:	02f606b3          	mul	a3,a2,a5
200156d4:	863e                	mv	a2,a5
200156d6:	00d37b63          	bgeu	t1,a3,200156ec <__udivdi3+0xbe>
200156da:	9342                	add	t1,t1,a6
200156dc:	fff78613          	addi	a2,a5,-1
200156e0:	01036663          	bltu	t1,a6,200156ec <__udivdi3+0xbe>
200156e4:	00d37463          	bgeu	t1,a3,200156ec <__udivdi3+0xbe>
200156e8:	ffe78613          	addi	a2,a5,-2
200156ec:	0542                	slli	a0,a0,0x10
200156ee:	8d51                	or	a0,a0,a2
/home/scratch/jenkins/workspace/tpp-freedom-tools/tpp04--build-binary-packages--parameterized/obj/x86_64-linux-centos6/build/riscv64-unknown-elf-gcc/build-gcc-stage2/riscv64-unknown-elf/rv32imac/ilp32/libgcc/../../../../../riscv-gcc/libgcc/libgcc2.c:1209
200156f0:	4581                	li	a1,0
200156f2:	a85d                	j	200157a8 <__udivdi3+0x17a>
/home/scratch/jenkins/workspace/tpp-freedom-tools/tpp04--build-binary-packages--parameterized/obj/x86_64-linux-centos6/build/riscv64-unknown-elf-gcc/build-gcc-stage2/riscv64-unknown-elf/rv32imac/ilp32/libgcc/../../../../../riscv-gcc/libgcc/libgcc2.c:1070
200156f4:	01000537          	lui	a0,0x1000
200156f8:	4741                	li	a4,16
200156fa:	f4a66fe3          	bltu	a2,a0,20015658 <__udivdi3+0x2a>
200156fe:	4761                	li	a4,24
20015700:	bfa1                	j	20015658 <__udivdi3+0x2a>
/home/scratch/jenkins/workspace/tpp-freedom-tools/tpp04--build-binary-packages--parameterized/obj/x86_64-linux-centos6/build/riscv64-unknown-elf-gcc/build-gcc-stage2/riscv64-unknown-elf/rv32imac/ilp32/libgcc/../../../../../riscv-gcc/libgcc/libgcc2.c:1091
20015702:	e601                	bnez	a2,2001570a <__udivdi3+0xdc>
/home/scratch/jenkins/workspace/tpp-freedom-tools/tpp04--build-binary-packages--parameterized/obj/x86_64-linux-centos6/build/riscv64-unknown-elf-gcc/build-gcc-stage2/riscv64-unknown-elf/rv32imac/ilp32/libgcc/../../../../../riscv-gcc/libgcc/libgcc2.c:1092
20015704:	4705                	li	a4,1
20015706:	02c75833          	divu	a6,a4,a2
/home/scratch/jenkins/workspace/tpp-freedom-tools/tpp04--build-binary-packages--parameterized/obj/x86_64-linux-centos6/build/riscv64-unknown-elf-gcc/build-gcc-stage2/riscv64-unknown-elf/rv32imac/ilp32/libgcc/../../../../../riscv-gcc/libgcc/libgcc2.c:1094
2001570a:	6741                	lui	a4,0x10
2001570c:	08e87f63          	bgeu	a6,a4,200157aa <__udivdi3+0x17c>
20015710:	0ff00713          	li	a4,255
20015714:	01077363          	bgeu	a4,a6,2001571a <__udivdi3+0xec>
20015718:	4521                	li	a0,8
2001571a:	00a85733          	srl	a4,a6,a0
2001571e:	96ba                	add	a3,a3,a4
20015720:	0006c703          	lbu	a4,0(a3)
20015724:	02000613          	li	a2,32
20015728:	972a                	add	a4,a4,a0
2001572a:	40e606b3          	sub	a3,a2,a4
/home/scratch/jenkins/workspace/tpp-freedom-tools/tpp04--build-binary-packages--parameterized/obj/x86_64-linux-centos6/build/riscv64-unknown-elf-gcc/build-gcc-stage2/riscv64-unknown-elf/rv32imac/ilp32/libgcc/../../../../../riscv-gcc/libgcc/libgcc2.c:1096
2001572e:	08e61563          	bne	a2,a4,200157b8 <__udivdi3+0x18a>
/home/scratch/jenkins/workspace/tpp-freedom-tools/tpp04--build-binary-packages--parameterized/obj/x86_64-linux-centos6/build/riscv64-unknown-elf-gcc/build-gcc-stage2/riscv64-unknown-elf/rv32imac/ilp32/libgcc/../../../../../riscv-gcc/libgcc/libgcc2.c:1105
20015732:	410787b3          	sub	a5,a5,a6
/home/scratch/jenkins/workspace/tpp-freedom-tools/tpp04--build-binary-packages--parameterized/obj/x86_64-linux-centos6/build/riscv64-unknown-elf-gcc/build-gcc-stage2/riscv64-unknown-elf/rv32imac/ilp32/libgcc/../../../../../riscv-gcc/libgcc/libgcc2.c:1106
20015736:	4585                	li	a1,1
/home/scratch/jenkins/workspace/tpp-freedom-tools/tpp04--build-binary-packages--parameterized/obj/x86_64-linux-centos6/build/riscv64-unknown-elf-gcc/build-gcc-stage2/riscv64-unknown-elf/rv32imac/ilp32/libgcc/../../../../../riscv-gcc/libgcc/libgcc2.c:1124
20015738:	01085893          	srli	a7,a6,0x10
2001573c:	01081613          	slli	a2,a6,0x10
20015740:	8241                	srli	a2,a2,0x10
20015742:	01035713          	srli	a4,t1,0x10
20015746:	0317f6b3          	remu	a3,a5,a7
2001574a:	0317d7b3          	divu	a5,a5,a7
2001574e:	06c2                	slli	a3,a3,0x10
20015750:	8f55                	or	a4,a4,a3
20015752:	02f60e33          	mul	t3,a2,a5
20015756:	853e                	mv	a0,a5
20015758:	01c77c63          	bgeu	a4,t3,20015770 <__udivdi3+0x142>
2001575c:	9742                	add	a4,a4,a6
2001575e:	fff78513          	addi	a0,a5,-1
20015762:	01076763          	bltu	a4,a6,20015770 <__udivdi3+0x142>
20015766:	01c77563          	bgeu	a4,t3,20015770 <__udivdi3+0x142>
2001576a:	ffe78513          	addi	a0,a5,-2
2001576e:	9742                	add	a4,a4,a6
20015770:	41c70733          	sub	a4,a4,t3
20015774:	031777b3          	remu	a5,a4,a7
20015778:	0342                	slli	t1,t1,0x10
2001577a:	01035313          	srli	t1,t1,0x10
2001577e:	03175733          	divu	a4,a4,a7
20015782:	07c2                	slli	a5,a5,0x10
20015784:	0067e333          	or	t1,a5,t1
20015788:	02e606b3          	mul	a3,a2,a4
2001578c:	863a                	mv	a2,a4
2001578e:	00d37b63          	bgeu	t1,a3,200157a4 <__udivdi3+0x176>
20015792:	9342                	add	t1,t1,a6
20015794:	fff70613          	addi	a2,a4,-1 # ffff <__heap_size+0xf7ff>
20015798:	01036663          	bltu	t1,a6,200157a4 <__udivdi3+0x176>
2001579c:	00d37463          	bgeu	t1,a3,200157a4 <__udivdi3+0x176>
200157a0:	ffe70613          	addi	a2,a4,-2
200157a4:	0542                	slli	a0,a0,0x10
200157a6:	8d51                	or	a0,a0,a2
__udivdi3():
/home/scratch/jenkins/workspace/tpp-freedom-tools/tpp04--build-binary-packages--parameterized/obj/x86_64-linux-centos6/build/riscv64-unknown-elf-gcc/build-gcc-stage2/riscv64-unknown-elf/rv32imac/ilp32/libgcc/../../../../../riscv-gcc/libgcc/libgcc2.c:1321
200157a8:	8082                	ret
__udivmoddi4():
/home/scratch/jenkins/workspace/tpp-freedom-tools/tpp04--build-binary-packages--parameterized/obj/x86_64-linux-centos6/build/riscv64-unknown-elf-gcc/build-gcc-stage2/riscv64-unknown-elf/rv32imac/ilp32/libgcc/../../../../../riscv-gcc/libgcc/libgcc2.c:1094
200157aa:	01000737          	lui	a4,0x1000
200157ae:	4541                	li	a0,16
200157b0:	f6e865e3          	bltu	a6,a4,2001571a <__udivdi3+0xec>
200157b4:	4561                	li	a0,24
200157b6:	b795                	j	2001571a <__udivdi3+0xec>
/home/scratch/jenkins/workspace/tpp-freedom-tools/tpp04--build-binary-packages--parameterized/obj/x86_64-linux-centos6/build/riscv64-unknown-elf-gcc/build-gcc-stage2/riscv64-unknown-elf/rv32imac/ilp32/libgcc/../../../../../riscv-gcc/libgcc/libgcc2.c:1114
200157b8:	00d81833          	sll	a6,a6,a3
/home/scratch/jenkins/workspace/tpp-freedom-tools/tpp04--build-binary-packages--parameterized/obj/x86_64-linux-centos6/build/riscv64-unknown-elf-gcc/build-gcc-stage2/riscv64-unknown-elf/rv32imac/ilp32/libgcc/../../../../../riscv-gcc/libgcc/libgcc2.c:1115
200157bc:	00e7d533          	srl	a0,a5,a4
/home/scratch/jenkins/workspace/tpp-freedom-tools/tpp04--build-binary-packages--parameterized/obj/x86_64-linux-centos6/build/riscv64-unknown-elf-gcc/build-gcc-stage2/riscv64-unknown-elf/rv32imac/ilp32/libgcc/../../../../../riscv-gcc/libgcc/libgcc2.c:1117
200157c0:	00d89333          	sll	t1,a7,a3
/home/scratch/jenkins/workspace/tpp-freedom-tools/tpp04--build-binary-packages--parameterized/obj/x86_64-linux-centos6/build/riscv64-unknown-elf-gcc/build-gcc-stage2/riscv64-unknown-elf/rv32imac/ilp32/libgcc/../../../../../riscv-gcc/libgcc/libgcc2.c:1116
200157c4:	00d797b3          	sll	a5,a5,a3
200157c8:	00e8d733          	srl	a4,a7,a4
/home/scratch/jenkins/workspace/tpp-freedom-tools/tpp04--build-binary-packages--parameterized/obj/x86_64-linux-centos6/build/riscv64-unknown-elf-gcc/build-gcc-stage2/riscv64-unknown-elf/rv32imac/ilp32/libgcc/../../../../../riscv-gcc/libgcc/libgcc2.c:1119
200157cc:	01085893          	srli	a7,a6,0x10
/home/scratch/jenkins/workspace/tpp-freedom-tools/tpp04--build-binary-packages--parameterized/obj/x86_64-linux-centos6/build/riscv64-unknown-elf-gcc/build-gcc-stage2/riscv64-unknown-elf/rv32imac/ilp32/libgcc/../../../../../riscv-gcc/libgcc/libgcc2.c:1116
200157d0:	00f76633          	or	a2,a4,a5
/home/scratch/jenkins/workspace/tpp-freedom-tools/tpp04--build-binary-packages--parameterized/obj/x86_64-linux-centos6/build/riscv64-unknown-elf-gcc/build-gcc-stage2/riscv64-unknown-elf/rv32imac/ilp32/libgcc/../../../../../riscv-gcc/libgcc/libgcc2.c:1119
200157d4:	03157733          	remu	a4,a0,a7
200157d8:	01081793          	slli	a5,a6,0x10
200157dc:	83c1                	srli	a5,a5,0x10
200157de:	01065593          	srli	a1,a2,0x10
200157e2:	03155533          	divu	a0,a0,a7
200157e6:	0742                	slli	a4,a4,0x10
200157e8:	8f4d                	or	a4,a4,a1
200157ea:	02a786b3          	mul	a3,a5,a0
200157ee:	85aa                	mv	a1,a0
200157f0:	00d77c63          	bgeu	a4,a3,20015808 <__udivdi3+0x1da>
200157f4:	9742                	add	a4,a4,a6
200157f6:	fff50593          	addi	a1,a0,-1 # ffffff <__heap_size+0xfff7ff>
200157fa:	01076763          	bltu	a4,a6,20015808 <__udivdi3+0x1da>
200157fe:	00d77563          	bgeu	a4,a3,20015808 <__udivdi3+0x1da>
20015802:	ffe50593          	addi	a1,a0,-2
20015806:	9742                	add	a4,a4,a6
20015808:	40d706b3          	sub	a3,a4,a3
2001580c:	0316f733          	remu	a4,a3,a7
20015810:	0642                	slli	a2,a2,0x10
20015812:	8241                	srli	a2,a2,0x10
20015814:	0316d6b3          	divu	a3,a3,a7
20015818:	0742                	slli	a4,a4,0x10
2001581a:	02d78533          	mul	a0,a5,a3
2001581e:	00c767b3          	or	a5,a4,a2
20015822:	8736                	mv	a4,a3
20015824:	00a7fc63          	bgeu	a5,a0,2001583c <__udivdi3+0x20e>
20015828:	97c2                	add	a5,a5,a6
2001582a:	fff68713          	addi	a4,a3,-1
2001582e:	0107e763          	bltu	a5,a6,2001583c <__udivdi3+0x20e>
20015832:	00a7f563          	bgeu	a5,a0,2001583c <__udivdi3+0x20e>
20015836:	ffe68713          	addi	a4,a3,-2
2001583a:	97c2                	add	a5,a5,a6
2001583c:	05c2                	slli	a1,a1,0x10
2001583e:	8f89                	sub	a5,a5,a0
20015840:	8dd9                	or	a1,a1,a4
20015842:	bddd                	j	20015738 <__udivdi3+0x10a>
/home/scratch/jenkins/workspace/tpp-freedom-tools/tpp04--build-binary-packages--parameterized/obj/x86_64-linux-centos6/build/riscv64-unknown-elf-gcc/build-gcc-stage2/riscv64-unknown-elf/rv32imac/ilp32/libgcc/../../../../../riscv-gcc/libgcc/libgcc2.c:1140
20015844:	14d5e263          	bltu	a1,a3,20015988 <__udivdi3+0x35a>
/home/scratch/jenkins/workspace/tpp-freedom-tools/tpp04--build-binary-packages--parameterized/obj/x86_64-linux-centos6/build/riscv64-unknown-elf-gcc/build-gcc-stage2/riscv64-unknown-elf/rv32imac/ilp32/libgcc/../../../../../riscv-gcc/libgcc/libgcc2.c:1159
20015848:	6741                	lui	a4,0x10
2001584a:	02e6ff63          	bgeu	a3,a4,20015888 <__udivdi3+0x25a>
2001584e:	0ff00713          	li	a4,255
20015852:	00d735b3          	sltu	a1,a4,a3
20015856:	058e                	slli	a1,a1,0x3
20015858:	00b6d533          	srl	a0,a3,a1
2001585c:	ffffb717          	auipc	a4,0xffffb
20015860:	5f070713          	addi	a4,a4,1520 # 20010e4c <__clz_tab>
20015864:	972a                	add	a4,a4,a0
20015866:	00074703          	lbu	a4,0(a4)
2001586a:	02000513          	li	a0,32
2001586e:	972e                	add	a4,a4,a1
20015870:	40e505b3          	sub	a1,a0,a4
/home/scratch/jenkins/workspace/tpp-freedom-tools/tpp04--build-binary-packages--parameterized/obj/x86_64-linux-centos6/build/riscv64-unknown-elf-gcc/build-gcc-stage2/riscv64-unknown-elf/rv32imac/ilp32/libgcc/../../../../../riscv-gcc/libgcc/libgcc2.c:1160
20015874:	02e51163          	bne	a0,a4,20015896 <__udivdi3+0x268>
/home/scratch/jenkins/workspace/tpp-freedom-tools/tpp04--build-binary-packages--parameterized/obj/x86_64-linux-centos6/build/riscv64-unknown-elf-gcc/build-gcc-stage2/riscv64-unknown-elf/rv32imac/ilp32/libgcc/../../../../../riscv-gcc/libgcc/libgcc2.c:1172
20015878:	4505                	li	a0,1
/home/scratch/jenkins/workspace/tpp-freedom-tools/tpp04--build-binary-packages--parameterized/obj/x86_64-linux-centos6/build/riscv64-unknown-elf-gcc/build-gcc-stage2/riscv64-unknown-elf/rv32imac/ilp32/libgcc/../../../../../riscv-gcc/libgcc/libgcc2.c:1170
2001587a:	f2f6e7e3          	bltu	a3,a5,200157a8 <__udivdi3+0x17a>
2001587e:	00c8b533          	sltu	a0,a7,a2
20015882:	00154513          	xori	a0,a0,1
20015886:	b70d                	j	200157a8 <__udivdi3+0x17a>
/home/scratch/jenkins/workspace/tpp-freedom-tools/tpp04--build-binary-packages--parameterized/obj/x86_64-linux-centos6/build/riscv64-unknown-elf-gcc/build-gcc-stage2/riscv64-unknown-elf/rv32imac/ilp32/libgcc/../../../../../riscv-gcc/libgcc/libgcc2.c:1159
20015888:	01000737          	lui	a4,0x1000
2001588c:	45c1                	li	a1,16
2001588e:	fce6e5e3          	bltu	a3,a4,20015858 <__udivdi3+0x22a>
20015892:	45e1                	li	a1,24
20015894:	b7d1                	j	20015858 <__udivdi3+0x22a>
/home/scratch/jenkins/workspace/tpp-freedom-tools/tpp04--build-binary-packages--parameterized/obj/x86_64-linux-centos6/build/riscv64-unknown-elf-gcc/build-gcc-stage2/riscv64-unknown-elf/rv32imac/ilp32/libgcc/../../../../../riscv-gcc/libgcc/libgcc2.c:1194
20015896:	00e65833          	srl	a6,a2,a4
2001589a:	00b696b3          	sll	a3,a3,a1
2001589e:	00d86833          	or	a6,a6,a3
/home/scratch/jenkins/workspace/tpp-freedom-tools/tpp04--build-binary-packages--parameterized/obj/x86_64-linux-centos6/build/riscv64-unknown-elf-gcc/build-gcc-stage2/riscv64-unknown-elf/rv32imac/ilp32/libgcc/../../../../../riscv-gcc/libgcc/libgcc2.c:1196
200158a2:	00e7d333          	srl	t1,a5,a4
/home/scratch/jenkins/workspace/tpp-freedom-tools/tpp04--build-binary-packages--parameterized/obj/x86_64-linux-centos6/build/riscv64-unknown-elf-gcc/build-gcc-stage2/riscv64-unknown-elf/rv32imac/ilp32/libgcc/../../../../../riscv-gcc/libgcc/libgcc2.c:1200
200158a6:	01085e93          	srli	t4,a6,0x10
200158aa:	03d376b3          	remu	a3,t1,t4
/home/scratch/jenkins/workspace/tpp-freedom-tools/tpp04--build-binary-packages--parameterized/obj/x86_64-linux-centos6/build/riscv64-unknown-elf-gcc/build-gcc-stage2/riscv64-unknown-elf/rv32imac/ilp32/libgcc/../../../../../riscv-gcc/libgcc/libgcc2.c:1197
200158ae:	00b797b3          	sll	a5,a5,a1
200158b2:	00e8d733          	srl	a4,a7,a4
/home/scratch/jenkins/workspace/tpp-freedom-tools/tpp04--build-binary-packages--parameterized/obj/x86_64-linux-centos6/build/riscv64-unknown-elf-gcc/build-gcc-stage2/riscv64-unknown-elf/rv32imac/ilp32/libgcc/../../../../../riscv-gcc/libgcc/libgcc2.c:1195
200158b6:	00b61e33          	sll	t3,a2,a1
/home/scratch/jenkins/workspace/tpp-freedom-tools/tpp04--build-binary-packages--parameterized/obj/x86_64-linux-centos6/build/riscv64-unknown-elf-gcc/build-gcc-stage2/riscv64-unknown-elf/rv32imac/ilp32/libgcc/../../../../../riscv-gcc/libgcc/libgcc2.c:1197
200158ba:	00f76633          	or	a2,a4,a5
/home/scratch/jenkins/workspace/tpp-freedom-tools/tpp04--build-binary-packages--parameterized/obj/x86_64-linux-centos6/build/riscv64-unknown-elf-gcc/build-gcc-stage2/riscv64-unknown-elf/rv32imac/ilp32/libgcc/../../../../../riscv-gcc/libgcc/libgcc2.c:1200
200158be:	01081793          	slli	a5,a6,0x10
200158c2:	83c1                	srli	a5,a5,0x10
200158c4:	01065713          	srli	a4,a2,0x10
200158c8:	03d35333          	divu	t1,t1,t4
200158cc:	06c2                	slli	a3,a3,0x10
200158ce:	8f55                	or	a4,a4,a3
200158d0:	02678f33          	mul	t5,a5,t1
200158d4:	851a                	mv	a0,t1
200158d6:	01e77c63          	bgeu	a4,t5,200158ee <__udivdi3+0x2c0>
200158da:	9742                	add	a4,a4,a6
200158dc:	fff30513          	addi	a0,t1,-1
200158e0:	01076763          	bltu	a4,a6,200158ee <__udivdi3+0x2c0>
200158e4:	01e77563          	bgeu	a4,t5,200158ee <__udivdi3+0x2c0>
200158e8:	ffe30513          	addi	a0,t1,-2
200158ec:	9742                	add	a4,a4,a6
200158ee:	41e70733          	sub	a4,a4,t5
200158f2:	03d776b3          	remu	a3,a4,t4
200158f6:	03d75733          	divu	a4,a4,t4
200158fa:	06c2                	slli	a3,a3,0x10
200158fc:	02e78333          	mul	t1,a5,a4
20015900:	01061793          	slli	a5,a2,0x10
20015904:	83c1                	srli	a5,a5,0x10
20015906:	8fd5                	or	a5,a5,a3
20015908:	863a                	mv	a2,a4
2001590a:	0067fc63          	bgeu	a5,t1,20015922 <__udivdi3+0x2f4>
2001590e:	97c2                	add	a5,a5,a6
20015910:	fff70613          	addi	a2,a4,-1 # ffffff <__heap_size+0xfff7ff>
20015914:	0107e763          	bltu	a5,a6,20015922 <__udivdi3+0x2f4>
20015918:	0067f563          	bgeu	a5,t1,20015922 <__udivdi3+0x2f4>
2001591c:	ffe70613          	addi	a2,a4,-2
20015920:	97c2                	add	a5,a5,a6
20015922:	0542                	slli	a0,a0,0x10
/home/scratch/jenkins/workspace/tpp-freedom-tools/tpp04--build-binary-packages--parameterized/obj/x86_64-linux-centos6/build/riscv64-unknown-elf-gcc/build-gcc-stage2/riscv64-unknown-elf/rv32imac/ilp32/libgcc/../../../../../riscv-gcc/libgcc/libgcc2.c:1201
20015924:	6ec1                	lui	t4,0x10
/home/scratch/jenkins/workspace/tpp-freedom-tools/tpp04--build-binary-packages--parameterized/obj/x86_64-linux-centos6/build/riscv64-unknown-elf-gcc/build-gcc-stage2/riscv64-unknown-elf/rv32imac/ilp32/libgcc/../../../../../riscv-gcc/libgcc/libgcc2.c:1200
20015926:	8d51                	or	a0,a0,a2
/home/scratch/jenkins/workspace/tpp-freedom-tools/tpp04--build-binary-packages--parameterized/obj/x86_64-linux-centos6/build/riscv64-unknown-elf-gcc/build-gcc-stage2/riscv64-unknown-elf/rv32imac/ilp32/libgcc/../../../../../riscv-gcc/libgcc/libgcc2.c:1201
20015928:	fffe8693          	addi	a3,t4,-1 # ffff <__heap_size+0xf7ff>
2001592c:	010e5613          	srli	a2,t3,0x10
20015930:	01055813          	srli	a6,a0,0x10
/home/scratch/jenkins/workspace/tpp-freedom-tools/tpp04--build-binary-packages--parameterized/obj/x86_64-linux-centos6/build/riscv64-unknown-elf-gcc/build-gcc-stage2/riscv64-unknown-elf/rv32imac/ilp32/libgcc/../../../../../riscv-gcc/libgcc/libgcc2.c:1200
20015934:	406787b3          	sub	a5,a5,t1
/home/scratch/jenkins/workspace/tpp-freedom-tools/tpp04--build-binary-packages--parameterized/obj/x86_64-linux-centos6/build/riscv64-unknown-elf-gcc/build-gcc-stage2/riscv64-unknown-elf/rv32imac/ilp32/libgcc/../../../../../riscv-gcc/libgcc/libgcc2.c:1201
20015938:	00d57333          	and	t1,a0,a3
2001593c:	00de76b3          	and	a3,t3,a3
20015940:	02d30e33          	mul	t3,t1,a3
20015944:	02d806b3          	mul	a3,a6,a3
20015948:	010e5713          	srli	a4,t3,0x10
2001594c:	02c30333          	mul	t1,t1,a2
20015950:	9336                	add	t1,t1,a3
20015952:	971a                	add	a4,a4,t1
20015954:	02c80833          	mul	a6,a6,a2
20015958:	00d77363          	bgeu	a4,a3,2001595e <__udivdi3+0x330>
2001595c:	9876                	add	a6,a6,t4
2001595e:	01075693          	srli	a3,a4,0x10
20015962:	9836                	add	a6,a6,a3
/home/scratch/jenkins/workspace/tpp-freedom-tools/tpp04--build-binary-packages--parameterized/obj/x86_64-linux-centos6/build/riscv64-unknown-elf-gcc/build-gcc-stage2/riscv64-unknown-elf/rv32imac/ilp32/libgcc/../../../../../riscv-gcc/libgcc/libgcc2.c:1203
20015964:	0307e063          	bltu	a5,a6,20015984 <__udivdi3+0x356>
20015968:	d90794e3          	bne	a5,a6,200156f0 <__udivdi3+0xc2>
/home/scratch/jenkins/workspace/tpp-freedom-tools/tpp04--build-binary-packages--parameterized/obj/x86_64-linux-centos6/build/riscv64-unknown-elf-gcc/build-gcc-stage2/riscv64-unknown-elf/rv32imac/ilp32/libgcc/../../../../../riscv-gcc/libgcc/libgcc2.c:1201
2001596c:	67c1                	lui	a5,0x10
2001596e:	17fd                	addi	a5,a5,-1
20015970:	8f7d                	and	a4,a4,a5
20015972:	0742                	slli	a4,a4,0x10
20015974:	00fe7e33          	and	t3,t3,a5
/home/scratch/jenkins/workspace/tpp-freedom-tools/tpp04--build-binary-packages--parameterized/obj/x86_64-linux-centos6/build/riscv64-unknown-elf-gcc/build-gcc-stage2/riscv64-unknown-elf/rv32imac/ilp32/libgcc/../../../../../riscv-gcc/libgcc/libgcc2.c:1198
20015978:	00b898b3          	sll	a7,a7,a1
/home/scratch/jenkins/workspace/tpp-freedom-tools/tpp04--build-binary-packages--parameterized/obj/x86_64-linux-centos6/build/riscv64-unknown-elf-gcc/build-gcc-stage2/riscv64-unknown-elf/rv32imac/ilp32/libgcc/../../../../../riscv-gcc/libgcc/libgcc2.c:1201
2001597c:	9772                	add	a4,a4,t3
/home/scratch/jenkins/workspace/tpp-freedom-tools/tpp04--build-binary-packages--parameterized/obj/x86_64-linux-centos6/build/riscv64-unknown-elf-gcc/build-gcc-stage2/riscv64-unknown-elf/rv32imac/ilp32/libgcc/../../../../../riscv-gcc/libgcc/libgcc2.c:1209
2001597e:	4581                	li	a1,0
/home/scratch/jenkins/workspace/tpp-freedom-tools/tpp04--build-binary-packages--parameterized/obj/x86_64-linux-centos6/build/riscv64-unknown-elf-gcc/build-gcc-stage2/riscv64-unknown-elf/rv32imac/ilp32/libgcc/../../../../../riscv-gcc/libgcc/libgcc2.c:1203
20015980:	e2e8f4e3          	bgeu	a7,a4,200157a8 <__udivdi3+0x17a>
/home/scratch/jenkins/workspace/tpp-freedom-tools/tpp04--build-binary-packages--parameterized/obj/x86_64-linux-centos6/build/riscv64-unknown-elf-gcc/build-gcc-stage2/riscv64-unknown-elf/rv32imac/ilp32/libgcc/../../../../../riscv-gcc/libgcc/libgcc2.c:1205
20015984:	157d                	addi	a0,a0,-1
__udivdi3():
/home/scratch/jenkins/workspace/tpp-freedom-tools/tpp04--build-binary-packages--parameterized/obj/x86_64-linux-centos6/build/riscv64-unknown-elf-gcc/build-gcc-stage2/riscv64-unknown-elf/rv32imac/ilp32/libgcc/../../../../../riscv-gcc/libgcc/libgcc2.c:1206
20015986:	b3ad                	j	200156f0 <__udivdi3+0xc2>
__udivmoddi4():
/home/scratch/jenkins/workspace/tpp-freedom-tools/tpp04--build-binary-packages--parameterized/obj/x86_64-linux-centos6/build/riscv64-unknown-elf-gcc/build-gcc-stage2/riscv64-unknown-elf/rv32imac/ilp32/libgcc/../../../../../riscv-gcc/libgcc/libgcc2.c:1145
20015988:	4581                	li	a1,0
/home/scratch/jenkins/workspace/tpp-freedom-tools/tpp04--build-binary-packages--parameterized/obj/x86_64-linux-centos6/build/riscv64-unknown-elf-gcc/build-gcc-stage2/riscv64-unknown-elf/rv32imac/ilp32/libgcc/../../../../../riscv-gcc/libgcc/libgcc2.c:1144
2001598a:	4501                	li	a0,0
2001598c:	bd31                	j	200157a8 <__udivdi3+0x17a>

2001598e <__umoddi3>:
__umoddi3():
/home/scratch/jenkins/workspace/tpp-freedom-tools/tpp04--build-binary-packages--parameterized/obj/x86_64-linux-centos6/build/riscv64-unknown-elf-gcc/build-gcc-stage2/riscv64-unknown-elf/rv32imac/ilp32/libgcc/../../../../../riscv-gcc/libgcc/libgcc2.c:1307
2001598e:	832a                	mv	t1,a0
__udivmoddi4():
/home/scratch/jenkins/workspace/tpp-freedom-tools/tpp04--build-binary-packages--parameterized/obj/x86_64-linux-centos6/build/riscv64-unknown-elf-gcc/build-gcc-stage2/riscv64-unknown-elf/rv32imac/ilp32/libgcc/../../../../../riscv-gcc/libgcc/libgcc2.c:1024
20015990:	8832                	mv	a6,a2
/home/scratch/jenkins/workspace/tpp-freedom-tools/tpp04--build-binary-packages--parameterized/obj/x86_64-linux-centos6/build/riscv64-unknown-elf-gcc/build-gcc-stage2/riscv64-unknown-elf/rv32imac/ilp32/libgcc/../../../../../riscv-gcc/libgcc/libgcc2.c:1025
20015992:	87b6                	mv	a5,a3
/home/scratch/jenkins/workspace/tpp-freedom-tools/tpp04--build-binary-packages--parameterized/obj/x86_64-linux-centos6/build/riscv64-unknown-elf-gcc/build-gcc-stage2/riscv64-unknown-elf/rv32imac/ilp32/libgcc/../../../../../riscv-gcc/libgcc/libgcc2.c:1027
20015994:	872e                	mv	a4,a1
/home/scratch/jenkins/workspace/tpp-freedom-tools/tpp04--build-binary-packages--parameterized/obj/x86_64-linux-centos6/build/riscv64-unknown-elf-gcc/build-gcc-stage2/riscv64-unknown-elf/rv32imac/ilp32/libgcc/../../../../../riscv-gcc/libgcc/libgcc2.c:1064
20015996:	1c069563          	bnez	a3,20015b60 <__umoddi3+0x1d2>
/home/scratch/jenkins/workspace/tpp-freedom-tools/tpp04--build-binary-packages--parameterized/obj/x86_64-linux-centos6/build/riscv64-unknown-elf-gcc/build-gcc-stage2/riscv64-unknown-elf/rv32imac/ilp32/libgcc/../../../../../riscv-gcc/libgcc/libgcc2.c:1066
2001599a:	ffffb697          	auipc	a3,0xffffb
2001599e:	4b268693          	addi	a3,a3,1202 # 20010e4c <__clz_tab>
200159a2:	0ac5f663          	bgeu	a1,a2,20015a4e <__umoddi3+0xc0>
/home/scratch/jenkins/workspace/tpp-freedom-tools/tpp04--build-binary-packages--parameterized/obj/x86_64-linux-centos6/build/riscv64-unknown-elf-gcc/build-gcc-stage2/riscv64-unknown-elf/rv32imac/ilp32/libgcc/../../../../../riscv-gcc/libgcc/libgcc2.c:1070
200159a6:	68c1                	lui	a7,0x10
200159a8:	09167c63          	bgeu	a2,a7,20015a40 <__umoddi3+0xb2>
200159ac:	0ff00893          	li	a7,255
200159b0:	00c8f363          	bgeu	a7,a2,200159b6 <__umoddi3+0x28>
200159b4:	47a1                	li	a5,8
200159b6:	00f658b3          	srl	a7,a2,a5
200159ba:	96c6                	add	a3,a3,a7
200159bc:	0006c683          	lbu	a3,0(a3)
200159c0:	97b6                	add	a5,a5,a3
200159c2:	02000693          	li	a3,32
200159c6:	40f688b3          	sub	a7,a3,a5
/home/scratch/jenkins/workspace/tpp-freedom-tools/tpp04--build-binary-packages--parameterized/obj/x86_64-linux-centos6/build/riscv64-unknown-elf-gcc/build-gcc-stage2/riscv64-unknown-elf/rv32imac/ilp32/libgcc/../../../../../riscv-gcc/libgcc/libgcc2.c:1072
200159ca:	00f68c63          	beq	a3,a5,200159e2 <__umoddi3+0x54>
/home/scratch/jenkins/workspace/tpp-freedom-tools/tpp04--build-binary-packages--parameterized/obj/x86_64-linux-centos6/build/riscv64-unknown-elf-gcc/build-gcc-stage2/riscv64-unknown-elf/rv32imac/ilp32/libgcc/../../../../../riscv-gcc/libgcc/libgcc2.c:1078
200159ce:	011595b3          	sll	a1,a1,a7
200159d2:	00f357b3          	srl	a5,t1,a5
/home/scratch/jenkins/workspace/tpp-freedom-tools/tpp04--build-binary-packages--parameterized/obj/x86_64-linux-centos6/build/riscv64-unknown-elf-gcc/build-gcc-stage2/riscv64-unknown-elf/rv32imac/ilp32/libgcc/../../../../../riscv-gcc/libgcc/libgcc2.c:1077
200159d6:	01161833          	sll	a6,a2,a7
/home/scratch/jenkins/workspace/tpp-freedom-tools/tpp04--build-binary-packages--parameterized/obj/x86_64-linux-centos6/build/riscv64-unknown-elf-gcc/build-gcc-stage2/riscv64-unknown-elf/rv32imac/ilp32/libgcc/../../../../../riscv-gcc/libgcc/libgcc2.c:1078
200159da:	00b7e733          	or	a4,a5,a1
/home/scratch/jenkins/workspace/tpp-freedom-tools/tpp04--build-binary-packages--parameterized/obj/x86_64-linux-centos6/build/riscv64-unknown-elf-gcc/build-gcc-stage2/riscv64-unknown-elf/rv32imac/ilp32/libgcc/../../../../../riscv-gcc/libgcc/libgcc2.c:1079
200159de:	01131533          	sll	a0,t1,a7
/home/scratch/jenkins/workspace/tpp-freedom-tools/tpp04--build-binary-packages--parameterized/obj/x86_64-linux-centos6/build/riscv64-unknown-elf-gcc/build-gcc-stage2/riscv64-unknown-elf/rv32imac/ilp32/libgcc/../../../../../riscv-gcc/libgcc/libgcc2.c:1082
200159e2:	01085593          	srli	a1,a6,0x10
200159e6:	02b777b3          	remu	a5,a4,a1
200159ea:	01081613          	slli	a2,a6,0x10
200159ee:	8241                	srli	a2,a2,0x10
200159f0:	01055693          	srli	a3,a0,0x10
200159f4:	02b75733          	divu	a4,a4,a1
200159f8:	07c2                	slli	a5,a5,0x10
200159fa:	8edd                	or	a3,a3,a5
200159fc:	02e60733          	mul	a4,a2,a4
20015a00:	00e6f863          	bgeu	a3,a4,20015a10 <__umoddi3+0x82>
20015a04:	96c2                	add	a3,a3,a6
20015a06:	0106e563          	bltu	a3,a6,20015a10 <__umoddi3+0x82>
20015a0a:	00e6f363          	bgeu	a3,a4,20015a10 <__umoddi3+0x82>
20015a0e:	96c2                	add	a3,a3,a6
20015a10:	8e99                	sub	a3,a3,a4
20015a12:	02b6f7b3          	remu	a5,a3,a1
20015a16:	0542                	slli	a0,a0,0x10
20015a18:	8141                	srli	a0,a0,0x10
20015a1a:	02b6d6b3          	divu	a3,a3,a1
20015a1e:	07c2                	slli	a5,a5,0x10
20015a20:	8d5d                	or	a0,a0,a5
20015a22:	02d606b3          	mul	a3,a2,a3
20015a26:	00d57863          	bgeu	a0,a3,20015a36 <__umoddi3+0xa8>
20015a2a:	9542                	add	a0,a0,a6
20015a2c:	01056563          	bltu	a0,a6,20015a36 <__umoddi3+0xa8>
20015a30:	00d57363          	bgeu	a0,a3,20015a36 <__umoddi3+0xa8>
20015a34:	9542                	add	a0,a0,a6
20015a36:	8d15                	sub	a0,a0,a3
/home/scratch/jenkins/workspace/tpp-freedom-tools/tpp04--build-binary-packages--parameterized/obj/x86_64-linux-centos6/build/riscv64-unknown-elf-gcc/build-gcc-stage2/riscv64-unknown-elf/rv32imac/ilp32/libgcc/../../../../../riscv-gcc/libgcc/libgcc2.c:1131
20015a38:	01155533          	srl	a0,a0,a7
/home/scratch/jenkins/workspace/tpp-freedom-tools/tpp04--build-binary-packages--parameterized/obj/x86_64-linux-centos6/build/riscv64-unknown-elf-gcc/build-gcc-stage2/riscv64-unknown-elf/rv32imac/ilp32/libgcc/../../../../../riscv-gcc/libgcc/libgcc2.c:1133
20015a3c:	4581                	li	a1,0
__umoddi3():
/home/scratch/jenkins/workspace/tpp-freedom-tools/tpp04--build-binary-packages--parameterized/obj/x86_64-linux-centos6/build/riscv64-unknown-elf-gcc/build-gcc-stage2/riscv64-unknown-elf/rv32imac/ilp32/libgcc/../../../../../riscv-gcc/libgcc/libgcc2.c:1313
20015a3e:	8082                	ret
__udivmoddi4():
/home/scratch/jenkins/workspace/tpp-freedom-tools/tpp04--build-binary-packages--parameterized/obj/x86_64-linux-centos6/build/riscv64-unknown-elf-gcc/build-gcc-stage2/riscv64-unknown-elf/rv32imac/ilp32/libgcc/../../../../../riscv-gcc/libgcc/libgcc2.c:1070
20015a40:	010008b7          	lui	a7,0x1000
20015a44:	47c1                	li	a5,16
20015a46:	f71668e3          	bltu	a2,a7,200159b6 <__umoddi3+0x28>
20015a4a:	47e1                	li	a5,24
20015a4c:	b7ad                	j	200159b6 <__umoddi3+0x28>
/home/scratch/jenkins/workspace/tpp-freedom-tools/tpp04--build-binary-packages--parameterized/obj/x86_64-linux-centos6/build/riscv64-unknown-elf-gcc/build-gcc-stage2/riscv64-unknown-elf/rv32imac/ilp32/libgcc/../../../../../riscv-gcc/libgcc/libgcc2.c:1091
20015a4e:	e601                	bnez	a2,20015a56 <__umoddi3+0xc8>
/home/scratch/jenkins/workspace/tpp-freedom-tools/tpp04--build-binary-packages--parameterized/obj/x86_64-linux-centos6/build/riscv64-unknown-elf-gcc/build-gcc-stage2/riscv64-unknown-elf/rv32imac/ilp32/libgcc/../../../../../riscv-gcc/libgcc/libgcc2.c:1092
20015a50:	4705                	li	a4,1
20015a52:	02c75833          	divu	a6,a4,a2
/home/scratch/jenkins/workspace/tpp-freedom-tools/tpp04--build-binary-packages--parameterized/obj/x86_64-linux-centos6/build/riscv64-unknown-elf-gcc/build-gcc-stage2/riscv64-unknown-elf/rv32imac/ilp32/libgcc/../../../../../riscv-gcc/libgcc/libgcc2.c:1094
20015a56:	6741                	lui	a4,0x10
20015a58:	08e87363          	bgeu	a6,a4,20015ade <__umoddi3+0x150>
20015a5c:	0ff00713          	li	a4,255
20015a60:	01077363          	bgeu	a4,a6,20015a66 <__umoddi3+0xd8>
20015a64:	47a1                	li	a5,8
20015a66:	00f85733          	srl	a4,a6,a5
20015a6a:	96ba                	add	a3,a3,a4
20015a6c:	0006c603          	lbu	a2,0(a3)
20015a70:	963e                	add	a2,a2,a5
20015a72:	02000793          	li	a5,32
20015a76:	40c788b3          	sub	a7,a5,a2
/home/scratch/jenkins/workspace/tpp-freedom-tools/tpp04--build-binary-packages--parameterized/obj/x86_64-linux-centos6/build/riscv64-unknown-elf-gcc/build-gcc-stage2/riscv64-unknown-elf/rv32imac/ilp32/libgcc/../../../../../riscv-gcc/libgcc/libgcc2.c:1096
20015a7a:	06c79963          	bne	a5,a2,20015aec <__umoddi3+0x15e>
/home/scratch/jenkins/workspace/tpp-freedom-tools/tpp04--build-binary-packages--parameterized/obj/x86_64-linux-centos6/build/riscv64-unknown-elf-gcc/build-gcc-stage2/riscv64-unknown-elf/rv32imac/ilp32/libgcc/../../../../../riscv-gcc/libgcc/libgcc2.c:1105
20015a7e:	410585b3          	sub	a1,a1,a6
/home/scratch/jenkins/workspace/tpp-freedom-tools/tpp04--build-binary-packages--parameterized/obj/x86_64-linux-centos6/build/riscv64-unknown-elf-gcc/build-gcc-stage2/riscv64-unknown-elf/rv32imac/ilp32/libgcc/../../../../../riscv-gcc/libgcc/libgcc2.c:1124
20015a82:	01085693          	srli	a3,a6,0x10
20015a86:	01081793          	slli	a5,a6,0x10
20015a8a:	83c1                	srli	a5,a5,0x10
20015a8c:	01055613          	srli	a2,a0,0x10
20015a90:	02d5f733          	remu	a4,a1,a3
20015a94:	02d5d5b3          	divu	a1,a1,a3
20015a98:	0742                	slli	a4,a4,0x10
20015a9a:	8f51                	or	a4,a4,a2
20015a9c:	02b785b3          	mul	a1,a5,a1
20015aa0:	00b77863          	bgeu	a4,a1,20015ab0 <__umoddi3+0x122>
20015aa4:	9742                	add	a4,a4,a6
20015aa6:	01076563          	bltu	a4,a6,20015ab0 <__umoddi3+0x122>
20015aaa:	00b77363          	bgeu	a4,a1,20015ab0 <__umoddi3+0x122>
20015aae:	9742                	add	a4,a4,a6
20015ab0:	40b705b3          	sub	a1,a4,a1
20015ab4:	02d5f733          	remu	a4,a1,a3
20015ab8:	0542                	slli	a0,a0,0x10
20015aba:	8141                	srli	a0,a0,0x10
20015abc:	02d5d5b3          	divu	a1,a1,a3
20015ac0:	02b785b3          	mul	a1,a5,a1
20015ac4:	01071793          	slli	a5,a4,0x10
20015ac8:	8d5d                	or	a0,a0,a5
20015aca:	00b57863          	bgeu	a0,a1,20015ada <__umoddi3+0x14c>
20015ace:	9542                	add	a0,a0,a6
20015ad0:	01056563          	bltu	a0,a6,20015ada <__umoddi3+0x14c>
20015ad4:	00b57363          	bgeu	a0,a1,20015ada <__umoddi3+0x14c>
20015ad8:	9542                	add	a0,a0,a6
20015ada:	8d0d                	sub	a0,a0,a1
20015adc:	bfb1                	j	20015a38 <__umoddi3+0xaa>
/home/scratch/jenkins/workspace/tpp-freedom-tools/tpp04--build-binary-packages--parameterized/obj/x86_64-linux-centos6/build/riscv64-unknown-elf-gcc/build-gcc-stage2/riscv64-unknown-elf/rv32imac/ilp32/libgcc/../../../../../riscv-gcc/libgcc/libgcc2.c:1094
20015ade:	01000737          	lui	a4,0x1000
20015ae2:	47c1                	li	a5,16
20015ae4:	f8e861e3          	bltu	a6,a4,20015a66 <__umoddi3+0xd8>
20015ae8:	47e1                	li	a5,24
20015aea:	bfb5                	j	20015a66 <__umoddi3+0xd8>
/home/scratch/jenkins/workspace/tpp-freedom-tools/tpp04--build-binary-packages--parameterized/obj/x86_64-linux-centos6/build/riscv64-unknown-elf-gcc/build-gcc-stage2/riscv64-unknown-elf/rv32imac/ilp32/libgcc/../../../../../riscv-gcc/libgcc/libgcc2.c:1114
20015aec:	01181833          	sll	a6,a6,a7
/home/scratch/jenkins/workspace/tpp-freedom-tools/tpp04--build-binary-packages--parameterized/obj/x86_64-linux-centos6/build/riscv64-unknown-elf-gcc/build-gcc-stage2/riscv64-unknown-elf/rv32imac/ilp32/libgcc/../../../../../riscv-gcc/libgcc/libgcc2.c:1115
20015af0:	00c5d6b3          	srl	a3,a1,a2
/home/scratch/jenkins/workspace/tpp-freedom-tools/tpp04--build-binary-packages--parameterized/obj/x86_64-linux-centos6/build/riscv64-unknown-elf-gcc/build-gcc-stage2/riscv64-unknown-elf/rv32imac/ilp32/libgcc/../../../../../riscv-gcc/libgcc/libgcc2.c:1119
20015af4:	01085793          	srli	a5,a6,0x10
20015af8:	02f6f733          	remu	a4,a3,a5
/home/scratch/jenkins/workspace/tpp-freedom-tools/tpp04--build-binary-packages--parameterized/obj/x86_64-linux-centos6/build/riscv64-unknown-elf-gcc/build-gcc-stage2/riscv64-unknown-elf/rv32imac/ilp32/libgcc/../../../../../riscv-gcc/libgcc/libgcc2.c:1116
20015afc:	011595b3          	sll	a1,a1,a7
20015b00:	00c35633          	srl	a2,t1,a2
20015b04:	8e4d                	or	a2,a2,a1
/home/scratch/jenkins/workspace/tpp-freedom-tools/tpp04--build-binary-packages--parameterized/obj/x86_64-linux-centos6/build/riscv64-unknown-elf-gcc/build-gcc-stage2/riscv64-unknown-elf/rv32imac/ilp32/libgcc/../../../../../riscv-gcc/libgcc/libgcc2.c:1119
20015b06:	01081593          	slli	a1,a6,0x10
20015b0a:	81c1                	srli	a1,a1,0x10
/home/scratch/jenkins/workspace/tpp-freedom-tools/tpp04--build-binary-packages--parameterized/obj/x86_64-linux-centos6/build/riscv64-unknown-elf-gcc/build-gcc-stage2/riscv64-unknown-elf/rv32imac/ilp32/libgcc/../../../../../riscv-gcc/libgcc/libgcc2.c:1117
20015b0c:	01131533          	sll	a0,t1,a7
/home/scratch/jenkins/workspace/tpp-freedom-tools/tpp04--build-binary-packages--parameterized/obj/x86_64-linux-centos6/build/riscv64-unknown-elf-gcc/build-gcc-stage2/riscv64-unknown-elf/rv32imac/ilp32/libgcc/../../../../../riscv-gcc/libgcc/libgcc2.c:1119
20015b10:	01065313          	srli	t1,a2,0x10
20015b14:	02f6d6b3          	divu	a3,a3,a5
20015b18:	0742                	slli	a4,a4,0x10
20015b1a:	00676733          	or	a4,a4,t1
20015b1e:	02d586b3          	mul	a3,a1,a3
20015b22:	00d77863          	bgeu	a4,a3,20015b32 <__umoddi3+0x1a4>
20015b26:	9742                	add	a4,a4,a6
20015b28:	01076563          	bltu	a4,a6,20015b32 <__umoddi3+0x1a4>
20015b2c:	00d77363          	bgeu	a4,a3,20015b32 <__umoddi3+0x1a4>
20015b30:	9742                	add	a4,a4,a6
20015b32:	40d706b3          	sub	a3,a4,a3
20015b36:	02f6f733          	remu	a4,a3,a5
20015b3a:	0642                	slli	a2,a2,0x10
20015b3c:	8241                	srli	a2,a2,0x10
20015b3e:	02f6d6b3          	divu	a3,a3,a5
20015b42:	0742                	slli	a4,a4,0x10
20015b44:	02d586b3          	mul	a3,a1,a3
20015b48:	00c765b3          	or	a1,a4,a2
20015b4c:	00d5f863          	bgeu	a1,a3,20015b5c <__umoddi3+0x1ce>
20015b50:	95c2                	add	a1,a1,a6
20015b52:	0105e563          	bltu	a1,a6,20015b5c <__umoddi3+0x1ce>
20015b56:	00d5f363          	bgeu	a1,a3,20015b5c <__umoddi3+0x1ce>
20015b5a:	95c2                	add	a1,a1,a6
20015b5c:	8d95                	sub	a1,a1,a3
20015b5e:	b715                	j	20015a82 <__umoddi3+0xf4>
/home/scratch/jenkins/workspace/tpp-freedom-tools/tpp04--build-binary-packages--parameterized/obj/x86_64-linux-centos6/build/riscv64-unknown-elf-gcc/build-gcc-stage2/riscv64-unknown-elf/rv32imac/ilp32/libgcc/../../../../../riscv-gcc/libgcc/libgcc2.c:1140
20015b60:	ecd5efe3          	bltu	a1,a3,20015a3e <__umoddi3+0xb0>
/home/scratch/jenkins/workspace/tpp-freedom-tools/tpp04--build-binary-packages--parameterized/obj/x86_64-linux-centos6/build/riscv64-unknown-elf-gcc/build-gcc-stage2/riscv64-unknown-elf/rv32imac/ilp32/libgcc/../../../../../riscv-gcc/libgcc/libgcc2.c:1159
20015b64:	67c1                	lui	a5,0x10
20015b66:	04f6f463          	bgeu	a3,a5,20015bae <__umoddi3+0x220>
20015b6a:	0ff00893          	li	a7,255
20015b6e:	00d8b7b3          	sltu	a5,a7,a3
20015b72:	078e                	slli	a5,a5,0x3
20015b74:	00f6d8b3          	srl	a7,a3,a5
20015b78:	ffffb817          	auipc	a6,0xffffb
20015b7c:	2d480813          	addi	a6,a6,724 # 20010e4c <__clz_tab>
20015b80:	9846                	add	a6,a6,a7
20015b82:	00084883          	lbu	a7,0(a6)
20015b86:	98be                	add	a7,a7,a5
20015b88:	02000793          	li	a5,32
20015b8c:	41178833          	sub	a6,a5,a7
/home/scratch/jenkins/workspace/tpp-freedom-tools/tpp04--build-binary-packages--parameterized/obj/x86_64-linux-centos6/build/riscv64-unknown-elf-gcc/build-gcc-stage2/riscv64-unknown-elf/rv32imac/ilp32/libgcc/../../../../../riscv-gcc/libgcc/libgcc2.c:1160
20015b90:	03179663          	bne	a5,a7,20015bbc <__umoddi3+0x22e>
/home/scratch/jenkins/workspace/tpp-freedom-tools/tpp04--build-binary-packages--parameterized/obj/x86_64-linux-centos6/build/riscv64-unknown-elf-gcc/build-gcc-stage2/riscv64-unknown-elf/rv32imac/ilp32/libgcc/../../../../../riscv-gcc/libgcc/libgcc2.c:1170
20015b94:	00b6e463          	bltu	a3,a1,20015b9c <__umoddi3+0x20e>
20015b98:	00c36963          	bltu	t1,a2,20015baa <__umoddi3+0x21c>
/home/scratch/jenkins/workspace/tpp-freedom-tools/tpp04--build-binary-packages--parameterized/obj/x86_64-linux-centos6/build/riscv64-unknown-elf-gcc/build-gcc-stage2/riscv64-unknown-elf/rv32imac/ilp32/libgcc/../../../../../riscv-gcc/libgcc/libgcc2.c:1173
20015b9c:	40c30533          	sub	a0,t1,a2
20015ba0:	8d95                	sub	a1,a1,a3
20015ba2:	00a33733          	sltu	a4,t1,a0
20015ba6:	40e58733          	sub	a4,a1,a4
/home/scratch/jenkins/workspace/tpp-freedom-tools/tpp04--build-binary-packages--parameterized/obj/x86_64-linux-centos6/build/riscv64-unknown-elf-gcc/build-gcc-stage2/riscv64-unknown-elf/rv32imac/ilp32/libgcc/../../../../../riscv-gcc/libgcc/libgcc2.c:1184
20015baa:	85ba                	mv	a1,a4
20015bac:	bd49                	j	20015a3e <__umoddi3+0xb0>
/home/scratch/jenkins/workspace/tpp-freedom-tools/tpp04--build-binary-packages--parameterized/obj/x86_64-linux-centos6/build/riscv64-unknown-elf-gcc/build-gcc-stage2/riscv64-unknown-elf/rv32imac/ilp32/libgcc/../../../../../riscv-gcc/libgcc/libgcc2.c:1159
20015bae:	01000837          	lui	a6,0x1000
20015bb2:	47c1                	li	a5,16
20015bb4:	fd06e0e3          	bltu	a3,a6,20015b74 <__umoddi3+0x1e6>
20015bb8:	47e1                	li	a5,24
20015bba:	bf6d                	j	20015b74 <__umoddi3+0x1e6>
/home/scratch/jenkins/workspace/tpp-freedom-tools/tpp04--build-binary-packages--parameterized/obj/x86_64-linux-centos6/build/riscv64-unknown-elf-gcc/build-gcc-stage2/riscv64-unknown-elf/rv32imac/ilp32/libgcc/../../../../../riscv-gcc/libgcc/libgcc2.c:1194
20015bbc:	011657b3          	srl	a5,a2,a7
20015bc0:	010696b3          	sll	a3,a3,a6
20015bc4:	00d7ee33          	or	t3,a5,a3
/home/scratch/jenkins/workspace/tpp-freedom-tools/tpp04--build-binary-packages--parameterized/obj/x86_64-linux-centos6/build/riscv64-unknown-elf-gcc/build-gcc-stage2/riscv64-unknown-elf/rv32imac/ilp32/libgcc/../../../../../riscv-gcc/libgcc/libgcc2.c:1196
20015bc8:	0115d733          	srl	a4,a1,a7
/home/scratch/jenkins/workspace/tpp-freedom-tools/tpp04--build-binary-packages--parameterized/obj/x86_64-linux-centos6/build/riscv64-unknown-elf-gcc/build-gcc-stage2/riscv64-unknown-elf/rv32imac/ilp32/libgcc/../../../../../riscv-gcc/libgcc/libgcc2.c:1200
20015bcc:	010e5f13          	srli	t5,t3,0x10
/home/scratch/jenkins/workspace/tpp-freedom-tools/tpp04--build-binary-packages--parameterized/obj/x86_64-linux-centos6/build/riscv64-unknown-elf-gcc/build-gcc-stage2/riscv64-unknown-elf/rv32imac/ilp32/libgcc/../../../../../riscv-gcc/libgcc/libgcc2.c:1195
20015bd0:	01061eb3          	sll	t4,a2,a6
/home/scratch/jenkins/workspace/tpp-freedom-tools/tpp04--build-binary-packages--parameterized/obj/x86_64-linux-centos6/build/riscv64-unknown-elf-gcc/build-gcc-stage2/riscv64-unknown-elf/rv32imac/ilp32/libgcc/../../../../../riscv-gcc/libgcc/libgcc2.c:1200
20015bd4:	03e77633          	remu	a2,a4,t5
/home/scratch/jenkins/workspace/tpp-freedom-tools/tpp04--build-binary-packages--parameterized/obj/x86_64-linux-centos6/build/riscv64-unknown-elf-gcc/build-gcc-stage2/riscv64-unknown-elf/rv32imac/ilp32/libgcc/../../../../../riscv-gcc/libgcc/libgcc2.c:1197
20015bd8:	010595b3          	sll	a1,a1,a6
20015bdc:	011357b3          	srl	a5,t1,a7
20015be0:	8fcd                	or	a5,a5,a1
/home/scratch/jenkins/workspace/tpp-freedom-tools/tpp04--build-binary-packages--parameterized/obj/x86_64-linux-centos6/build/riscv64-unknown-elf-gcc/build-gcc-stage2/riscv64-unknown-elf/rv32imac/ilp32/libgcc/../../../../../riscv-gcc/libgcc/libgcc2.c:1200
20015be2:	010e1593          	slli	a1,t3,0x10
20015be6:	81c1                	srli	a1,a1,0x10
/home/scratch/jenkins/workspace/tpp-freedom-tools/tpp04--build-binary-packages--parameterized/obj/x86_64-linux-centos6/build/riscv64-unknown-elf-gcc/build-gcc-stage2/riscv64-unknown-elf/rv32imac/ilp32/libgcc/../../../../../riscv-gcc/libgcc/libgcc2.c:1198
20015be8:	01031533          	sll	a0,t1,a6
/home/scratch/jenkins/workspace/tpp-freedom-tools/tpp04--build-binary-packages--parameterized/obj/x86_64-linux-centos6/build/riscv64-unknown-elf-gcc/build-gcc-stage2/riscv64-unknown-elf/rv32imac/ilp32/libgcc/../../../../../riscv-gcc/libgcc/libgcc2.c:1200
20015bec:	0107d693          	srli	a3,a5,0x10
20015bf0:	03e75733          	divu	a4,a4,t5
20015bf4:	0642                	slli	a2,a2,0x10
20015bf6:	8ed1                	or	a3,a3,a2
20015bf8:	02e58333          	mul	t1,a1,a4
20015bfc:	863a                	mv	a2,a4
20015bfe:	0066fc63          	bgeu	a3,t1,20015c16 <__umoddi3+0x288>
20015c02:	96f2                	add	a3,a3,t3
20015c04:	fff70613          	addi	a2,a4,-1 # ffffff <__heap_size+0xfff7ff>
20015c08:	01c6e763          	bltu	a3,t3,20015c16 <__umoddi3+0x288>
20015c0c:	0066f563          	bgeu	a3,t1,20015c16 <__umoddi3+0x288>
20015c10:	ffe70613          	addi	a2,a4,-2
20015c14:	96f2                	add	a3,a3,t3
20015c16:	406686b3          	sub	a3,a3,t1
20015c1a:	03e6f333          	remu	t1,a3,t5
20015c1e:	03e6d6b3          	divu	a3,a3,t5
20015c22:	0342                	slli	t1,t1,0x10
20015c24:	02d58733          	mul	a4,a1,a3
20015c28:	01079593          	slli	a1,a5,0x10
20015c2c:	81c1                	srli	a1,a1,0x10
20015c2e:	00b365b3          	or	a1,t1,a1
20015c32:	87b6                	mv	a5,a3
20015c34:	00e5fc63          	bgeu	a1,a4,20015c4c <__umoddi3+0x2be>
20015c38:	95f2                	add	a1,a1,t3
20015c3a:	fff68793          	addi	a5,a3,-1
20015c3e:	01c5e763          	bltu	a1,t3,20015c4c <__umoddi3+0x2be>
20015c42:	00e5f563          	bgeu	a1,a4,20015c4c <__umoddi3+0x2be>
20015c46:	ffe68793          	addi	a5,a3,-2
20015c4a:	95f2                	add	a1,a1,t3
20015c4c:	0642                	slli	a2,a2,0x10
/home/scratch/jenkins/workspace/tpp-freedom-tools/tpp04--build-binary-packages--parameterized/obj/x86_64-linux-centos6/build/riscv64-unknown-elf-gcc/build-gcc-stage2/riscv64-unknown-elf/rv32imac/ilp32/libgcc/../../../../../riscv-gcc/libgcc/libgcc2.c:1201
20015c4e:	6f41                	lui	t5,0x10
/home/scratch/jenkins/workspace/tpp-freedom-tools/tpp04--build-binary-packages--parameterized/obj/x86_64-linux-centos6/build/riscv64-unknown-elf-gcc/build-gcc-stage2/riscv64-unknown-elf/rv32imac/ilp32/libgcc/../../../../../riscv-gcc/libgcc/libgcc2.c:1200
20015c50:	8e5d                	or	a2,a2,a5
/home/scratch/jenkins/workspace/tpp-freedom-tools/tpp04--build-binary-packages--parameterized/obj/x86_64-linux-centos6/build/riscv64-unknown-elf-gcc/build-gcc-stage2/riscv64-unknown-elf/rv32imac/ilp32/libgcc/../../../../../riscv-gcc/libgcc/libgcc2.c:1201
20015c52:	ffff0693          	addi	a3,t5,-1 # ffff <__heap_size+0xf7ff>
20015c56:	00d67333          	and	t1,a2,a3
/home/scratch/jenkins/workspace/tpp-freedom-tools/tpp04--build-binary-packages--parameterized/obj/x86_64-linux-centos6/build/riscv64-unknown-elf-gcc/build-gcc-stage2/riscv64-unknown-elf/rv32imac/ilp32/libgcc/../../../../../riscv-gcc/libgcc/libgcc2.c:1200
20015c5a:	8d99                	sub	a1,a1,a4
/home/scratch/jenkins/workspace/tpp-freedom-tools/tpp04--build-binary-packages--parameterized/obj/x86_64-linux-centos6/build/riscv64-unknown-elf-gcc/build-gcc-stage2/riscv64-unknown-elf/rv32imac/ilp32/libgcc/../../../../../riscv-gcc/libgcc/libgcc2.c:1201
20015c5c:	8241                	srli	a2,a2,0x10
20015c5e:	010ed713          	srli	a4,t4,0x10
20015c62:	00def6b3          	and	a3,t4,a3
20015c66:	02d307b3          	mul	a5,t1,a3
20015c6a:	02d606b3          	mul	a3,a2,a3
20015c6e:	02e30333          	mul	t1,t1,a4
20015c72:	02e60633          	mul	a2,a2,a4
20015c76:	9336                	add	t1,t1,a3
20015c78:	0107d713          	srli	a4,a5,0x10
20015c7c:	971a                	add	a4,a4,t1
20015c7e:	00d77363          	bgeu	a4,a3,20015c84 <__umoddi3+0x2f6>
20015c82:	967a                	add	a2,a2,t5
20015c84:	01075693          	srli	a3,a4,0x10
20015c88:	96b2                	add	a3,a3,a2
20015c8a:	6641                	lui	a2,0x10
20015c8c:	167d                	addi	a2,a2,-1
20015c8e:	8f71                	and	a4,a4,a2
20015c90:	0742                	slli	a4,a4,0x10
20015c92:	8ff1                	and	a5,a5,a2
20015c94:	97ba                	add	a5,a5,a4
/home/scratch/jenkins/workspace/tpp-freedom-tools/tpp04--build-binary-packages--parameterized/obj/x86_64-linux-centos6/build/riscv64-unknown-elf-gcc/build-gcc-stage2/riscv64-unknown-elf/rv32imac/ilp32/libgcc/../../../../../riscv-gcc/libgcc/libgcc2.c:1203
20015c96:	00d5e663          	bltu	a1,a3,20015ca2 <__umoddi3+0x314>
20015c9a:	00d59b63          	bne	a1,a3,20015cb0 <__umoddi3+0x322>
20015c9e:	00f57963          	bgeu	a0,a5,20015cb0 <__umoddi3+0x322>
/home/scratch/jenkins/workspace/tpp-freedom-tools/tpp04--build-binary-packages--parameterized/obj/x86_64-linux-centos6/build/riscv64-unknown-elf-gcc/build-gcc-stage2/riscv64-unknown-elf/rv32imac/ilp32/libgcc/../../../../../riscv-gcc/libgcc/libgcc2.c:1206
20015ca2:	41d78633          	sub	a2,a5,t4
20015ca6:	00c7b7b3          	sltu	a5,a5,a2
20015caa:	97f2                	add	a5,a5,t3
20015cac:	8e9d                	sub	a3,a3,a5
20015cae:	87b2                	mv	a5,a2
/home/scratch/jenkins/workspace/tpp-freedom-tools/tpp04--build-binary-packages--parameterized/obj/x86_64-linux-centos6/build/riscv64-unknown-elf-gcc/build-gcc-stage2/riscv64-unknown-elf/rv32imac/ilp32/libgcc/../../../../../riscv-gcc/libgcc/libgcc2.c:1214
20015cb0:	40f507b3          	sub	a5,a0,a5
20015cb4:	00f53533          	sltu	a0,a0,a5
20015cb8:	8d95                	sub	a1,a1,a3
20015cba:	8d89                	sub	a1,a1,a0
/home/scratch/jenkins/workspace/tpp-freedom-tools/tpp04--build-binary-packages--parameterized/obj/x86_64-linux-centos6/build/riscv64-unknown-elf-gcc/build-gcc-stage2/riscv64-unknown-elf/rv32imac/ilp32/libgcc/../../../../../riscv-gcc/libgcc/libgcc2.c:1215
20015cbc:	011598b3          	sll	a7,a1,a7
20015cc0:	0107d533          	srl	a0,a5,a6
/home/scratch/jenkins/workspace/tpp-freedom-tools/tpp04--build-binary-packages--parameterized/obj/x86_64-linux-centos6/build/riscv64-unknown-elf-gcc/build-gcc-stage2/riscv64-unknown-elf/rv32imac/ilp32/libgcc/../../../../../riscv-gcc/libgcc/libgcc2.c:1217
20015cc4:	00a8e533          	or	a0,a7,a0
20015cc8:	0105d5b3          	srl	a1,a1,a6
20015ccc:	bb8d                	j	20015a3e <__umoddi3+0xb0>

20015cce <metal_init>:
metal_init():
/home/jubayer/Documents/riscV/EnergyHarvestingDeviceTestbed/FE310/blinky/freedom-metal/src/init.c:17
extern metal_constructor_t metal_constructors_start;
extern metal_constructor_t metal_constructors_end;
extern metal_destructor_t metal_destructors_start;
extern metal_destructor_t metal_destructors_end;

void metal_init(void) {
20015cce:	1101                	addi	sp,sp,-32
20015cd0:	ce06                	sw	ra,28(sp)
20015cd2:	cc22                	sw	s0,24(sp)
20015cd4:	1000                	addi	s0,sp,32
/home/jubayer/Documents/riscV/EnergyHarvestingDeviceTestbed/FE310/blinky/freedom-metal/src/init.c:20
    /* Make sure the constructors only run once */
    static int init_done = 0;
    if (init_done) {
20015cd6:	800017b7          	lui	a5,0x80001
20015cda:	a8c7a783          	lw	a5,-1396(a5) # 80000a8c <__global_pointer$+0xfffff82c>
20015cde:	efa9                	bnez	a5,20015d38 <metal_init+0x6a>
/home/jubayer/Documents/riscV/EnergyHarvestingDeviceTestbed/FE310/blinky/freedom-metal/src/init.c:23
        return;
    }
    init_done = 1;
20015ce0:	800017b7          	lui	a5,0x80001
20015ce4:	4705                	li	a4,1
20015ce6:	a8e7a623          	sw	a4,-1396(a5) # 80000a8c <__global_pointer$+0xfffff82c>
/home/jubayer/Documents/riscV/EnergyHarvestingDeviceTestbed/FE310/blinky/freedom-metal/src/init.c:25

    if (&metal_constructors_end <= &metal_constructors_start) {
20015cea:	200107b7          	lui	a5,0x20010
20015cee:	2e878713          	addi	a4,a5,744 # 200102e8 <metal_sifive_fe310_g000_pll_init>
20015cf2:	200107b7          	lui	a5,0x20010
20015cf6:	2e078793          	addi	a5,a5,736 # 200102e0 <_metal_sifive_fe310_g000_pll_init_ptr>
20015cfa:	04e7f163          	bgeu	a5,a4,20015d3c <metal_init+0x6e>
/home/jubayer/Documents/riscV/EnergyHarvestingDeviceTestbed/FE310/blinky/freedom-metal/src/init.c:29
        return;
    }

    metal_constructor_t *funcptr = &metal_constructors_start;
20015cfe:	200107b7          	lui	a5,0x20010
20015d02:	2e078793          	addi	a5,a5,736 # 200102e0 <_metal_sifive_fe310_g000_pll_init_ptr>
20015d06:	fef42623          	sw	a5,-20(s0)
/home/jubayer/Documents/riscV/EnergyHarvestingDeviceTestbed/FE310/blinky/freedom-metal/src/init.c:30
    while (funcptr != &metal_constructors_end) {
20015d0a:	a831                	j	20015d26 <metal_init+0x58>
/home/jubayer/Documents/riscV/EnergyHarvestingDeviceTestbed/FE310/blinky/freedom-metal/src/init.c:31
        metal_constructor_t func = *funcptr;
20015d0c:	fec42783          	lw	a5,-20(s0)
20015d10:	439c                	lw	a5,0(a5)
20015d12:	fef42423          	sw	a5,-24(s0)
/home/jubayer/Documents/riscV/EnergyHarvestingDeviceTestbed/FE310/blinky/freedom-metal/src/init.c:33

        func();
20015d16:	fe842783          	lw	a5,-24(s0)
20015d1a:	9782                	jalr	a5
/home/jubayer/Documents/riscV/EnergyHarvestingDeviceTestbed/FE310/blinky/freedom-metal/src/init.c:35

        funcptr += 1;
20015d1c:	fec42783          	lw	a5,-20(s0)
20015d20:	0791                	addi	a5,a5,4
20015d22:	fef42623          	sw	a5,-20(s0)
/home/jubayer/Documents/riscV/EnergyHarvestingDeviceTestbed/FE310/blinky/freedom-metal/src/init.c:30
    while (funcptr != &metal_constructors_end) {
20015d26:	fec42703          	lw	a4,-20(s0)
20015d2a:	200107b7          	lui	a5,0x20010
20015d2e:	2e878793          	addi	a5,a5,744 # 200102e8 <metal_sifive_fe310_g000_pll_init>
20015d32:	fcf71de3          	bne	a4,a5,20015d0c <metal_init+0x3e>
20015d36:	a021                	j	20015d3e <metal_init+0x70>
/home/jubayer/Documents/riscV/EnergyHarvestingDeviceTestbed/FE310/blinky/freedom-metal/src/init.c:21
        return;
20015d38:	0001                	nop
20015d3a:	a011                	j	20015d3e <metal_init+0x70>
/home/jubayer/Documents/riscV/EnergyHarvestingDeviceTestbed/FE310/blinky/freedom-metal/src/init.c:26
        return;
20015d3c:	0001                	nop
/home/jubayer/Documents/riscV/EnergyHarvestingDeviceTestbed/FE310/blinky/freedom-metal/src/init.c:37
    }
}
20015d3e:	40f2                	lw	ra,28(sp)
20015d40:	4462                	lw	s0,24(sp)
20015d42:	6105                	addi	sp,sp,32
20015d44:	8082                	ret

20015d46 <metal_fini>:
metal_fini():
/home/jubayer/Documents/riscV/EnergyHarvestingDeviceTestbed/FE310/blinky/freedom-metal/src/init.c:39

void metal_fini(void) {
20015d46:	1101                	addi	sp,sp,-32
20015d48:	ce06                	sw	ra,28(sp)
20015d4a:	cc22                	sw	s0,24(sp)
20015d4c:	1000                	addi	s0,sp,32
/home/jubayer/Documents/riscV/EnergyHarvestingDeviceTestbed/FE310/blinky/freedom-metal/src/init.c:42
    /* Make sure the destructors only run once */
    static int fini_done = 0;
    if (fini_done) {
20015d4e:	800017b7          	lui	a5,0x80001
20015d52:	a907a783          	lw	a5,-1392(a5) # 80000a90 <__global_pointer$+0xfffff830>
20015d56:	efa9                	bnez	a5,20015db0 <metal_fini+0x6a>
/home/jubayer/Documents/riscV/EnergyHarvestingDeviceTestbed/FE310/blinky/freedom-metal/src/init.c:45
        return;
    }
    fini_done = 1;
20015d58:	800017b7          	lui	a5,0x80001
20015d5c:	4705                	li	a4,1
20015d5e:	a8e7a823          	sw	a4,-1392(a5) # 80000a90 <__global_pointer$+0xfffff830>
/home/jubayer/Documents/riscV/EnergyHarvestingDeviceTestbed/FE310/blinky/freedom-metal/src/init.c:47

    if (&metal_destructors_end <= &metal_destructors_start) {
20015d62:	200107b7          	lui	a5,0x20010
20015d66:	2e878713          	addi	a4,a5,744 # 200102e8 <metal_sifive_fe310_g000_pll_init>
20015d6a:	200107b7          	lui	a5,0x20010
20015d6e:	2e878793          	addi	a5,a5,744 # 200102e8 <metal_sifive_fe310_g000_pll_init>
20015d72:	04e7f163          	bgeu	a5,a4,20015db4 <metal_fini+0x6e>
/home/jubayer/Documents/riscV/EnergyHarvestingDeviceTestbed/FE310/blinky/freedom-metal/src/init.c:51
        return;
    }

    metal_destructor_t *funcptr = &metal_destructors_start;
20015d76:	200107b7          	lui	a5,0x20010
20015d7a:	2e878793          	addi	a5,a5,744 # 200102e8 <metal_sifive_fe310_g000_pll_init>
20015d7e:	fef42623          	sw	a5,-20(s0)
/home/jubayer/Documents/riscV/EnergyHarvestingDeviceTestbed/FE310/blinky/freedom-metal/src/init.c:52
    while (funcptr != &metal_destructors_end) {
20015d82:	a831                	j	20015d9e <metal_fini+0x58>
/home/jubayer/Documents/riscV/EnergyHarvestingDeviceTestbed/FE310/blinky/freedom-metal/src/init.c:53
        metal_destructor_t func = *funcptr;
20015d84:	fec42783          	lw	a5,-20(s0)
20015d88:	439c                	lw	a5,0(a5)
20015d8a:	fef42423          	sw	a5,-24(s0)
/home/jubayer/Documents/riscV/EnergyHarvestingDeviceTestbed/FE310/blinky/freedom-metal/src/init.c:55

        func();
20015d8e:	fe842783          	lw	a5,-24(s0)
20015d92:	9782                	jalr	a5
/home/jubayer/Documents/riscV/EnergyHarvestingDeviceTestbed/FE310/blinky/freedom-metal/src/init.c:57

        funcptr += 1;
20015d94:	fec42783          	lw	a5,-20(s0)
20015d98:	0791                	addi	a5,a5,4
20015d9a:	fef42623          	sw	a5,-20(s0)
/home/jubayer/Documents/riscV/EnergyHarvestingDeviceTestbed/FE310/blinky/freedom-metal/src/init.c:52
    while (funcptr != &metal_destructors_end) {
20015d9e:	fec42703          	lw	a4,-20(s0)
20015da2:	200107b7          	lui	a5,0x20010
20015da6:	2e878793          	addi	a5,a5,744 # 200102e8 <metal_sifive_fe310_g000_pll_init>
20015daa:	fcf71de3          	bne	a4,a5,20015d84 <metal_fini+0x3e>
20015dae:	a021                	j	20015db6 <metal_fini+0x70>
/home/jubayer/Documents/riscV/EnergyHarvestingDeviceTestbed/FE310/blinky/freedom-metal/src/init.c:43
        return;
20015db0:	0001                	nop
20015db2:	a011                	j	20015db6 <metal_fini+0x70>
/home/jubayer/Documents/riscV/EnergyHarvestingDeviceTestbed/FE310/blinky/freedom-metal/src/init.c:48
        return;
20015db4:	0001                	nop
/home/jubayer/Documents/riscV/EnergyHarvestingDeviceTestbed/FE310/blinky/freedom-metal/src/init.c:59
    }
}
20015db6:	40f2                	lw	ra,28(sp)
20015db8:	4462                	lw	s0,24(sp)
20015dba:	6105                	addi	sp,sp,32
20015dbc:	8082                	ret

20015dbe <metal_init_run>:
metal_init_run():
/home/jubayer/Documents/riscV/EnergyHarvestingDeviceTestbed/FE310/blinky/freedom-metal/src/init.c:69
 * in the case that users don't want the metal constructors or
 * destructors to run.
 */

void metal_init_run(void) __attribute__((weak));
void metal_init_run(void) { metal_init(); }
20015dbe:	1141                	addi	sp,sp,-16
20015dc0:	c606                	sw	ra,12(sp)
20015dc2:	c422                	sw	s0,8(sp)
20015dc4:	0800                	addi	s0,sp,16
20015dc6:	3721                	jal	20015cce <metal_init>
20015dc8:	0001                	nop
20015dca:	40b2                	lw	ra,12(sp)
20015dcc:	4422                	lw	s0,8(sp)
20015dce:	0141                	addi	sp,sp,16
20015dd0:	8082                	ret

20015dd2 <metal_fini_run>:
metal_fini_run():
/home/jubayer/Documents/riscV/EnergyHarvestingDeviceTestbed/FE310/blinky/freedom-metal/src/init.c:72

void metal_fini_run(void) __attribute__((weak));
void metal_fini_run(void) { metal_fini(); }
20015dd2:	1141                	addi	sp,sp,-16
20015dd4:	c606                	sw	ra,12(sp)
20015dd6:	c422                	sw	s0,8(sp)
20015dd8:	0800                	addi	s0,sp,16
20015dda:	37b5                	jal	20015d46 <metal_fini>
20015ddc:	0001                	nop
20015dde:	40b2                	lw	ra,12(sp)
20015de0:	4422                	lw	s0,8(sp)
20015de2:	0141                	addi	sp,sp,16
20015de4:	8082                	ret

20015de6 <_exit>:
_exit():
/home/jubayer/Documents/riscV/EnergyHarvestingDeviceTestbed/FE310/blinky/freedom-metal/gloss/sys_exit.c:3
#include <metal/shutdown.h>

void _exit(int exit_status) {
20015de6:	1101                	addi	sp,sp,-32
20015de8:	ce06                	sw	ra,28(sp)
20015dea:	cc22                	sw	s0,24(sp)
20015dec:	1000                	addi	s0,sp,32
20015dee:	fea42623          	sw	a0,-20(s0)
/home/jubayer/Documents/riscV/EnergyHarvestingDeviceTestbed/FE310/blinky/freedom-metal/gloss/sys_exit.c:4
    metal_shutdown(exit_status);
20015df2:	fec42503          	lw	a0,-20(s0)
20015df6:	aaeff0ef          	jal	ra,200150a4 <metal_shutdown>
